Bc:_glClearStencil
Ule:_Array_InternalArray__ICollection_Add_TisMark_t2724874473_m1613484179_gshared
dZg:__ZL80Graphic_t2426225576_CustomAttributesCacheGenerator_Graphic_OnFillVBO_m1723985607P21CustomAttributesCache
exj:__ZN6il2cpp2vm5Array13GetByteLengthEP11Il2CppArray
ALh:_Raycast3DCallback_BeginInvoke_m3028685017
y5g:__Z79RuntimeInvoker_RuntimeObject_Int64_t909078037_Int64_t909078037_Int64_t909078037PFvvEPK10MethodInfoPvPS4_
Mxg:__ZL61IRemotingFormatter_t4112065742_CustomAttributesCacheGeneratorP21CustomAttributesCache
Ped:__ZN15DownloadHandler7OnAbortEv
iVi:_TextGenerator_Invalidate_m1993568841
rrf:_Comparison_1_Invoke_m353639462_gshared
KPa:__Z30GetIntermediateRendererManagerv
lI:__ZN10StateRange8TransferI14SafeBinaryReadEEvRT_
mqa:__Z21SourceMipLevelForBlitiiii
qUa:__ZN31CanvasBatchIntermediateRenderer15AddAsRenderNodeER15RenderNodeQueueRK20DeprecatedSourceData
rJg:__ZL87Component_t3819376471_CustomAttributesCacheGenerator_Component_GetComponent_m1409092944P21CustomAttributesCache
Lfg:_GenericTypeParameterBuilder_GetEvent_m4210567427
Z_d:_Enumerator_get_Key_m2908810861
XI:__ZN15SerializeTraitsIN7mecanim6bitsetILj70EEEE8TransferI14SafeBinaryReadEEvRS2_RT_
Aad:__ZN11UnityEngine7Connect14AppUpdateEventD0Ev
HIi:_GUI_DoSetSkin_m2532620610
psh:__Z35RuntimeInvoker_UIVertex_t1204258818PFvvEPK10MethodInfoPvPS4_
H1:__ZdlPv
tXg:__ZL77StandaloneInputModule_t70867863_CustomAttributesCacheGenerator_m_VerticalAxisP21CustomAttributesCache
Zv:__ZN11UnityEngine9Animation28GenericAnimationBindingCacheD2Ev
Txg:__ZL68RemotingSurrogateSelector_t2821375126_CustomAttributesCacheGeneratorP21CustomAttributesCache
YHh:_EqualityComparer_1__cctor_m968537130_gshared
h$e:_List_1_System_Collections_IList_IndexOf_m39706221_gshared
eCh:_Dictionary_2_Remove_m1849931834_gshared
P1d:_Decimal_op_Implicit_m2971610317
UJi:_GUILayoutGroup_ResetCursor_m3614985691
aEd:_Graphic_UnregisterDirtyVerticesCallback_m1526739224
q1b:__Z18RestoreRenderStateR20CameraRenderOldStateR17ShaderPassContext
HWd:_SynchronizedArrayListWrapper_get_Item_m3309425850
YDb:__Z18Transfer_BlittableI18StreamedBinaryReadILb1EELb1E5RectTIfEEvRK29SerializationCommandArgumentsR31RuntimeSerializationCommandInfo
nmi:_UnityEventBase_RebuildPersistentCallsIfNeeded_m2776978024
jwi:_Rect_set_height_m1455613541_AdjustorThunk
Qzb:__Z18Transfer_BlittableI24GenerateTypeTreeTransferLb0E11ColorRGBA32EvRK29SerializationCommandArgumentsR31RuntimeSerializationCommandInfo
l8:__Z25scripting_class_from_name17ScriptingImagePtrPKcS1_
fkj:__ZN14dense_hash_mapI10KeyWrapperINSt3__24pairIPK12PropertyInfoP11Il2CppClassEEEj17ReflectionMapHashIS8_ENS9_14EqualsComparerINS1_8equal_toIS8_EEEENS1_9allocatorINS2_IKS9_jEEEEE15set_deleted_keyERSH_
aKb:__Z29scripting_class_enum_basetype17ScriptingClassPtr
L7h:__ZN21InterfaceFuncInvoker3IP12Il2CppObjectP8String_tS1_PS3_E6InvokeEjP11Il2CppClassS1_S3_S1_S4_
tHd:_GraphicRaycaster_get_ignoreReversedGraphics_m2757724367
Ugh:__Z111RuntimeInvoker_Void_t1841601450_Vector4_t2243707581_Vector4_t2243707581_Vector4_t2243707581_Vector4_t2243707581PFvvEPK10MethodInfoPvPS4_
ZMa:__ZNK12BaseRenderer18GetRenderNodeCountEv
HIc:__ZN16PhysicsManager2D7RaycastERK3RayfiR12RaycastHit2D
wgg:_GenericTypeParameterBuilder_GetHashCode_m867619899
T4f:_TimeSpan_ToString_m2947282901
uHh:_EqualityComparer_1__cctor_m3397254040_gshared
rrb:__ZNK20LocalFileSystemPosix6ParentERK13FileEntryDataRN4core12basic_stringIcNS3_20StringStorageDefaultIcEEEE
cHa:__ZN15dense_hashtableINSt3__24pairIKN4core12basic_stringIcNS2_20StringStorageDefaultIcEEEEP20ArchiveStorageReaderEES6_20StringHash32FunctionIS6_EN14dense_hash_mapIS6_S9_SC_NS0_8equal_toIS6_EE13stl_allocatorISA_L18MemLabelIdentifier55ELi16EEE9SelectKeyESF_SI_E4swapERSL_
xVe:_MonoType_CheckMethodSecurity_m4116906190
lre:_Array_Sort_TisVector2_t2243707579_m1307634946_gshared
Rna:__ZN7ApiGLES17CopyBufferSubDataEjjlll
J8f:_UInt64_System_IConvertible_ToDecimal_m4205696037
UKg:__ZL80Input_t1785128008_CustomAttributesCacheGenerator_Input_GetKeyDownInt_m1492831765P21CustomAttributesCache
Wuc:__ZN5Unity9rapidjson15GenericDocumentINS0_4UTF8IcEE13JSONAllocatorS4_E11ParseStreamILj1ES3_NS0_25GenericInsituStringStreamIS3_EEEERS5_RT1_
U0i:__ZNSt3__26vectorIPK10Il2CppTypeNS_9allocatorIS3_EEE7reserveEj
pWi:_U3CCreateWhereIteratorU3Ec__Iterator1D_1_Reset_m1773515612_gshared
qVb:__ZN25CameraStackRenderingState20GetOrCreateBuiltinRTE24BuiltinRenderTextureTypeii17DepthBufferFormat19RenderTextureFormatj22RenderTextureReadWrite14VRTextureUsagei
XKd:_InputField_get_caretPosition_m1005871812
LAh:_Dictionary_2__ctor_m3111963761_gshared
JLi:_AesManaged_CreateEncryptor_m1729287824
V6a:__ZNK14Texture2DArray26CanReuploadDataToGfxDeviceEv
LZb:__ZN17PrePassRenderLoop14RenderBasePassEP13RenderTextureRK14LightingLayersR13dynamic_arrayI16RenderObjectDataLj4EERbR10MinMaxAABB
UKa:__ZN17GlobalGameManager23VirtualRedirectTransferER17RemapPPtrTransfer
kXc:_sfnt_stream_close
EGd:_GraphicRegistry_RegisterGraphicForCanvas_m2284226562
MTd:_Char_System_IConvertible_ToInt16_m2741348777_AdjustorThunk
Ksc:__ZN5IMGUI18RepaintModalWindowER8GUIState
vSi:__ZL25UnresolvedVirtualCall_129P12Il2CppObject17Color_t2020392075PK10MethodInfo
$Fd:_FontData_get_verticalOverflow_m83665814
Nkf:_ReadOnlyCollection_1_System_Collections_Generic_IListU3CTU3E_set_Item_m1547026160_gshared
AOa:__ZNK15dense_hashtableINSt3__24pairIKN9ShaderLab7Program23ShaderKeywordSetAndHashEPKNS2_10SubProgramEEES4_NS3_24ShaderKeywordHashFunctorEN14dense_hash_mapIS4_S8_SA_NS0_8equal_toIS4_EE13stl_allocatorIS9_L18MemLabelIdentifier67ELi16EEE9SelectKeyESD_SG_E23find_position_with_hashERS5_j
Tqg:__ZL61MarshalAsAttribute_t2900773360_CustomAttributesCacheGeneratorP21CustomAttributesCache
C5a:__Z23SetSpriteMeshIndexCountP14SharedMeshDataj
hWa:__ZN7Texture13SetFilterModeEi
hJg:__ZL87Camera_t189460977_CustomAttributesCacheGenerator_Camera_get_allCamerasCount_m1873043770P21CustomAttributesCache
skc:__Z46Register_UnityEngine_Application_get_isPlayingv
dzj:__ZN6il2cpp8metadata13GenericMethod9GetMethodEPK19Il2CppGenericMethod
qq:__ZNSt3__26vectorIN4core12basic_stringIcNS1_20StringStorageDefaultIcEEEENS_9allocatorIS5_EEE7reserveEj
h4d:_Convert_ToUInt16_m2130758075
ngj:__ZN15dense_hashtableINSt3__24pairIK10KeyWrapperINS1_IPK11Il2CppImageP11Il2CppClassEEEjEES9_17ReflectionMapHashIS8_EN14dense_hash_mapIS9_jSD_NS9_14EqualsComparerINS0_8equal_toIS8_EEEENS0_9allocatorISB_EEE9SelectKeyESI_SK_E3endEv
WJf:_X509BasicConstraintsExtension_Encode_m3505127076
_ha:__ZN13GfxDeviceGLES11SetViewportERK5RectTIiE
_Id:_Image_get_pixelsPerUnit_m4104195799
YRh:_Toggle_InternalToggle_m2323729210
t8d:_Decimal_System_IConvertible_ToInt64_m2504363272
Zpc:__Z24Time_Get_Custom_PropTimev
UOd:_Array_GetValue_m3182152438
Sd:_emscripten_glDepthRange
lZf:_DESTransform_CipherFunct_m3559419566
Bjd:_Rijndael_Create_m113171669
WWf:_RuntimeFieldHandle_get_Value_m3963757144
z3b:__ZNSt3__26vectorINS_4pairIN4core12basic_stringIcNS2_20StringStorageDefaultIcEEEES6_EE13stl_allocatorIS7_L18MemLabelIdentifier38ELi16EEE12__move_rangeEPS7_SC_SC_
qkb:__Z14resize_trimmedINSt3__26vectorIN9ShaderLab20SerializedSubProgram12UAVParameterENS0_9allocatorIS4_EEEEEvRT_j
ovc:__ZN5Unity9rapidjson13GenericReaderINS0_4UTF8IcEES3_13JSONAllocatorE11ParseObjectILj1ENS0_25GenericInsituStringStreamIS3_EENS0_15GenericDocumentIS3_S4_S4_EEEEvRT0_RT1_
BUf:_SerializationInfo_AddValue_m1781549036
Lph:__Z59RuntimeInvoker_Void_t1841601450_PlayableBinding_t2498078091PFvvEPK10MethodInfoPvPS4_
Xxf:_TlsServerKeyExchange_verifySignature_m3641534563
mhc:__ZN13BuildSettings34ConvertScenePathToDisplayScenePathERKN4core12basic_stringIcNS0_20StringStorageDefaultIcEEEE
Pgf:_Collection_1_Clear_m445145071_gshared
raa:__ZNSt3__218__insertion_sort_3IRNS_6__lessI14ObjectLoadDataS2_EEPS2_EEvT0_S6_T_
jEi:_InvokableCall_1_Find_m2337296995_gshared
kQh:_Slider_FindSelectableOnLeft_m3136767885
Mpa:__ZN4crndL20crnd_default_reallocEPvjPjbS0_
LGd:__ZN21InterfaceFuncInvoker1IP19Material_t193706927S1_E6InvokeEjP11Il2CppClassP12Il2CppObjectS1_
Oie:_Array_BinarySearch_TisInt32_t2071877448_m51233948_gshared
NNj:__ZNSt3__212basic_stringIcNS_11char_traitsIcEENS_9allocatorIcEEEC2ERKS5_
YSf:_ProviderData_CopyFrom_m431414335
kih:__Z74RuntimeInvoker_Boolean_t3825574718_Vector2_t2243707579_Vector2_t2243707579PFvvEPK10MethodInfoPvPS4_
s6a:__ZN18SpriteAtlasManager19AddRequestingSpriteE4PPtrI6SpriteE
Ufc:__ZN16PackedQuatVector9PackQuatsEP11Quaternionfi
Kpc:__Z33Texture_CUSTOM_Internal_GetHeightP12Il2CppObject
pNd:_LayoutGroup_get_preferredHeight_m3901163825
YRg:__ZL106AudioSettings_t3144015719_CustomAttributesCacheGenerator_AudioSettings_GetSpatializerPluginName_m698617843P21CustomAttributesCache
u0b:__ZN23ScriptableRenderContextC2Ev
ku:__ZN7mecanim9animation18ClipMuscleConstant8TransferI24GenerateTypeTreeTransferEEvRT_
_Pa:__ZN4PPtrI13RenderTextureE8TransferI18StreamedBinaryReadILb0EEEEvRT_
s1d:_DateTime_AbsoluteDays_m3061694073
X1c:_UNITY_FT_Stream_GetChar
xEb:__Z18Transfer_BlittableI18StreamedBinaryReadILb1EELb1EdEvRK29SerializationCommandArgumentsR31RuntimeSerializationCommandInfo
gwh:_Enumerator_System_Collections_IEnumerator_get_Current_m229223308_gshared
nIg:__ZL202U3CCreateWhereIteratorU3Ec__Iterator1D_1_t2523986802_CustomAttributesCacheGenerator_U3CCreateWhereIteratorU3Ec__Iterator1D_1_System_Collections_Generic_IEnumerableU3CTSourceU3E_GetEnumerator_m2392330777P21CustomAttributesCache
jKb:__Z26BuildSerializationCacheFor17ScriptingClassPtrRb
Sva:__ZN7ApiGLES15BlitFramebufferEN2gl6HandleILNS0_10ObjectTypeE9EEENS0_15FramebufferReadES3_S3_iiiiiiiiNS0_15FramebufferTypeE
naj:_il2cpp_class_get_name
jpi:_Mesh_CheckCanAccessSubmeshTriangles_m2644388378
Vfh:__Z112RuntimeInvoker_RuntimeObject_RuntimeObject_RuntimeObject_RuntimeObject_RuntimeObject_RuntimeObject_RuntimeObjectPFvvEPK10MethodInfoPvPS4_
hwg:__ZL55GCHandleType_t1970708122_CustomAttributesCacheGeneratorP21CustomAttributesCache
Ncc:__ZN13ProduceHelperI10GUIElementLb1EE7ProduceE18MemLabelIdentifier18ObjectCreationMode
WSi:__ZL25UnresolvedVirtualCall_156P12Il2CppObject18Color32_t874517518PK10MethodInfo
hBi:_UnitySynchronizationContext__ctor_m1804960286
GXi:_WillRenderCanvases_BeginInvoke_m4217413147
qWd:_FixedSizeArrayListWrapper_AddRange_m2071800418
eL:__ZN13ProduceHelperI8AnimatorLb0EE7ProduceE18MemLabelIdentifier18ObjectCreationMode
CLb:__Z9InitInputv
ebh:__Z85RuntimeInvoker_Boolean_t3825574718_Int64_t909078037_Int64_t909078037_SByte_t454417549PFvvEPK10MethodInfoPvPS4_
Lej:__ZN15dense_hashtableINSt3__24pairIK10KeyWrapperINS1_IPK9FieldInfoP11Il2CppClassEEEjEES9_17ReflectionMapHashIS8_EN14dense_hash_mapIS9_jSD_NS9_14EqualsComparerINS0_8equal_toIS8_EEEENS0_9allocatorISB_EEE9SelectKeyESI_SK_ED2Ev
WZe:_Enumerator_VerifyState_m2358705882_AdjustorThunk
OAb:__Z29Transfer_Blittable_ArrayFieldI24GenerateTypeTreeTransfer11ColorRGBA32EvRT_R9ArrayInfoRK23StaticTransferFieldInfo
zMg:__ZL87Time_t31991979_CustomAttributesCacheGenerator_Time_get_realtimeSinceStartup_m3888815444P21CustomAttributesCache
wsb:__ZN16MemoryFileSystem6DeleteER13FileEntryDatab
Eqa:__ZL21BlitScaleStbImageImplRK14ImageReferenceRS_NS_10ColorSpaceE
xxi:_RectTransform_INTERNAL_set_pivot_m4248720081
CEf:_TlsStream_set_Position_m378064217
rmb:__ZN18StreamedBinaryReadILb0EE21TransferSTLStyleArrayI13dynamic_arrayIjLj4EEEEvRT_17TransferMetaFlags
zLc:__ZNSt3__26__sortIR31RayHitsByInverseDepthComparitorP12RaycastHit2DEEvT0_S5_T_
Ivb:__Z29Transfer_Blittable_ArrayFieldI14SafeBinaryReadyEvRT_R9ArrayInfoRK23StaticTransferFieldInfo
jT:__ZN20SoundChannelInstance15setChannelGroupEPN4FMOD12ChannelGroupE
Zej:__ZNK15dense_hashtableINSt3__24pairIK10KeyWrapperINS1_IPK9FieldInfoP11Il2CppClassEEEjEES9_17ReflectionMapHashIS8_EN14dense_hash_mapIS9_jSD_NS9_14EqualsComparerINS0_8equal_toIS8_EEEENS0_9allocatorISB_EEE9SelectKeyESI_SK_E12test_deletedERK24dense_hashtable_iteratorISB_S9_SD_SM_SI_SK_E
Hod:_Evidence_Equals_m2325859915
rui:_PlayableHandle_INTERNAL_CALL_GetPlayableTypeOf_m1683061051
Hbg:_Default__ctor_m172834064
pc:invoke_vifffii
iHb:__Z35Transfer_Blittable_FixedBufferFieldI18StreamedBinaryReadILb0EEaEvRK29SerializationCommandArgumentsR31RuntimeSerializationCommandInfo
Koj:__ZN6il2cpp2vm9Exception27RaiseNullReferenceExceptionEv
Ndi:_Regex_IsMatch_m2159202025
IIa:__ZNK25MultiBlocksMemoryFileData5CloneEv
HEj:_GC_add_ext_descriptor
JFj:__ZN6il2cpp2os14WindowsRuntime22GetRestrictedErrorInfoEv
qJd:_Image_CalculateLayoutInputHorizontal_m3275149860
hQf:_RemotingServices_GetMethodBaseFromName_m3271095947
MHa:__ZN17ArchiveFileSystem11CreateAsDirER13FileEntryData
PPj:dynCall_iiiiiiiiiiii
Jtd:_ASCIIEncoding_GetBytes_m3617160053
r0h:_InternalEnumerator_1_MoveNext_m2289229080_AdjustorThunk
$wf:_CipherSuiteCollection_System_Collections_IList_RemoveAt_m143866082
UBa:__ZN22VertexDeclarationCacheD0Ev
_ob:__ZL26KeywordSetToStringDontSortRKNSt3__26vectorIN4core12basic_stringIcNS1_20StringStorageDefaultIcEEEENS_9allocatorIS5_EEEERS5_
wsa:__ZN6prcoreL17RemapGenericFloatI16TexFormatRGFloat17TexFormatRGBAHalfEEvPKNS_9InnerInfoE
GN:__ZN12AudioManager22CreateFMODSoundFromWWWEP10IWWWStream15FMOD_SOUND_TYPE17FMOD_SOUND_FORMATjjbbP10SampleClip
Ibc:__ZNK32RendererMaterialAnimationBinding15GenerateBindingERKN4core12basic_stringIcNS0_20StringStorageDefaultIcEEEEbRN11UnityEngine9Animation14GenericBindingE
Ngj:__ZN24dense_hashtable_iteratorINSt3__24pairIK10KeyWrapperINS1_IPK11Il2CppImageP11Il2CppClassEEEjEES9_17ReflectionMapHashIS8_EN14dense_hash_mapIS9_jSD_NS9_14EqualsComparerINS0_8equal_toIS8_EEEENS0_9allocatorISB_EEE9SelectKeyESI_SK_E30advance_past_empty_and_deletedEv
Gfh:__Z40RuntimeInvoker_HandshakeType_t2540099417PFvvEPK10MethodInfoPvPS4_
A7:__ZN8Remapper23GetOrGenerateInstanceIDERK26SerializedObjectIdentifier
Bt:__ZN17AnimationCurveTplI8Vector3fEC2ERKS1_
iSe:_StreamWriter_Flush_m3426120024
THa:__ZN17FileSystemHandler10AtomicMoveER13FileEntryDataS1_
_a:invoke_iiiiiifffiiifii
OPe:_MemoryStream__ctor_m1489366847
$od:_SecurityElement_IsValidTag_m64902195
BSg:__ZL77AudioSourceExtension_t1813599864_CustomAttributesCacheGenerator_m_audioSourceP21CustomAttributesCache
Mmg:_PropertyInfo_SetValue_m2961483868
R3e:_List_1_System_Collections_IList_Contains_m4193366963_gshared
E7i:__ZNSt3__214__split_bufferI6pollfdRNS_9allocatorIS1_EEED2Ev
aRf:_DictionaryEnumerator_get_Value_m1915638953
dcg:_ConstructorInfo_Invoke_m2144827141
P5a:__ZN6Sprite8TransferI24GenerateTypeTreeTransferEEvRT_
Sqc:__Z48Register_UnityEngine_Transform_SetAsFirstSiblingv
S5a:__ZN7SubMesh8TransferI24GenerateTypeTreeTransferEEvRT_
Qlg:_MonoProperty_get_CanWrite_m2124922514
i8i:__ZN6il2cpp6icalls8mscorlib6SystemL16CheckMemberMatchI9FieldInfoNS_5utils10functional6FilterINSt3__212basic_stringIcNS8_11char_traitsIcEENS8_9allocatorIcEEEENS5_13VmStringUtils23CaseInsensitiveComparerEEEEEbPKT_PK11Il2CppClassSN_iRKT0_
fwf:_CipherSuite_get_HashAlgorithmType_m3902365773
wVg:__ZL96RemoteSettings_t392466225_CustomAttributesCacheGenerator_RemoteSettings_CallOnUpdate_m1092852243P21CustomAttributesCache
OMj:_poll
APe:_Stream_BeginRead_m1985960185
B9b:__ZN13ProduceHelperI14Texture2DArrayLb0EE7ProduceE18MemLabelIdentifier18ObjectCreationMode
Yu:__ZN7mecanim5human9HumanGoal8TransferI18StreamedBinaryReadILb0EEEEvRT_
nFi:_UnityAction_1_EndInvoke_m350315359_gshared
puf:_MD4Managed_GG_m1462438360
toc:__Z53PlayableHandle_CUSTOM_INTERNAL_CALL_GetPlayableTypeOfR9HPlayable
LPc:__Z55Register_UnityEngine_Rigidbody2D_INTERNAL_CALL_AddForcev
dic:__ZN9Transform23SetSiblingIndexInternalEib
tOh:_ScrollRect_get_minWidth_m3151814267
MFd:_FontData_set_fontStyle_m130790064
nia:__ZN13GfxDeviceGLES17DestroySubProgramEPN9ShaderLab10SubProgramE
Xx:__ZN7mecanim5human12HumanPoseSubERNS0_9HumanPoseERKS1_S4_
dCi:_Vector3_Max_m2076081170
buf:_MD4_Create_m2582504069
nOi:_HashSet_1_System_Collections_IEnumerable_GetEnumerator_m2498631708_gshared
ftj:__ZN6il2cpp8metadata15GenericMetadata15GetGenericClassEiPK17Il2CppGenericInst
xRd:_Boolean_System_IConvertible_ToInt16_m977801621
hub:__Z18Transfer_BlittableI14SafeBinaryReadLb0E10Matrix4x4fEvRK29SerializationCommandArgumentsR31RuntimeSerializationCommandInfo
BJb:__Z24GetFixedBehaviourManagerv
rnh:__Z69RuntimeInvoker_Void_t1841601450_Int32_t2071877448_Vector4_t2243707581PFvvEPK10MethodInfoPvPS4_
DSb:__ZN12FlareManager9UpdateJobEP25FlareManagerUpdateJobData
N7i:__ZN6il2cpp2vm10ThreadPool4WaitEP17Il2CppAsyncResultPPv
zqi:_Plane__ctor_m730644932_AdjustorThunk
oNc:__ZN11Rigidbody2D8TransferI14SafeBinaryReadEEvRT_
ZKj:_vfprintf
htc:__ZN10GUIManager12AddGUIScriptER8ListNodeI13MonoBehaviourE
wUf:_SerializationException__ctor_m1019897788
JTa:__ZN19ShaderPropertySheet20ReservePropertyCountEj
lTb:__ZN20DynamicPropertySheetD0Ev
E3b:__ZN14SafeBinaryRead17RegisterConverterEPKcS1_PFbPvRS_E
g3:__ZN35RegisterRuntimeInitializeAndCleanup8RegisterEPFvPvES2_iS0_
R5g:__Z92RuntimeInvoker_RuntimeObject_Int32_t2071877448_Int32_t2071877448_RuntimeObject_RuntimeObjectPFvvEPK10MethodInfoPvPS4_
Llj:__ZNSt3__26vectorIN6il2cpp8metadata18GenericArrayMethodENS_9allocatorIS3_EEE7reserveEj
ss:__ZN7mecanim6memory16ChainedAllocator7ReserveEj
oQd:_AsyncCallback__ctor_m3071689932
Spf:_ReadOnlyCollection_1_System_Collections_IList_Clear_m2600246370_gshared
VHc:__ZN4PPtrI17PhysicsMaterial2DE8TransferI18StreamedBinaryReadILb0EEEEvRT_
gGi:_UnityEvent_1_GetDelegate_m915269642_gshared
Roh:__Z62RuntimeInvoker_Int32_t2071877448_ParameterModifier_t1820634920PFvvEPK10MethodInfoPvPS4_
Mze:_DSAManaged_NormalizeArray_m2287089393
Wqc:__Z21Object_CUSTOM_DestroyP12Il2CppObjectf
u1h:_InternalEnumerator_1_System_Collections_IEnumerator_get_Current_m2389982234_AdjustorThunk
Eob:__ZN8Material26ResetAllCachedMaterialDataEP6Shader
ROh:_Selectable_get_interactable_m1725029500
Rpg:__ZL66RuntimeArray_CustomAttributesCacheGenerator_Array_Sort_m3002148658P21CustomAttributesCache
f2c:_UNITY_TT_Get_MM_Var
ZYi:__ZN6il2cpp6icalls8mscorlib6System7Decimal13decimal2Int64EP19il2cpp_decimal_reprPx
ba:invoke_diddi
exd:_ExecuteEvents__cctor_m288775360
p4c:__ZNK2UI6Canvas13GetRenderModeEv
D2d:_Double_TryParseStringConstant_m2585405703
GI:__Z32TransferEnumWithNameForceIntSizeI14SafeBinaryRead28TransitionInterruptionSourceEvRT_RT0_PKc17TransferMetaFlags
ttb:__Z18Transfer_BlittableI14SafeBinaryReadLb0EiEvRK29SerializationCommandArgumentsR31RuntimeSerializationCommandInfo
z6i:__ZN6il2cpp2vm13MetadataCache30GetPropertyDefinitionFromIndexEi
Mjd:_RijndaelTransform_Clear_m1652144089
eOe:_MonoIO_GetException_m2577367044
Wcd:__ZN22BaseUnityConnectClient17InitializeSessionERKN4core12basic_stringIcNS0_20StringStorageDefaultIcEEEES6_N19CloudServiceHandler13InitModeFlagsE
Kyh:_Enumerator_MoveNext_m1404007384_gshared
RWe:_NumberFormatter_get_IsZero_m1325357749
rJ:__ZN15SerializeTraitsI9OffsetPtrIN7mecanim9animation23BlendDirectDataConstantEEE8TransferI24GenerateTypeTreeTransferEEvRS4_RT_
gpi:_Mesh_PrintErrorCantAccessIndices_m2990602703
PVj:_emscripten_glDeleteBuffers__wrapper
Bjh:__Z121RuntimeInvoker_Void_t1841601450_Single_t2076509932_Single_t2076509932_Single_t2076509932_Single_t2076509932_RuntimeObjectPFvvEPK10MethodInfoPvPS4_
Tbe:_Enum_ToObject_m322320225
Duh:_Enumerator_get_Current_m2754383612_gshared
Qjc:__ZN13MonoBehaviour34StopCoroutineFromEnumeratorManagedE18ScriptingObjectPtr
nnd:_X509Certificate__ctor_m3860837120
OVc:_gray_raster_reset
Zlh:__Z109RuntimeInvoker_RuntimeObject_Ray_t2469606224_Single_t2076509932_Int32_t2071877448_RuntimeObject_RuntimeObjectPFvvEPK10MethodInfoPvPS4_
Npf:_ReadOnlyCollection_1_System_Collections_Generic_IListU3CTU3E_set_Item_m3663361643_gshared
rL:__ZN7mecanim9animation14AvatarConstant15InitializeClassEv
nwd:_EventTrigger_OnScroll_m626934407
Ofb:__ZN30RuntimeInitializeOnLoadManager8TransferI18StreamedBinaryReadILb0EEEEvRT_
UDh:_Dictionary_2__ctor_m1206668798_gshared
Geg:_TypeBuilder_not_supported_m3178173643
xWc:_UNITY_tt_face_load_pclt
hjc:__ZL34GetComponentsImplementationRecurseILb1ELi0ELi2EEbR10GameObjectbRK17CompareParametersRK39GetComponentsImplementation_ReturnValue
FGc:__ZN10ClipperLib7Clipper24InsertLocalMinimaIntoAELEx
kHj:__ZN6il2cpp6icalls8mscorlib6System9Threading5Mutex20CreateMutex_internalEbP12Il2CppStringPb
ZVd:_ArrayListWrapper_Remove_m1105489978
HSb:__ZNK6Camera18WorldToScreenPointERK8Vector3fPb
kKi:_GUISkin__ctor_m2824039590
yxf:_TlsClientSettings_set_TargetHost_m3421266913
QWg:__ZL109PointerEventData_t1599784723_CustomAttributesCacheGenerator_PointerEventData_get_eligibleForClick_m2497780621P21CustomAttributesCache
PZd:_HashKeys_CopyTo_m3566668422
mva:__Z18IsCompressedFormat14GraphicsFormat
vYh:_InternalEnumerator_1_Dispose_m549215360_AdjustorThunk
z1h:_InternalEnumerator_1__ctor_m1815261138_gshared
UTd:_Convert_ToSByte_m2665932200
M6:__ZNSt3__227__insertion_sort_incompleteIRPFbRKN18AwakeFromLoadQueue4ItemES4_EPS2_EEbT0_S9_T_
Bdg:_ILGenerator_label_fixup_m1325994348
qAh:_ValueCollection_System_Collections_ICollection_get_IsSynchronized_m45572582_gshared
uie:_Array_InternalArray__IEnumerable_GetEnumerator_TisContactPoint2D_t3659330976_m478005999_gshared
D4i:__ZN14dense_hash_mapI10KeyWrapperIN6il2cpp5utils13dynamic_arrayIPK10Il2CppTypeLj4EEEEPFvvENS1_8metadata19Il2CppSignatureHashENS8_14EqualsComparerINSB_22Il2CppSignatureCompareEEENSt3__29allocatorINSG_4pairIKS8_SA_EEEEE15set_deleted_keyERSJ_
wKh:_Navigation_Equals_m4214630671_AdjustorThunk
Zmf:_ReadOnlyCollection_1_System_Collections_Generic_IListU3CTU3E_set_Item_m257196015_gshared
kjg:_FieldInfo_GetPseudoCustomAttributes_m2500972355
V1a:__ZN26EnlightenSystemInformation8TransferI14SafeBinaryReadEEvRT_
pte:_Array_InternalArray__get_Item_TisLink_t2723257478_m2281261655_gshared
led:__ZN11UnityEngine15PlatformWrapper20SetPlayerPrefsUInt64ERKN4core12basic_stringIcNS1_20StringStorageDefaultIcEEEEy
M9a:__ZN12MeshRendererD0Ev
EW:__ZN12AudioManager35GetCurrentSpatializerDefinitionNameEv
lfi:_ExpressionAssertion_IsComplex_m783019628
RYd:_Hashtable__ctor_m2702360557
Bh:_utime
D6d:_DateTimeFormatInfo_get_RawAbbreviatedDayNames_m3998113647
CCi:_Vector4_get_sqrMagnitude_m641641704_AdjustorThunk
xF:__Z28SetExposedSkeletonTransformsRKN7mecanim9animation14AvatarConstantERKN11UnityEngine9Animation30AnimatorGenericBindingConstantERKNS_8skeleton13SkeletonPoseTIN4math4trsXEEERKNSA_INSB_7affineXEEERNS5_21AvatarBindingConstantEy
rGh:_DefaultComparer_GetHashCode_m2596628120_gshared
uBg:__ZL94UTF32Encoding_t549530865_CustomAttributesCacheGenerator_UTF32Encoding_GetByteCount_m3183615393P21CustomAttributesCache
dhe:_PlayableHandle_IsPlayableOfType_TisAnimationLayerMixerPlayable_t3057952312_m2522157783_AdjustorThunk
Psf:_PrimalityTest_Invoke_m4058801829
tn:FUNCTION_TABLE_viiiiif
GTf:_RemotingConfiguration_SetCustomErrorsMode_m1844153208
yn:FUNCTION_TABLE_viiiiii
mee:_CultureInfo_GetFormat_m3560116485
WG:__ZN7mecanim9animation22DestroyAvatarWorkspaceEPNS0_15AvatarWorkspaceERNS_6memory9AllocatorE
zHd:__ZN21InterfaceFuncInvoker0IiE6InvokeEjP11Il2CppClassP12Il2CppObject
nei:_AnchorInfo_get_IsPosition_m3791659233
RZb:__ZN15LightmapSTCacheC2ER13BatchRendererR15RenderLoopStats
Fsc:__ZNSt3__210__list_impIN10GUIManager12SortedScriptE11memory_poolIS2_EE5clearEv
vDg:__ZL76Convert_t2607082565_CustomAttributesCacheGenerator_Convert_ToInt64_m44696721P21CustomAttributesCache
B_a:__ZN14PlayableOutput17SetSourcePlayableEP8Playable
Gfb:__ZNSt3__26vectorIN4core12basic_stringIcNS1_20StringStorageDefaultIcEEEE13stl_allocatorIS5_L18MemLabelIdentifier13ELi16EEE8__appendEj
XTf:_TrackingServices__cctor_m3639412334
mG:__ZN7mecanim9animation29MotionOutputGetDeltaTransformEPKNS0_12MotionOutputE
y7b:__Z13RegisterClassI16GraphicsSettingsEvv
CAh:_ValueCollection_System_Collections_IEnumerable_GetEnumerator_m1773104428_gshared
vKc:__ZN24b2ChainAndCapsuleContact8EvaluateEP10b2ManifoldRK11b2TransformS4_
OL:__ZN8Animator14OnAddComponentEPN5Unity9ComponentE
W9e:_List_1_CheckMatch_m1184924052_gshared
oqc:__Z43Transform_CUSTOM_INTERNAL_get_localRotationP12Il2CppObjectP11Quaternionf
XTj:_glGetShaderInfoLog__wrapper
ei:_emscripten_glGetTexParameteriv
D3e:_List_1_ToArray_m3752387798_gshared
cNh:_ScrollRect_get_elasticity_m3987376518
jJj:__ZN6il2cpp8metadata21Il2CppGenericInstHash4HashEPK17Il2CppGenericInst
kvf:_RSAManaged_ImportParameters_m3060955884
ADe:_DeriveBytes__ctor_m3089550878
A7h:_ChannelData_CopyFrom_m4049054607
F7b:__Z13RegisterClassI4MeshEvv
jWg:__ZL94AxisEventData_t1524870173_CustomAttributesCacheGenerator_AxisEventData_get_moveDir_m3968662359P21CustomAttributesCache
_Za:__ZN8PlayableD0Ev
hP:__ZN12AudioManager8TransferI19StreamedBinaryWriteILb0EEEEvRT_
fQe:_WriteDelegate_Invoke_m2103848735
C4e:_List_1_get_Capacity_m4262042666_gshared
ENi:_GenericEqualityComparer_1_GetHashCode_m1950634276_gshared
sUg:__ZL51TileBase_t4130003429_CustomAttributesCacheGeneratorP21CustomAttributesCache
YKi:_Locale_GetText_m512920887
Hbc:__ZNK32RendererMaterialAnimationBinding12GetPPtrValueERKN11UnityEngine9Animation10BoundCurveE
tGb:__Z18Transfer_BlittableI18StreamedBinaryReadILb0EELb0E8Vector2fEvRK29SerializationCommandArgumentsR31RuntimeSerializationCommandInfo
oTf:_RemotingConfiguration_get_ProcessId_m3870172209
k7c:__ZN2UI11CanvasGroup12CleanupClassEv
dHe:_SortKey_ToString_m2406913228
$qb:__ZN22LocalFileSystemHandler9MakeLocalER13FileEntryDatab
MAj:__ZN6il2cpp2vm8Profiler10AllocationEP12Il2CppObjectP11Il2CppClass
K1d:_Convert_ToDateTime_m1020507389
dMg:__ZL78Sprite_t309593783_CustomAttributesCacheGenerator_Sprite_get_packed_m2366369914P21CustomAttributesCache
Hda:__ZNK9HPlayable7IsValidEv
JTc:__ZNSt3__23mapIN20TextRenderingPrivate7FontRefENS1_6OSFontENS_4lessIS2_EENS_9allocatorINS_4pairIKS2_S3_EEEEEixERS8_
ioi:_Material_SetInt_m2847439171
_fa:__Z13FormatOrderedPKcz
mcj:_RaycastHit_get_distance_m758224512
cOe:_Path_IsPathRooted_m1347207448
jVf:_ObjectManager_RegisterObjectInternal_m879109503
Jee:_Array_get_swapper_TisVector4_t2243707581_m97441823_gshared
YQc:__ZN14SafeBinaryRead21TransferSTLStyleArrayI10vector_mapINSt3__24pairIttEEfN20TextRenderingPrivate8FontImpl14KerningCompareENS2_9allocatorINS3_IS4_fEEEEEEEvRT_17TransferMetaFlags
a8b:__Z13RegisterClassI15QualitySettingsEvv
uzj:__ZN6il2cpp2vm6String21InitializeEmptyStringEP11Il2CppClass
AZb:__ZN25DeferredRenderLoopScratchD0Ev
sA:__ZN27AnimationLayerMixerPlayable14SetInputWeightEif
Tx:__ZN7mecanim9animation17EvaluateHumanPoseERKNS0_18ClipMuscleConstantERKNS0_15ClipMuscleInputEPKfRKNS0_12MotionOutputERNS_5human9HumanPoseE
zBg:__ZL90UTF7Encoding_t741406939_CustomAttributesCacheGenerator_UTF7Encoding_GetHashCode_m359766848P21CustomAttributesCache
Jmi:_GameObject_AddComponent_m540062519
Zjb:__ZN15dense_hashtableINSt3__24pairIKiN4core17string_with_labelILi1EEEEEi18SInt32HashFunctionN14dense_hash_mapIiS5_S7_NS0_8equal_toIiEE13stl_allocatorIS6_L18MemLabelIdentifier1ELi16EEE9SelectKeyESA_SD_E9copy_fromERKSG_j
PPa:__ZN6Camera11ResetAspectEv
u6f:_Type_get_IsGenericType_m3396841573
oeb:__ZN15ResourceManagerD0Ev
YJf:_X509BasicConstraintsExtension_get_HasPathLengthConstraint_m3788532759
ITa:__ZNK17InstancedPropInfo22FillInstancePropertiesER19ShaderPropertySheetjPK17BatchInstanceDatajRK15RenderNodeQueue
MOa:__ZN22CreateGpuProgramOutputD2Ev
LBb:__Z18Transfer_BlittableI19StreamedBinaryWriteILb0EELb1EsEvRK29SerializationCommandArgumentsR31RuntimeSerializationCommandInfo
Vkd:_RSACryptoServiceProvider_EncryptValue_m802714447
UCg:__ZL76Convert_t2607082565_CustomAttributesCacheGenerator_Convert_ToByte_m932798552P21CustomAttributesCache
lW:__ZN13ProduceHelperI13AudioListenerLb0EE7ProduceE18MemLabelIdentifier18ObjectCreationMode
RI:__ZN7mecanim9animation23BlendDirectDataConstant8TransferI14SafeBinaryReadEEvRT_
zEi:_InvokableCall_1__ctor_m2021220028_gshared
CXi:_WillRenderCanvases_Invoke_m4267547094
i0e:_List_1_System_Collections_ICollection_get_SyncRoot_m1594235606_gshared
J0d:_DateTimeFormatInfo_GetInstance_m3133223810
hsf:_ModulusRing_BarrettReduction_m2802101099
kqb:__ZN12HandlerChain4OpenER13FileEntryData14FilePermission16FileAutoBehavior
NIh:_EqualityComparer_1_get_Default_m2134906921_gshared
$jg:_MonoMethodInfo_GetParametersInfo_m3456861922
Kfj:__ZN15dense_hashtableINSt3__24pairIK10KeyWrapperINS1_IPK10MethodInfoP11Il2CppClassEEEjEES9_17ReflectionMapHashIS8_EN14dense_hash_mapIS9_jSD_NS9_14EqualsComparerINS0_8equal_toIS8_EEEENS0_9allocatorISB_EEE9SelectKeyESI_SK_E6insertERKSB_
Lzh:_ValueCollection_System_Collections_Generic_ICollectionU3CTValueU3E_Remove_m4188992987_gshared
M9:__ZN14FileCacherReadD2Ev
yhb:__ZN13RendererScene23UpdatePreviousFrameDataEii
ild:_RSAPKCS1SignatureDeformatter_VerifySignature_m1825067195
zxi:_RectTransform_remove_reapplyDrivenProperties_m52143263
pSi:__ZL25UnresolvedVirtualCall_123P12Il2CppObjectffPK10MethodInfo
Flc:__Z50Register_UnityEngine_CullingGroup_FinalizerFailurev
yYe:_KeyValuePair_2_ToString_m2613351884_gshared
gib:__ZN27UnloadUnusedAssetsOperationD0Ev
kB:__ZN26AnimatorControllerPlayable6MemoryD2Ev
jYg:__ZL69ColorBlock_t2652774230_CustomAttributesCacheGenerator_m_DisabledColorP21CustomAttributesCache
iwf:_CipherSuite_get_Code_m3902213587
GLh:_Scrollbar__ctor_m2244981801
mWf:_ObjectRecord_get_HasPendingFixups_m670959802
kZi:_AnimationLayerMixerPlayable__ctor_m678972180
Mld:_SHA256Managed_HashCore_m4111458495
bee:_CultureInfo_get_CompareInfo_m3085280862
xIg:__ZL89Application_t354826772_CustomAttributesCacheGenerator_Application_get_isEditor_m506138946P21CustomAttributesCache
kWf:_ObjectManager_RecordDelayedFixup_m1895730844
drj:__ZNK15dense_hashtableINSt3__24pairIK10KeyWrapperIP14Il2CppIUnknownEjEES5_N6il2cpp5utils11PointerHashIS3_EEN14dense_hash_mapIS5_jSB_NS5_14EqualsComparerINS0_8equal_toIS4_EEEENS0_9allocatorIS7_EEE9SelectKeyESG_SI_E12test_deletedERK24dense_hashtable_iteratorIS7_S5_SB_SK_SG_SI_E
S5e:_List_1_System_Collections_IList_get_IsFixedSize_m3522184224_gshared
YM:__ZN9AudioClip23VirtualRedirectTransferER18StreamedBinaryReadILb0EE
Byf:_ClientSessionInfo_CheckDisposed_m1394638186
aYf:_SByte_Parse_m2544167007
Pqd:_Single_CompareTo_m2081476257
V9d:_StackFrame_GetILOffset_m115192054
pXf:_RuntimeTypeHandle_GetHashCode_m3697629454_AdjustorThunk
$we:_BigInteger__ctor_m2945783161
lAf:_TlsClientHello_Update_m1723542631
Xwi:_RectOffset_set_top_m1587840032
ayg:__ZL96ProxyAttribute_t4031752430_CustomAttributesCacheGenerator_ProxyAttribute_IsContextOK_m2391079277P21CustomAttributesCache
iIe:_IndexOutOfRangeException__ctor_m3497760912
vof:_ReadOnlyCollection_1_CopyTo_m1652036789_gshared
Ej:_glCopyTexSubImage2D
gTf:_RealProxy_InternalGetTransparentProxy_m3415358600
Qbc:__ZNK24RendererAnimationBinding13GetFloatValueERKN11UnityEngine9Animation10BoundCurveE
B_:__ZNK15DownloadHandler14HasPendingDataEv
qdf:_Collection_1_Insert_m3594407958_gshared
QZe:_Enumerator_System_Collections_IEnumerator_Reset_m2200349770_gshared
KAj:__ZN6il2cpp6icalls8mscorlib6System7Convert24InternalFromBase64StringEP12Il2CppStringb
Pmd:_SymmetricAlgorithm_CreateDecryptor_m4240570785
uRh:_Text_get_preferredWidth_m3352156860
EYg:__ZL87U3CDelayedDestroyDropdownListU3Ec__Iterator0_t3461999471_CustomAttributesCacheGeneratorP21CustomAttributesCache
fbg:_AssemblyCompanyAttribute__ctor_m1217508649
n7c:__ZN2UI13CanvasManager14GetRenderOrderEPKNS_6CanvasE
dub:__Z18Transfer_BlittableI14SafeBinaryReadLb0E5RectTIfEEvRK29SerializationCommandArgumentsR31RuntimeSerializationCommandInfo
Ifd:__ZNK20UnityWebRequestProtoI24UnityWebRequestTransport16AtomicRefCounter14RedirectHelper14ResponseHelper15DownloadHandler13UploadHandler12HeaderHelper14AsyncOperationE14GetUploadBytesEv
bof:_ReadOnlyCollection_1_System_Collections_Generic_IListU3CTU3E_RemoveAt_m878653284_gshared
xee:_DateTimeFormatInfo_GetFormat_m3676195179
uoa:__ZN14GfxContextGLES14GetFramebufferEv
eWj:_emscripten_glGenVertexArrays__wrapper
hra:__ZN6prcoreL21CreateRemapAnyBlitterE13TextureFormatS0_
YIj:__ZN6il2cpp2os5Event4WaitEjb
ahc:__ZN17AnimationCurveTplIfE16StripInvalidKeysEv
tle:_Array_InternalArray__ICollection_Add_TisKeyValuePair_2_t3716250094_m2381539361_gshared
Dli:_InvokableCall_add_Delegate_m1994890856
jEe:_X509Extension_WriteLine_m2850991173
d6c:__ZNK2UI6Canvas17GetSortingLayerIDEv
Log:__ZL40UIntPtr_t_CustomAttributesCacheGeneratorP21CustomAttributesCache
MLc:__ZN14Raycast2DQuery8RunQueryEb
x7b:__Z13RegisterClassI17GlobalGameManagerEvv
C3a:__ZN8Renderer24SetupNewRendererForSceneEv
j0g:__ZL70GridLayoutGroup_t1515633077_CustomAttributesCacheGenerator_m_StartAxisP21CustomAttributesCache
jge:_Array_InternalArray__ICollection_Remove_TisInt64_t909078037_m2653583130_gshared
WUi:_TextGenerator_Populate_Internal_m65392018
R1f:_Thread_get_ExecutionContext_m922067206
Bse:_BaseInvokableCall_ThrowOnInvalidArg_TisInt32_t2071877448_m2823200566_gshared
Mzc:__Z35Transfer_Blittable_FixedBufferFieldI8JSONReadtEvRK29SerializationCommandArgumentsR31RuntimeSerializationCommandInfo
lyf:_RecordProtocol_get_Context_m2688493529
lRa:__ZN4PPtrI7TextureE8TransferI14SafeBinaryReadEEvRT_
pec:__ZN14PlayableOutput6HandleEv
k5a:__ZNK6Sprite22GetTypeVirtualInternalEv
kNh:_ScrollRect_get_viewport_m3177057249
sn:FUNCTION_TABLE_iiiiiiiiiiiiii
_dh:__Z100RuntimeInvoker_Void_t1841601450_SByte_t454417549_SByte_t454417549_Int32_t2071877448_SByte_t454417549PFvvEPK10MethodInfoPvPS4_
Ied:__ZN19UnityConnectService18OnPlayerQuitStaticEPS_
oXc:_UNITY_tt_get_cmap_info
bud:_DecoderExceptionFallback_GetHashCode_m2972426052
QAb:__Z29Transfer_Blittable_ArrayFieldI24GenerateTypeTreeTransfer5RectTIiEEvRT_R9ArrayInfoRK23StaticTransferFieldInfo
YUa:__ZN16ReflectionProbes8ScheduleEN18ReflectionProbeJob7JobTypeEP15ReflectionProbei
Uhf:_Collection_1_IsFixedSize_m3675221982_gshared
EDg:__ZL77Convert_t2607082565_CustomAttributesCacheGenerator_Convert_ToSByte_m883113940P21CustomAttributesCache
Z_e:_Enumerator_MoveNext_m3293920409_AdjustorThunk
rGa:__Z18IsDirectoryCreatedRKN4core12basic_stringIcNS_20StringStorageDefaultIcEEEE
kgg:_GenericTypeParameterBuilder_get_DeclaringType_m1652924692
_4c:__ZN2UI13CanvasManagerD2Ev
S3h:_Comparer_1__cctor_m3112251759_gshared
X_g:__ZL73ScrollRect_t1199013257_CustomAttributesCacheGenerator_m_VerticalScrollbarP21CustomAttributesCache
gJf:_X509KeyUsageExtension_ToString_m1992050580
oTc:_UNITY_FT_GlyphLoader_Done
R9f:_ValueType_DefaultEquals_m2245650968
Aei:_BalancingGroup__ctor_m2474435406
Uoh:__Z49RuntimeInvoker_Int32_t2071877448_Byte_t3683104436PFvvEPK10MethodInfoPvPS4_
j7h:_ConstructionCall__ctor_m1143766850
ZNg:__ZL108DefaultExecutionOrder_t2717914595_CustomAttributesCacheGenerator_DefaultExecutionOrder_get_order_m3383619944P21CustomAttributesCache
T3h:_Comparer_1_System_Collections_IComparer_Compare_m3203078743_gshared
rzf:_Context_get_RandomSC_m1687420621
eMc:__ZN19OverlapPointQuery2D14InitializeAABBER6b2AABB
STg:__ZL67GUISkin_t1436893342_CustomAttributesCacheGenerator_m_verticalSliderP21CustomAttributesCache
m$b:__ZNK21IntermediateRenderers16GetBoundingBoxesEv
cYc:_tt_cmap14_char_var_index
rHb:__Z35Transfer_Blittable_FixedBufferFieldI18StreamedBinaryReadILb0EEdEvRK29SerializationCommandArgumentsR31RuntimeSerializationCommandInfo
xZc:_psh_globals_new
VPe:_FileStream_Seek_m950719389
$yd:_StandaloneInputModule_set_allowActivationOnMobileDevice_m2631121618
V1d:_Decimal_stripStyles_m294582157
kha:__ZN9GfxDevice20SetMaxBufferedFramesEi
fUc:__ZNK20TextRenderingPrivate8TextMesh22GetTypeVirtualInternalEv
Wmh:__Z72RuntimeInvoker_Boolean_t3825574718_TypeU26_t1535498077_Int32_t2071877448PFvvEPK10MethodInfoPvPS4_
S6g:__Z98RuntimeInvoker_Void_t1841601450_Int32_t2071877448_Int32_t2071877448_RuntimeObject_SByte_t454417549PFvvEPK10MethodInfoPvPS4_
qDc:__ZN10Collider2D19WakeAllBodyContactsEv
SR:__ZN24AudioScriptBufferManagerD2Ev
dQj:dynCall_vdd
O6c:__ZN2UIL17UnloadAllCanvasesEv
Z4b:__Z23ConvertIntegerToTypePtrIsEbPvR14SafeBinaryRead
Nwg:__ZL54_MethodBase_t1935530873_CustomAttributesCacheGeneratorP21CustomAttributesCache
PFc:__ZN12b2MouseJoint11ShiftOriginERK6b2Vec2
JIh:_EqualityComparer_1__ctor_m99476293_gshared
tsf:_BigInteger_Incr2_m505983313
_Ud:_ArrayList_get_Count_m523955479
x9g:__Z96RuntimeInvoker_Void_t1841601450_SByte_t454417549_RuntimeObject_SByte_t454417549_SByte_t454417549PFvvEPK10MethodInfoPvPS4_
uWd:_FixedSizeArrayListWrapper_Remove_m1359458911
bji:_CameraCallback_Invoke_m2640212610
Szi:_Touch_get_position_m261108426_AdjustorThunk
pra:__ZN6prcoreL29inner_stretch_rgb565_bilinearEPKNS_9InnerInfoE
Wfi:_Uri__ctor_m3927533881
Xdj:__ZNK15dense_hashtableINSt3__24pairIK10KeyWrapperINS1_IPK14Il2CppAssemblyP11Il2CppClassEEEjEES9_17ReflectionMapHashIS8_EN14dense_hash_mapIS9_jSD_NS9_14EqualsComparerINS0_8equal_toIS8_EEEENS0_9allocatorISB_EEE9SelectKeyESI_SK_E12test_deletedEj
X8c:__Z33Canvas_Get_Custom_PropWorldCameraP12Il2CppObject
IQh:_Text_get_mainTexture_m813502234
MIj:__ZN6il2cpp8metadata19Il2CppSignatureHash4HashERKNS_5utils13dynamic_arrayIPK10Il2CppTypeLj4EEE
LYb:__ZNK14RenderSettings19GetFlatAmbientColorEv
Jqa:__ZN6prcoreL10inner_flipILj4EEEvPhS1_j
$cb:__ZN18StreamedBinaryReadILb0EE21TransferSTLStyleArrayI10vector_mapIPKN5Unity4TypeE7Hash128NSt3__24lessIS6_EENS8_9allocatorINS8_4pairIS6_S7_EEEEEEEvRT_17TransferMetaFlags
oC:__ZNK27StateMachineBehaviourPlayer15IsSenderEnabledEv
ouh:_Enumerator_VerifyState_m2118679243_gshared
KJd:_InputField_get_shouldHideMobileInput_m3694613599
Nqc:__Z40Register_UnityEngine_Transform_SetParentv
bDf:_SslClientStream_get_HaveRemoteValidation2Callback_m3555576758
Edh:__Z56RuntimeInvoker_TimeSpan_t3430258949_TimeSpan_t3430258949PFvvEPK10MethodInfoPvPS4_
b7a:__ZN14Texture2DArray17UploadToGfxDeviceEv
xnf:_ReadOnlyCollection_1_System_Collections_Generic_IListU3CTU3E_Insert_m4216310986_gshared
jkf:_ReadOnlyCollection_1_System_Collections_Generic_IListU3CTU3E_set_Item_m1532495847_gshared
PQ:__Z14FMODMemoryFreePvjPKc
eJg:__ZL103Camera_t189460977_CustomAttributesCacheGenerator_Camera_INTERNAL_CALL_ScreenToViewportPoint_m2554844623P21CustomAttributesCache
dUh:_InternalEnumerator_1_System_Collections_IEnumerator_Reset_m3731327620_AdjustorThunk
NQg:__ZL94Physics2D_t2540166467_CustomAttributesCacheGenerator_Physics2D_Raycast_m298439588____minDepth4P21CustomAttributesCache
aXg:__ZL104PointerEventData_t1599784723_CustomAttributesCacheGenerator_PointerEventData_get_worldNormal_m1704987468P21CustomAttributesCache
WCi:_YieldInstruction_t3462875981_marshal_pinvoke_cleanup
lJd:_Image_AddQuad_m1600600902
O_c:_cf2_glyphpath_moveTo
xCc:__ZNK13BoxCollider2D22GetTypeVirtualInternalEv
mAd:_AnimationTriggers_set_disabledTrigger_m609579531
ntg:__ZL47File_t1930543328_CustomAttributesCacheGeneratorP21CustomAttributesCache
X6d:_DateTimeOffset__ctor_m1796624924
mai:_Identity_get_ChannelSink_m3989446673
zvd:_BaseRaycaster_OnDisable_m1716508791
Sy:__ZN7mecanim23TransformValueArrayLoopEiiiRKN4math4trsXES3_RNS_10ValueArrayEf
otf:_ASN1Convert_ToInt32_m2121135414
I_h:_InternalEnumerator_1_MoveNext_m1741571735_gshared
ctc:__ZN5IMGUI14GUIWindowStateD2Ev
Rog:__ZL82Enum_t2459695545_CustomAttributesCacheGenerator_Enum_GetUnderlyingType_m3513899012P21CustomAttributesCache
PEj:_GC_is_heap_ptr
MAf:_TlsServerSettings_set_CertificateRequest_m3419519893
Yzi:_TouchScreenKeyboard_Open_m2033426733
zF:__ZN7mecanim5human10RetargetToEPKNS0_5HumanEPKNS0_9HumanPoseES6_RKN4math4trsXEPS4_PNS_8skeleton13SkeletonPoseTIS8_EESF_
Ky:__ZN7mecanim9animation8SeekClipERKNS0_12StreamedClipERNS0_18StreamedClipMemoryEf
y6f:_Type_get_IsGenericParameter_m161434704
Pgg:_MethodBuilder_get_Attributes_m3678061338
jm:_emscripten_glIsTexture
Qt:__ZN24CompressedAnimationCurveaSERKS_
aWd:_ArrayListWrapper_CopyTo_m793444109
SDg:__ZL79Convert_t2607082565_CustomAttributesCacheGenerator_Convert_ToUInt16_m3265369225P21CustomAttributesCache
Qk:_emscripten_glHint
fsh:__Z33RuntimeInvoker_Color32_t874517518PFvvEPK10MethodInfoPvPS4_
qOc:__ZZN10Collider2D15InitializeClassEvEN30FunctorImpl_98kDidAddComponent4CallEPviR11MessageData
V1c:_ft_var_readpackeddeltas
f6d:_DateTime_AddMilliseconds_m1813199744_AdjustorThunk
IXf:_SByte_System_IConvertible_ToSByte_m108774324_AdjustorThunk
Tgg:_MethodBuilder_GetParameterCount_m467267889
qBj:__ZThn4_N6il2cpp2vm13CachedCCWBaseINS0_13ManagedObjectEE6AddRefEv
UDb:__Z35Transfer_Blittable_FixedBufferFieldI18StreamedBinaryReadILb1EEtEvRK29SerializationCommandArgumentsR31RuntimeSerializationCommandInfo
wMf:_X509ChainStatus_t4278378721_marshal_pinvoke
vxi:_RectTransform_INTERNAL_get_pivot_m4220117653
avf:_RSAManaged__ctor_m1680944437
mm:_SDL_UpperBlit
UUa:__Z35GetTextureDecodeValuesWithIntensity16TextureUsageMode17TextureColorSpace10ColorSpacef
eTd:_Byte_GetHashCode_m2885528842_AdjustorThunk
_jj:__ZN15dense_hashtableINSt3__24pairIK10KeyWrapperINS1_IPK9EventInfoP11Il2CppClassEEEjEES9_17ReflectionMapHashIS8_EN14dense_hash_mapIS9_jSD_NS9_14EqualsComparerINS0_8equal_toIS8_EEEENS0_9allocatorISB_EEE9SelectKeyESI_SK_E15set_deleted_keyERKSB_
pBh:_Dictionary_2_OnDeserialization_m2092139626_gshared
KFc:__ZNK12b2MouseJoint10GetAnchorAEv
Pli:_PersistentCall__ctor_m3653852388
JJb:__ZN14SafeBinaryRead20OverrideRootTypeNameEPKc
W_i:__ZNK10KeyWrapperIPK22Il2CppGenericParameterE14EqualsComparerINSt3__28equal_toIS2_EEEclERKS3_SA_
Q9:__ZN14FileCacherRead16UnlockCacheBlockEj
oDe:_X509Certificate_GetUnsignedBigInteger_m3491353542
yxb:__Z18Transfer_BlittableI17RemapPPtrTransferLb1E8Vector3fEvRK29SerializationCommandArgumentsR31RuntimeSerializationCommandInfo
mug:__ZL57StackBehaviour_t1390406961_CustomAttributesCacheGeneratorP21CustomAttributesCache
Nc:_emscripten_glUniform1f
Q6b:__ZN13dynamic_arrayIS_I8Vector2fLj4EELj4EE18resize_initializedEjRKS1_12ResizePolicy
ADf:_SslStreamBase_get_MightNeedHandshake_m3432170694
PTc:__Z20ParseImageParametersR11UTF16StringRiRN20TextRenderingPrivate16TextFormatChangeE
Qpi:_NativeClassAttribute__ctor_m3728148471
Sc:_emscripten_glUniform1i
LYh:_InternalEnumerator_1_System_Collections_IEnumerator_Reset_m651165750_AdjustorThunk
mzb:__Z18Transfer_BlittableI24GenerateTypeTreeTransferLb1EN4math12int3_storageEEvRK29SerializationCommandArgumentsR31RuntimeSerializationCommandInfo
S3:__Z33UnregisterDeviceEventCallbackImplPFv23UnityGfxDeviceEventTypeE
OLh:__Z14bankers_roundff
Clb:__ZN9ShaderLab16SerializedTagMapaSERKS0_
rhe:_SetPropertyUtility_SetStruct_TisFillMethod_t1640962579_m1867757822_gshared
XY:__ZN11UnityEngine15CloudWebService16SessionContainer20RestoreSessionHeaderERKN4core12basic_stringIcNS2_20StringStorageDefaultIcEEEES8_RNS0_13SessionHeaderE
L6d:_DateTime_ToString_m1117481977
agd:__ZN22UnityWebRequestManager13BackendRetainEv
kje:__ZN21InterfaceFuncInvoker2Ii22UILineInfo_t3621277874S0_E6InvokeEjP11Il2CppClassP12Il2CppObjectS0_S0_
ogg:_GenericTypeParameterBuilder_GetGenericArguments_m277381309
Hsh:__Z63RuntimeInvoker_KeyValuePair_2_t888819835_IntPtr_t_RuntimeObjectPFvvEPK10MethodInfoPvPS4_
KG:__ZN11UnityEngine9Animation27CreateAvatarBindingConstantER9TransformPKN7mecanim9animation14AvatarConstantERNS3_6memory9AllocatorE
lKg:__ZL77Gradient_t3600583008_CustomAttributesCacheGenerator_Gradient_Init_m3042650694P21CustomAttributesCache
H8f:_UInt64_System_IConvertible_ToDateTime_m2412118561
ckc:__ZN9BlobWriteC2ER13dynamic_arrayIhLj16EE24TransferInstructionFlags19BuildTargetPlatform
vbg:_AssemblyName_get_Version_m3495645648
_7:__ZN14MessageHandler3GetEv
Yoa:__ZN10DynamicVBO9DrawChunkERK21DynamicVBOChunkHandle17ShaderChannelMaskS3_P17VertexDeclarationPKNS_10DrawParamsEi
ed:_emscripten_glAttachShader
omf:_ReadOnlyCollection_1__ctor_m1539890895_gshared
jha:__ZN9GfxDevice13SetActiveTierE12GraphicsTier
JZe:_Enumerator_System_Collections_IEnumerator_get_Current_m3079057684_AdjustorThunk
L7e:_List_1_System_Collections_ICollection_get_SyncRoot_m1804424478_gshared
Ibb:__ZNSt3__26vectorIN4core12basic_stringIcNS1_20StringStorageDefaultIcEEEENS_9allocatorIS5_EEE6assignIPS5_EENS_9enable_ifIXaasr21__is_forward_iteratorIT_EE5valuesr16is_constructibleIS5_NS_15iterator_traitsISC_E9referenceEEE5valueEvE4typeESC_SC_
eAe:_KeyPairPersistence_get_UserPath_m3433052783
Jef:_Collection_1_ClearItems_m1410275009_gshared
lth:__Z36RuntimeInvoker_Enumerator_t975728254PFvvEPK10MethodInfoPvPS4_
jog:__ZL58Decimal_t724701077_CustomAttributesCacheGenerator_MinusOneP21CustomAttributesCache
wie:_Array_InternalArray__IEnumerable_GetEnumerator_TisKeyframe_t1449471340_m3949799719_gshared
Mtb:__Z18Transfer_BlittableI14SafeBinaryReadLb0E11QuaternionfEvRK29SerializationCommandArgumentsR31RuntimeSerializationCommandInfo
uCc:__ZN13BoxCollider2D16CheckConsistencyEv
$Gb:__Z18Transfer_BlittableI18StreamedBinaryReadILb0EELb1E12PropertyNameEvRK29SerializationCommandArgumentsR31RuntimeSerializationCommandInfo
GKd:_InputField_get_inputType_m2187991661
s1:_tlsf_walk_heap
OCe:_PKCS12_Decode_m731190390
lmj:__ZNK15dense_hashtableINSt3__24pairIK10KeyWrapperIP11Il2CppClassES4_EES5_N6il2cpp8metadata16SZArrayClassHashEN14dense_hash_mapIS5_S4_SA_NS5_14EqualsComparerINS9_19SZArrayClassCompareEEENS0_9allocatorIS7_EEE9SelectKeyESE_SG_E10test_emptyERK24dense_hashtable_iteratorIS7_S5_SA_SI_SE_SG_E
tJi:_GUIContent_set_image_m3266329364
l_h:_InternalEnumerator_1_get_Current_m1550231132_gshared
zei:_Reference_get_IgnoreCase_m2810892634
X9f:_Version_CheckedSet_m76493673
mb:invoke_vif
HSh:_U3CGetEnumeratorU3Ec__Iterator0_Dispose_m2403602883_gshared
nb:invoke_vid
cOj:__ZNSt3__212basic_stringIcNS_11char_traitsIcEENS_9allocatorIcEEE6insertEjPKc
ZAg:__ZL67UnverifiableCodeAttribute_t765455733_CustomAttributesCacheGeneratorP21CustomAttributesCache
ob:invoke_vii
gSb:__ZNK12ImageFilters8DoRenderER17ShaderPassContextP13RenderTextureS3_RKNSt3__26vectorI11ImageFilterNS4_9allocatorIS6_EEEE
__g:__ZL82ScrollRect_t1199013257_CustomAttributesCacheGenerator_m_HorizontalScrollbarSpacingP21CustomAttributesCache
ZHd:_LayoutGroup_get_padding_m1653511445
cFa:__ZN12TLSAllocatorI14StackAllocatorE16ThreadInitializeEP13BaseAllocator
yVd:_ArrayList_Sort_m2778059513
Kha:__ZN9GfxDevice32UpdateStereoViewProjectionMatrixE21MonoOrStereoscopicEye
SOb:__ZN15dense_hashtableINSt3__24pairIKN4core12basic_stringIcNS2_20StringStorageDefaultIcEEEEP20ArchiveStorageReaderEES6_20StringHash32FunctionIS6_EN14dense_hash_mapIS6_S9_SC_NS0_8equal_toIS6_EE13stl_allocatorISA_L18MemLabelIdentifier55ELi16EEE9SelectKeyESF_SI_E12resize_deltaEjj
cId:_LayoutGroup_SetChildAlongAxis_m2732017156
c8c:__Z41CanvasRenderer_CUSTOM_DisableRectClippingP12Il2CppObject
Ttf:_MD2_Create_m539024737
B_d:_SortedList_get_SyncRoot_m3299704254
$$e:_List_1_System_Collections_ICollection_CopyTo_m2020941110_gshared
b$d:_Slot_t2267560602_marshal_pinvoke
afh:__Z112RuntimeInvoker_Void_t1841601450_RuntimeObject_Int32_t2071877448_Int32_t2071877448_RuntimeObject_SByte_t454417549PFvvEPK10MethodInfoPvPS4_
VRf:_SoapAttribute_get_XmlNamespace_m1436066016
tJa:__ZN25SingleBlockMemoryFileDataD0Ev
mFa:__ZNSt3__26vectorI14ConstantStringNS_9allocatorIS1_EEE6assignINS_11__wrap_iterIPS1_EEEENS_9enable_ifIXaasr21__is_forward_iteratorIT_EE5valuesr16is_constructibleIS1_NS_15iterator_traitsISA_E9referenceEEE5valueEvE4typeESA_SA_
SY:__ZN11UnityEngine15CloudWebService16SessionContainer21ConvertFromFolderTimeERKN4core12basic_stringIcNS2_20StringStorageDefaultIcEEEEPjPt
xvb:__ZNSt3__26vectorI8GUIStyle13stl_allocatorIS1_L18MemLabelIdentifier1ELi16EEE7reserveEj
coj:__ZN6il2cpp6icalls8mscorlib6System9Threading6Thread27GetSerializedCurrentCultureEP12Il2CppThread
Fke:_Array_InternalArray__IndexOf_TisUInt32_t2149682021_m3231515987_gshared
NHi:_ListPool_1__cctor_m709904475_gshared
x9b:__Z31CalculateHierarchyTransformType23TransformAccessReadOnly
V7b:__Z13RegisterClassI11TimeManagerEvv
GQ:__ZN4FMOD8ChannelI11setPositionEjj
lIc:__ZN10Collider2D12SetPolygon2DEP9Polygon2D
p8g:__Z136RuntimeInvoker_IntPtr_t_RuntimeObject_Int32_t2071877448_Int32_t2071877448_Int32_t2071877448_Int32_t2071877448_MonoIOErrorU26_t1029615899PFvvEPK10MethodInfoPvPS4_
P$g:__ZL75ToggleGroup_t1030026315_CustomAttributesCacheGenerator_U3CU3Ef__amU24cache1P21CustomAttributesCache
eai:_SynchronizedClientContextSink__ctor_m978504596
Nha:__ZN9GfxDevice17SetStereoViewportE15StereoscopicEyeRK5RectTIiE
_ea:__ZN17BaseObjectManager13StaticDestroyEPv
M1g:__ZL120U3CStartDelayU3Ec__Iterator0_t3761646426_CustomAttributesCacheGenerator_U3CStartDelayU3Ec__Iterator0_Dispose_m1918900820P21CustomAttributesCache
F7d:_DBNull_System_IConvertible_ToChar_m3344298044
_ai:_LinkStack_Push_m2660199875
zP:__ZN4FMOD6Reverb13setPropertiesEPK22FMOD_REVERB_PROPERTIES
slj:__ZN15dense_hashtableINSt3__24pairIK10KeyWrapperIP11Il2CppClassES4_EES5_N6il2cpp8metadata16SZArrayClassHashEN14dense_hash_mapIS5_S4_SA_NS5_14EqualsComparerINS9_19SZArrayClassCompareEEENS0_9allocatorIS7_EEE9SelectKeyESE_SG_E5clearEv
UTb:__ZN9DepthPass13PrepareSubsetEjRK10RenderNodeifRK17ShaderReplaceData
H0f:_UTF32Encoding_GetPreamble_m767706727
Cri:_X509CertificateCollection_Add_m4008705157
lRf:_MonoMethodMessage_set_Uri_m3218581120
RKg:__ZL108TouchScreenKeyboard_t601950206_CustomAttributesCacheGenerator_TouchScreenKeyboard_Open_m2033426733____alert5P21CustomAttributesCache
GOi:_AudioMixerPlayable_GetHandle_m3697423575_AdjustorThunk
xgc:__Z35SetMeshComponentFromArrayFromScriptR4Mesh30InternalScriptingShaderChannel34InternalScriptingVertexChannelTypei17ScriptingArrayPtri
hof:_ReadOnlyCollection_1_System_Collections_IList_Add_m3806843030_gshared
cTa:__ZN4PPtrI6ShaderE8TransferI19StreamedBinaryWriteILb0EEEEvRT_
aff:_Collection_1_IsFixedSize_m1816795498_gshared
jq:__ZN4core20StringStorageDefaultIcE6assignEPKcj
O9g:__Z111RuntimeInvoker_Void_t1841601450_RuntimeObject_SByte_t454417549_ObjectU26_t597476745_HeaderU5BU5DU26_t2818328198PFvvEPK10MethodInfoPvPS4_
fuj:__ZN15dense_hashtableINSt3__24pairIK10KeyWrapperIP12Il2CppObjectEN6il2cpp2gc9CachedCCWEEES5_NS7_5utils11PointerHashIS3_EEN14dense_hash_mapIS5_S9_SD_NS5_14EqualsComparerINS0_8equal_toIS4_EEEENS0_9allocatorISA_EEE9SelectKeyESI_SK_E3endEv
Lyd:_MouseButtonEventData_ReleasedThisFrame_m482758300
oyi:_SceneManager_Internal_SceneLoaded_m1729738062
Skj:__ZN15dense_hashtableINSt3__24pairIK10KeyWrapperINS1_IP11Il2CppClassjEEES4_EES6_N6il2cpp8metadata14ArrayClassHashEN14dense_hash_mapIS6_S4_SB_NS6_14EqualsComparerINSA_17ArrayClassCompareEEENS0_9allocatorIS8_EEE9SelectKeyESF_SH_E9copy_fromERKSK_j
zWd:_ReadOnlyArrayListWrapper_set_Item_m2199017141
b1b:__ZN6Camera6SetFarEf
xri:_DeriveBytes_DeriveIV_m3343375195
NUc:_UNITY_FT_Init_Class_ft_bitmap_glyph_class
Ckd:_RNGCryptoServiceProvider_GetBytes_m167497991
Zra:__ZN6prcoreL12RemapGenericI17TexFormatABGR888817TexFormatARGB8888EEvPKNS_9InnerInfoE
EKa:__ZN11GameManager17MainThreadCleanupEv
Syi:_SetupCoroutine_InvokeMember_m170868586
J9c:__Z50Register_UnityEngine_UISystemProfilerApi_EndSamplev
yhh:__Z60RuntimeInvoker_Boolean_t3825574718_PlayableOutput_t988259697PFvvEPK10MethodInfoPvPS4_
oeg:_TypeBuilder_get_Assembly_m492491492
Kb:invoke_vffff
Wgf:_Collection_1_InsertItem_m1225429801_gshared
FCc:__ZN10Collider2D12AddToManagerEv
L0c:_UNITY_tt_slot_init
LPb:__ZZ23InitPlayerLoopCallbacksvEN41PostLateUpdateUpdateResolutionRegistrator7ForwardEv
Cje:_Array_FindLastIndex_TisRuntimeObject_m986818300_gshared
HIb:__Z25scripting_array_class_get17ScriptingClassPtrj
Oxc:__ZL22Transfer_ManagedObjectI9JSONWriteLb1EEvRK29SerializationCommandArgumentsR31RuntimeSerializationCommandInfo
GM:__ZNK10SampleClip22GetTypeVirtualInternalEv
Sia:__ZN9GfxDevice20DestroyRenderSurfaceER12ObjectHandleI17RenderSurface_TagP17RenderSurfaceBaseE
Qfa:__ZN18SpriteAtlasManagerC2Ev
m6b:__ZL24PrepareSpriteRenderNodesILb1EEvR35RenderNodeQueuePrepareThreadContext
CBa:__ZN9GfxDevice22UpdateComputeResourcesEjPK9TextureIDPK16TextureDimensionPKijPKjjPK15ComputeBufferIDS7_PK20ComputeBufferCounterjSC_S2_S5_S9_SF_
NNa:__ZN12_GLOBAL__N_15qAsinEff
Wre:_Dictionary_2_Do_ICollectionCopyTo_TisKeyValuePair_2_t3749587448_m2536766696_gshared
dFa:__ZN12TLSAllocatorI14StackAllocatorE13ThreadCleanupEv
Lih:__Z154RuntimeInvoker_RaycastHit2D_t4063908774_Vector2_t2243707579_Vector2_t2243707579_Single_t2076509932_Int32_t2071877448_Single_t2076509932_Single_t2076509932PFvvEPK10MethodInfoPvPS4_
gN:__Z18GetAudioManagerPtrv
Gje:_Array_IndexOf_TisRuntimeObject_m1815604637_gshared
A0e:_List_1_GetEnumerator_m2837081829_gshared
uAj:__ZThn4_N6il2cpp2vm13ComObjectBase16MarshalInterfaceEP13Il2CppIStreamRK10Il2CppGuidPvjS7_j
o8a:__ZN4Mesh27SwizzleVertexColorsIfNeededEb
sLb:__Z27FindActiveTransformWithPathPKc
RMa:__ZN12BaseRendererD0Ev
Q4b:__Z29StdTemplateConversionFunctionIbyEbPvR14SafeBinaryRead
jeh:__Z44RuntimeInvoker_X509KeyUsageFlags_t2461349531PFvvEPK10MethodInfoPvPS4_
Sui:_PropertyName_op_Inequality_m2830582941
sEe:_SecurityParser_OnEndElement_m2909940377
oVg:__ZL92CanvasRenderer_t261436805_CustomAttributesCacheGenerator_CanvasRenderer_set_cull_m3941605148P21CustomAttributesCache
pNa:__ZNK6Camera7GetNearEv
fva:__ZN7ApiGLES11UnmapBufferEjN2gl12BufferTargetE
EAj:__ZN6il2cpp5utilsL24Utf32CharToSurrogatePairEjRA2_Ds
F0a:__Z25GetNextAllowedTextureSizeib13TextureFormat
kLb:__ZN20LocalFileSystemWebGL4CopyER13FileEntryDataS1_
o5e:_List_1_CheckIndex_m4231572822_gshared
r$:__ZN19CloudServiceHandler6RetainEv
yIj:__ZN6il2cpp2os9Semaphore4WaitEb
yEc:__ZN15b2FrictionJointD0Ev
gpd:_StrongName_Equals_m67226644
Ntc:__Z36Event_CUSTOM_Internal_SetNativeEventPv
QNa:__ZN12BaseRenderer20FlattenToRenderQueueER15RenderNodeQueueRK20DeprecatedSourceData
qfg:_FieldBuilder_get_Attributes_m2174064290
FTe:_UnmanagedMemoryStream_get_Length_m587008850
yib:__Z34scripting_liveness_calculation_endPv
Drc:__ZNK19RectangleCellLayout13GetCellCenterEv
eyj:__ZN6il2cpp2os6ThreadC2Ev
Vpd:_SecurityFrame_InitFromRuntimeFrame_m45195821
Htg:__ZL53TextReader_t1561828458_CustomAttributesCacheGeneratorP21CustomAttributesCache
kLf:_X509Chain_IsSignedWith_m292245392
ey:__ZN21AnimationClipPlayable22ProcessAnimationNoClipEPK35AnimationPlayableEvaluationConstantPK32AnimationPlayableEvaluationInputP33AnimationPlayableEvaluationOutput
awj:__ZNK6il2cpp2os10SocketImpl12GetLastErrorEv
ege:_Array_InternalArray__ICollection_Remove_TisDateTime_t693205669_m1275668216_gshared
oCh:_Dictionary_2__ctor_m871840915_gshared
smf:_ReadOnlyCollection_1_System_Collections_Generic_ICollectionU3CTU3E_Remove_m3751131234_gshared
ozc:__Z18Transfer_BlittableI8JSONReadLb0E8Vector3fEvRK29SerializationCommandArgumentsR31RuntimeSerializationCommandInfo
tt:__ZN13AnimationClip12Vector3Curve8TransferI14SafeBinaryReadEEvRT_
E7h:_ChannelServices__cctor_m3534779830
tmj:__ZN6il2cpp2vm6Thread6DetachEP12Il2CppThread
axi:_RectOffset_Finalize_m816260249
DAi:_Transform_set_localRotation_m3053695533
LYc:_Render_Single_Pass
N2d:_Convert_ToInt16_m416789348
IZf:_EncoderExceptionFallback_Equals_m762170768
fRi:__ZL24UnresolvedVirtualCall_59P12Il2CppObjectS0_aPK10MethodInfo
UMi:_EqualityComparer_1__cctor_m2666196678_gshared
PPc:__GLOBAL__sub_I_runtime_dynamics_2_cpp
evh:_Enumerator_get_CurrentValue_m3147984131_AdjustorThunk
QG:__ZN7mecanim8skeleton30SkeletonBuildReverseIndexArrayEPiPKiPKNS0_8SkeletonES6_
Src:__Z19GetGUIBlendMaterialv
fjh:__Z69RuntimeInvoker_Boolean_t3825574718_TextGenerationSettings_t2543476768PFvvEPK10MethodInfoPvPS4_
zwj:__ZN6il2cpp2os10ThreadImpl5SleepEjb
d2h:_InternalEnumerator_1_System_Collections_IEnumerator_Reset_m3669601605_AdjustorThunk
Vti:_X509ExtensionCollection_System_Collections_IEnumerable_GetEnumerator_m2600902401
Hhf:_Collection_1_InsertItem_m1073626529_gshared
TFi:_UnityEvent_1_GetDelegate_m2559549291_gshared
MH:__ZN18AnimatorController23VirtualRedirectTransferER24GenerateTypeTreeTransfer
pFf:_ListDictionary_FindEntry_m432748847
GVj:_glBindSampler__wrapper
uKa:__ZNSt3__26vectorIN20ArchiveStorageHeader12StorageBlockE13stl_allocatorIS2_L18MemLabelIdentifier55ELi16EEE8__appendEj
Kf:_emscripten_set_mouseup_callback
rBa:__ZN9GfxDevice27SetRandomWriteTargetTextureEi9TextureID
xlh:__Z58RuntimeInvoker_Boolean_t3825574718_SpriteState_t1353336012PFvvEPK10MethodInfoPvPS4_
lja:__ZN9GfxDevice47SwitchColorRenderSurfaceOutOfFastMemoryPlatformEP17RenderSurfaceBaseb
Ese:_BaseInvokableCall_ThrowOnInvalidArg_TisColor_t2020392075_m3638385415_gshared
_2b:__ZNK18ScreenManagerWebGL8GetWidthEv
FPi:_AudioExtensionManager_GetListenerSpatializerExtensionEditorType_m165088149
u6i:__ZN6il2cpp2vm13MetadataCache33GetFieldDefaultValueDataFromIndexEi
LHd:_GridLayoutGroup_set_startAxis_m1635162426
DM:__ZN10SampleClipD2Ev
jai:_SynchronizationAttribute_EnterContext_m2984912761
apg:__ZL73Enum_t2459695545_CustomAttributesCacheGenerator_Enum_ToObject_m2601523252P21CustomAttributesCache
oee:_CultureInfo_construct_internal_locale_from_name_m971766383
ywj:__ZN6il2cpp2os10ThreadImpl13SetWaitObjectEPNS0_5posix15PosixWaitObjectE
gTd:_Byte_Equals_m368616327_AdjustorThunk
Rhb:__Z13GetGISettingsv
kme:_Array_InternalArray__ICollection_Add_TisUIVertex_t1204258818_m3869382594_gshared
b$:__ZN11UnityEngine15CloudWebService20WebRequestRestClientC2Ev
f0c:_cff_cmap_unicode_init
QRb:__ZNSt3__224__buffered_inplace_mergeIRN10vector_mapIiN17InstancedPropInfo12PropertyTypeENS_4lessIiEE13stl_allocatorINS_4pairIiS3_EEL18MemLabelIdentifier1ELi16EEE13value_compareENS_11__wrap_iterIPS8_EEEEvT0_SH_SH_T_NS_15iterator_traitsISH_E15difference_typeESL_PNSK_10value_typeE
Ibe:_Enum_ToObject_m2460371738
Yxe:_PrimalityTests_Test_m1088386156
T9:__ZN14FileCacherRead13GetFileLengthEv
HCi:_Vector4_SqrMagnitude_m1060560279
CMj:_readlink
Chj:__ZN15dense_hashtableINSt3__24pairIK10KeyWrapperINS1_IPK9EventInfoP11Il2CppClassEEEjEES9_17ReflectionMapHashIS8_EN14dense_hash_mapIS9_jSD_NS9_14EqualsComparerINS0_8equal_toIS8_EEEENS0_9allocatorISB_EEE9SelectKeyESI_SK_E12resize_deltaEjj
zqe:_Array_Resize_TisVector3_t2243707580_m893658391_gshared
iWh:_InternalEnumerator_1_System_Collections_IEnumerator_get_Current_m4259662004_AdjustorThunk
Xte:_Array_InternalArray__get_Item_TisKeyframe_t1449471340_m1003508933_gshared
GGj:__ZN6il2cpp8metadata14Il2CppTypeHash4HashEPK10Il2CppType
SHj:__ZN6il2cpp2os13SemaphoreImplC2Eii
yPg:__ZL123UnitySynchronizationContext_t1205147244_CustomAttributesCacheGenerator_UnitySynchronizationContext_ExecuteTasks_m1920809885P21CustomAttributesCache
Dbh:__Z50RuntimeInvoker_Double_t4078015681_Int64_t909078037PFvvEPK10MethodInfoPvPS4_
ICe:_StrongName_get_PublicKeyToken_m1968460885
Tab:__ZNK6Sprite9GetBoundsE8Vector2fbb
NQa:__ZNK19RenderEventsContext21CleanupCommandBuffersEv
HI:__ZN7mecanim12statemachine13StateConstant8TransferI14SafeBinaryReadEEvRT_
Dma:__ZN11ContextGLES6CreateEi
mNe:_BinaryReader_Dispose_m4249456877
Lti:_X509CrlEntry_get_Extensions_m1330698752
S1d:_Double_ToString_m1085043609
PHb:__Z19TransferField_ArrayI18StreamedBinaryReadILb0EE27Converter_SimpleNativeClassI17AnimationCurveTplIfEEEvRK23StaticTransferFieldInfoR31RuntimeSerializationCommandInfoRT0_
vwf:_CipherSuite_createEncryptionCipher_m1926075645
yqi:_Plane__ctor_m730644932
IEa:__ZN14StackAllocator16FrameMaintenanceEb
eHd:_Graphic_Raycast_m3582517890
rOc:__ZZN10Collider2D15InitializeClassEvEN33FunctorImpl_99kDidRemoveComponent4CallEPviR11MessageData
Aaa:__ZNK10GameObject20QueryComponentByTypeEPKN5Unity4TypeE
JIi:_GUISkin_MakeCurrent_m1547433985
O_e:_Enumerator_MoveNext_m1367380970_AdjustorThunk
Hhg:_OpCode_GetHashCode_m2974727122
y_d:_Enumerator_Reset_m466659019
wwf:_CipherSuite_createDecryptionCipher_m1118350455
dci:_PatternCompiler_EmitReference_m1381860071
yae:_Double_System_IConvertible_ToInt16_m4200640326
Uih:__Z84RuntimeInvoker_RuntimeObject_RayU26_t3651946800_Single_t2076509932_Int32_t2071877448PFvvEPK10MethodInfoPvPS4_
Q$a:__ZN11TextureData5ResetEv
BNg:__ZL105RectTransform_t3349966182_CustomAttributesCacheGenerator_RectTransform_INTERNAL_get_anchorMin_m3722367822P21CustomAttributesCache
mmc:__Z53Register_UnityEngine_GameObject_get_activeInHierarchyv
sgg:_GenericTypeParameterBuilder_get_IsGenericType_m1883522222
rga:__ZN15dense_hashtableINSt3__24pairIKN4core12basic_stringIcNS2_20StringStorageDefaultIcEEEE13dynamic_arrayI4PPtrI6SpriteELj4EEEES6_20StringHash32FunctionIS6_EN14dense_hash_mapIS6_SC_SF_NS0_8equal_toIS6_EE13stl_allocatorISD_L18MemLabelIdentifier81ELi16EEE9SelectKeyESI_SL_EC2ERKSO_j
M5:__ZL30InitializeCoreScriptingClassesv
Shf:_Collection_1_CheckWritable_m3938993573_gshared
Gg:_glBlitFramebuffer
XHa:__ZN17ArchiveFileSystem5TouchER13FileEntryData
WAf:_SecurityParameters_set_Cipher_m3888132335
eye:_BigInteger_GeneratePseudoPrime_m2606361440
t7d:_DateTimeFormatInfo_get_ShortTimePattern_m20923983
jxb:__Z35Transfer_Blittable_SingleValueFieldI14SafeBinaryReadhEvRT_R17GeneralMonoObjectRK23StaticTransferFieldInfo
f_g:__ZL140U3CMouseDragOutsideRectU3Ec__Iterator1_t2599668326_CustomAttributesCacheGenerator_U3CMouseDragOutsideRectU3Ec__Iterator1_Dispose_m2134284531P21CustomAttributesCache
efc:__ZN12CachedWriter15CompleteWritingEv
vBe:_EncryptedPrivateKeyInfo_get_Algorithm_m2779196942
RRf:_RemotingServices_GetRealProxy_m620317996
gUb:__ZN13dynamic_arrayI11CulledLightLj4EE6insertEPS0_PKS0_S4_
HTh:_ArrayReadOnlyList_1_RemoveAt_m2270349795_gshared
U_a:__ZNK12CubemapArray22GetTypeVirtualInternalEv
SWi:_Predicate_1_Invoke_m2060780095_gshared
q6i:__ZN6il2cpp2vm13MetadataCache23GetInterfaceOffsetIndexEi
Qn:FUNCTION_TABLE_vif
Rn:FUNCTION_TABLE_vid
Sn:FUNCTION_TABLE_vii
Jib:__Z40scripting_liveness_calculation_from_root18ScriptingObjectPtrPv
BXa:__ZN7Texture23VirtualRedirectTransferER24GenerateTypeTreeTransfer
tSc:_UNITY_FT_Set_Transform
Gbc:__ZNK32RendererMaterialAnimationBinding12SetPPtrValueERKN11UnityEngine9Animation10BoundCurveEi
ttj:__ZN6il2cpp8metadata15GenericMetadata20RegisterGenericClassEP18Il2CppGenericClass
Aeh:__Z101RuntimeInvoker_OpFlags_t378191910_SByte_t454417549_SByte_t454417549_SByte_t454417549_SByte_t454417549PFvvEPK10MethodInfoPvPS4_
lVj:_glDeleteFramebuffers__wrapper
DId:_Image_get_overrideSprite_m706080347
Moh:__Z54RuntimeInvoker_Int32_t2071877448_LabelData_t3712112744PFvvEPK10MethodInfoPvPS4_
Wrf:_BigInteger_ModInverse_m1881894572
A9i:__ZN6il2cpp2vm7Runtime17GetDelegateInvokeEP11Il2CppClass
S0g:__ZL79LayoutRebuilder_t2155218138_CustomAttributesCacheGenerator_U3CU3Ef__amU24cache4P21CustomAttributesCache
dcc:__ZZN12MeshRenderer15InitializeClassEvEN29FunctorImpl_134kDidDeleteMesh4CallEPviR11MessageData
u$g:__ZL59Slider_t297367283_CustomAttributesCacheGenerator_m_FillRectP21CustomAttributesCache
Y6b:__Z22GenerateBoxTilingShapeP22GenerateTilingAreaInfo
W1a:__ZN28EnlightenRendererInformation8TransferI14SafeBinaryReadEEvRT_
Rdh:__Z88RuntimeInvoker_RuntimeObject_RuntimeObject_Int32_t2071877448_RuntimeObject_RuntimeObjectPFvvEPK10MethodInfoPvPS4_
Qvg:__ZL69DefaultDependencyAttribute_t3858269114_CustomAttributesCacheGeneratorP21CustomAttributesCache
JJa:__ZNK15Lz4Decompressor16DecompressMemoryEPKvPjPvS2_
eXc:_UNITY_tt_face_build_cmaps
gwi:_Rect_get_height_m1231429410
tNc:__ZN11Rigidbody2D8TransferI24GenerateTypeTreeTransferEEvRT_
oZa:__Z35UnityPropertySheet_MakeSortedColorsRKNSt3__23mapIN9ShaderLab16FastPropertyNameE10ColorRGBAfNS_4lessIS2_EENS_9allocatorINS_4pairIKS2_S3_EEEEEER10vector_mapIS2_S3_S5_NS6_INS7_IS2_S3_EEEEE
d8d:_Decimal_System_IConvertible_ToType_m3828527724_AdjustorThunk
TKd:_InputField_get_caretPositionInternal_m3011712053
rWc:_UNITY_tt_face_load_os2
Ltf:_HMAC_get_Key_m2528863640
Eif:_Collection_1_IsSynchronized_m1366278230_gshared
qBg:__ZL93StringBuilder_t1221177846_CustomAttributesCacheGenerator_StringBuilder_AppendLine_m1686706871P21CustomAttributesCache
Bwb:__Z29Transfer_Blittable_ArrayFieldI14SafeBinaryRead8Vector4fEvRT_R9ArrayInfoRK23StaticTransferFieldInfo
yee:_Array_get_swapper_TisInt32_t2071877448_m2837069166_gshared
AMh:_Selectable_Navigate_m915280351
Kmh:__Z77RuntimeInvoker_Boolean_t3825574718_AspectModeU26_t218518220_Int32_t2071877448PFvvEPK10MethodInfoPvPS4_
n8h:_ConfigHandler_CheckPath_m2296459741
dyd:_PointerEventData_IsScrolling_m1971908975
Grh:__Z56RuntimeInvoker_ContentType_t1028629049_Int32_t2071877448PFvvEPK10MethodInfoPvPS4_
CPb:__ZZ23InitPlayerLoopCallbacksvEN51PostLateUpdateUpdateCustomRenderTexturesRegistrator7ForwardEv
oRg:__ZL53UILineInfo_t3621277874_CustomAttributesCacheGeneratorP21CustomAttributesCache
p8d:_Decimal_System_IConvertible_ToInt16_m3159038792
Cy:__ZN7mecanim9animation12EvaluateClipEPKNS0_4ClipEPKNS0_9ClipInputEPNS0_10ClipMemoryEPNS0_10ClipOutputE
Peb:__ZNSt3__26vectorIN15ResourceManager10DependencyE13stl_allocatorIS2_L18MemLabelIdentifier52ELi16EEEC2INS_11__wrap_iterIPS2_EEEET_SB_RKS5_PNS_9enable_ifIXaasr21__is_forward_iteratorISB_EE5valuesr16is_constructibleIS2_NS_15iterator_traitsISB_E9referenceEEE5valueEvE4typeE
f2a:__ZN4PPtrI11LightProbesE8TransferI18StreamedBinaryReadILb0EEEEvRT_
e6h:_ComVisibleAttribute__ctor_m1789587486
hlg:_MonoMethodInfo_GetReturnType_m2864247130
tch:__Z39RuntimeInvoker_DateTimeKind_t2186819611PFvvEPK10MethodInfoPvPS4_
T$b:__ZN13RenderManager29SetCurrentCameraAndStackStateEP6CameraP25CameraStackRenderingState
AAi:_Transform_INTERNAL_get_rotation_m1873681960
DMa:__ZNSt3__26__treeINS_12__value_typeIjN4core12basic_stringIcNS2_20StringStorageDefaultIcEEEEEENS_19__map_value_compareIjS7_NS_4lessIjEELb1EEE13stl_allocatorIS7_L18MemLabelIdentifier7ELi16EEE7destroyEPNS_11__tree_nodeIS7_PvEE
fmj:__ZN15dense_hashtableINSt3__24pairIK10KeyWrapperINS1_IP11Il2CppClassjEEES4_EES6_N6il2cpp8metadata14ArrayClassHashEN14dense_hash_mapIS6_S4_SB_NS6_14EqualsComparerINSA_17ArrayClassCompareEEENS0_9allocatorIS8_EEE9SelectKeyESF_SH_E12resize_deltaEjj
Vh:_JS_WebRequest_Release
zOe:_DirectoryNotFoundException__ctor_m2242202556
qZ:__ZN11UnityEngine15CloudWebService14DataErrorEventD0Ev
Apj:__ZN6il2cpp6icalls8mscorlib6System4Type20internal_from_handleEi
ptd:_String_CreateString_m2448464375
RMf:_X509SubjectKeyIdentifierExtension__ctor_m2959112706
fvh:_Enumerator_Reset_m1147555085_AdjustorThunk
fjg:_FieldInfo_get_IsNotSerialized_m2322769148
cFg:__ZL68Math_t2022911894_CustomAttributesCacheGenerator_Math_Max_m2671311541P21CustomAttributesCache
ptj:__ZN6il2cpp8metadata15GenericMetadata7InflateEPK19Il2CppGenericMethodPK20Il2CppGenericContext
r1a:__ZN19ShaderPropertySheet16SetArrayPropertyEN9ShaderLab16FastPropertyNameENS_12PropertyTypeEPKvj
alg:_MonoGenericCMethod_get_ReflectedType_m2689239043
Jtf:_CryptoConvert_ToHex_m3804747475
Fif:_Collection_1_IsFixedSize_m499196375_gshared
VCd:_ColorTween_set_startColor_m3546206870_AdjustorThunk
Ipg:__ZL67RuntimeArray_CustomAttributesCacheGenerator_Array_IndexOf_m77084779P21CustomAttributesCache
Sng:__ZL63String_t_CustomAttributesCacheGenerator_String_Split_m394273024P21CustomAttributesCache
P4c:__ZN2UI11CanvasGroup23VirtualRedirectTransferER19StreamedBinaryWriteILb0EE
pZh:_InternalEnumerator_1_get_Current_m4083613828_gshared
Dbj:__ZN6il2cpp2os4File11GetStdErrorEv
XUi:_TextGenerator_INTERNAL_CALL_Populate_Internal_cpp_m106350432
bmi:_UnityAction__ctor_m3825983746
ktc:__ZN8GUIState8EndOnGUIEv
p0f:_UnicodeEncoding_GetString_m542738941
S0c:_UNITY_TT_Get_VMetrics
_Ne:_Path_InsecureGetFullPath_m2635272425
t$d:_Enumerator_Clone_m1124749523
M5d:_DateTime_System_IConvertible_ToUInt32_m1363211018
jvi:_Quaternion_ToString_m1042358501
aXf:_RuntimeMethodHandle__ctor_m1162528746
pDi:_Predicate_1__ctor_m3243601712_gshared
Faf:_Enumerator_Dispose_m3300818037_AdjustorThunk
X7e:_List_1_AsReadOnly_m4108578222_gshared
Ngd:_DSA__ctor_m613430209
mhe:_SetPropertyUtility_SetStruct_TisSingle_t2076509932_m3849235084_gshared
wpa:__ZN7Texture21GetMasterTextureLimitEv
J1b:__Z12CanAddScriptR10GameObject17ScriptingClassPtrPS1_S2_
Bkj:__ZN6il2cpp2vm10Reflection12HasAttributeEP12Il2CppObjectP11Il2CppClass
xnd:_X509Certificate_GetExpirationDateString_m2351894475
I4:__ZN9ShaderLabL25StaticInitializeShaderLabEPv
ODh:_Dictionary_2_ContainsKeyValuePair_m3818021458_gshared
U:Math_max
Oif:_Collection_1_System_Collections_IList_Insert_m1511106741_gshared
ALg:__ZL93Mesh_t1356156583_CustomAttributesCacheGenerator_Mesh_GetAllocArrayFromChannelImpl_m1559282939P21CustomAttributesCache
MRi:__ZL24UnresolvedVirtualCall_92P12Il2CppObjectPK10MethodInfo
maj:_il2cpp_class_get_methods
bOe:_Path_CanonicalizePath_m383914732
muh:_Enumerator_System_Collections_IEnumerator_get_Current_m1631145297_gshared
pzb:__Z18Transfer_BlittableI24GenerateTypeTreeTransferLb0EN4math12int2_storageEEvRK29SerializationCommandArgumentsR31RuntimeSerializationCommandInfo
DVd:_ArrayList_Synchronized_m2395071980
kyj:__ZN6il2cpp2os6Thread16GetCurrentThreadEv
ypg:__ZL81RuntimeArray_CustomAttributesCacheGenerator_Array_SetValue_m169741241____indices1P21CustomAttributesCache
Ddc:__ZN10GameObject13ComponentPair15SetComponentPtrEPN5Unity9ComponentE
zTe:_UnexceptionalStreamWriter_Write_m3206913035
G7b:__Z13RegisterClassI10MeshFilterEvv
LMa:__ZN10TagManager8TransferI19StreamedBinaryWriteILb0EEEEvRT_
$hb:__ZN11PreloadData23VirtualRedirectTransferER18StreamedBinaryReadILb0EE
p6a:__ZN13sorted_vectorI4PPtrI11SpriteAtlasENSt3__24lessIS2_EE13stl_allocatorIS2_L18MemLabelIdentifier1ELi16EEE21sort_clear_duplicatesEv
QD:__Z17dynamic_pptr_castIP10MonoScript6ObjectET_RK4PPtrIT0_E
fAj:__ZN6il2cpp6icalls8mscorlib6System10ReflectionL40il2cpp_class_get_generic_type_definitionEP11Il2CppClass
oZf:_DESTransform_ProcessBlock_m2826669227
PIe:_Int16_CompareTo_m3493496879
rMg:__ZL56RenderTexture_t2666733923_CustomAttributesCacheGeneratorP21CustomAttributesCache
Mej:__ZN15dense_hashtableINSt3__24pairIK10KeyWrapperINS1_IPK9FieldInfoP11Il2CppClassEEEjEES9_17ReflectionMapHashIS8_EN14dense_hash_mapIS9_jSD_NS9_14EqualsComparerINS0_8equal_toIS8_EEEENS0_9allocatorISB_EEE9SelectKeyESI_SK_E16reset_thresholdsEv
wOg:__ZL56ColorWriteMask_t926634530_CustomAttributesCacheGeneratorP21CustomAttributesCache
i5a:__ZN6Sprite17MainThreadCleanupEv
_Gg:__ZL56OidCollection_t3790243618_CustomAttributesCacheGeneratorP21CustomAttributesCache
jAg:__ZL61SignatureDescription_t89145500_CustomAttributesCacheGeneratorP21CustomAttributesCache
xYh:_InternalEnumerator_1_MoveNext_m3389738333_AdjustorThunk
hS:__ZN10AudioMixer14UpdateMuteSoloEv
QQb:__Z17GetMonoManagerPtrv
pbf:_Stack_1_System_Collections_ICollection_get_SyncRoot_m3151629354_gshared
PLa:__ZN9Transform35SetLocalPositionWithoutNotificationERKN4math7_float3Ey
ZJh:_MaskableGraphic_UnityEngine_UI_IClippable_get_gameObject_m954171032
Vi:_JS_Eval_ClearTimeout
joa:__ZN7ApiGLES16SetPatchVerticesEi
XQe:_MonoIOStat_t1621921065_marshal_pinvoke
dJa:__ZN10MemoryFileC2E18MemLabelIdentifierP14MemoryFileData14FilePermission
OSf:_TrackingServices_NotifyUnmarshaledObject_m1794048369
q$i:__ZN6il2cpp2vm5Class20FromGenericParameterEPK22Il2CppGenericParameter
syg:__ZL59RemotingServices_t2399536837_CustomAttributesCacheGeneratorP21CustomAttributesCache
Q$:__ZN19CloudServiceHandler11FlushEventsEv
Bea:__ZN15GlobalCallbacksC2Ev
$oe:_Array_InternalArray__set_Item_TisLabelFixup_t4090909514_m565370771_gshared
FDj:_GC_print_static_roots
CNc:__ZN7b2World10CreateBodyEPK9b2BodyDef
UTc:_UNITY_FT_New_Memory_Face
OHg:__ZL74X509Crl_t1699034837_CustomAttributesCacheGenerator_U3CU3Ef__switchU24map13P21CustomAttributesCache
yWf:_SerializationEntry__ctor_m1619256036_AdjustorThunk
MRc:__ZN20TextRenderingPrivate21TextMeshGeneratorImpl5FlushEv
Xod:__Z15CastclassSealedP12Il2CppObjectP11Il2CppClass
f7b:__ZN15ApplicationInfo14GetSandboxTypeEv
S5g:__Z41RuntimeInvoker_TypeAttributes_t2229518203PFvvEPK10MethodInfoPvPS4_
qxb:__Z18Transfer_BlittableI17RemapPPtrTransferLb1EhEvRK29SerializationCommandArgumentsR31RuntimeSerializationCommandInfo
Dyj:__ZNSt3__26vectorIjNS_9allocatorIjEEE26__swap_out_circular_bufferERNS_14__split_bufferIjRS2_EE
B0b:__ZN16ReflectionProbes40UpdateRealtimeReflectionProbesTimeslicedEv
zHi:_ListPool_1_Get_m529219189_gshared
wsj:__ZNSt3__26__treeINS_12__value_typeIP24Il2CppReflectionAssemblyPvEENS_19__map_value_compareIS3_S5_NS_4lessIS3_EELb1EEENS_9allocatorIS5_EEE16__insert_node_atEPNS_16__tree_node_baseIS4_EERSF_SF_
Rgg:_MethodBuilder_GetBaseDefinition_m774166361
HUf:_FormatterConverter__ctor_m3958982477
cfb:__ZNK30RuntimeInitializeOnLoadManager22GetTypeVirtualInternalEv
Y3i:__ZN15dense_hashtableINSt3__24pairIK10KeyWrapperIN6il2cpp5utils13dynamic_arrayIPK10Il2CppTypeLj4EEEEPFvvEEESA_NS3_8metadata19Il2CppSignatureHashEN14dense_hash_mapISA_SD_SG_NSA_14EqualsComparerINSF_22Il2CppSignatureCompareEEENS0_9allocatorISE_EEE9SelectKeyESK_SM_E12resize_deltaEjj
lbc:__ZN16ReflectionProbes15InitializeClassEv
UFj:__ZN6il2cpp5utils5MatchENSt3__212basic_stringIcNS1_11char_traitsIcEENS1_9allocatorIcEEEEjRKS7_j
fVc:_UNITY_FT_Destroy_Class_psnames_module_class
UEc:__ZNK12b2WheelJoint17GetReactionTorqueEf
l5i:__ZNK15dense_hashtableINSt3__24pairIK10KeyWrapperIPK11Il2CppClassEPKcEES6_N6il2cpp5utils11PointerHashIS3_EEN14dense_hash_mapIS6_S9_SE_NS6_14EqualsComparerINS0_8equal_toIS5_EEEENS0_9allocatorISA_EEE9SelectKeyESJ_SL_E12test_deletedEj
Hbi:_MRUList_Evict_m2430323183
Wmf:_ReadOnlyCollection_1_System_Collections_Generic_ICollectionU3CTU3E_Remove_m1060547576_gshared
dih:__Z68RuntimeInvoker_Boolean_t3825574718_Rect_t3681755626_SByte_t454417549PFvvEPK10MethodInfoPvPS4_
zte:_Array_InternalArray__get_Item_TisRuntimeObject_m371871810_gshared
mTe:_NullTextWriter_Write_m2306984725
WD:__ZN8Animator13BatchedFKPassERK13dynamic_arrayIP14PlayableOutputLj4EE
EBf:_RecordProtocol_ProcessChangeCipherSpec_m3233959862
pGd:_Graphic_set_raycastTarget_m1229173591
sre:_Array_Sort_TisVector4_t2243707581_m474199742_gshared
pba:__ZN13RuntimeStaticINSt3__23mapIN4core12basic_stringIcNS2_20StringStorageDefaultIcEEEES6_NS0_4lessIS6_EE13stl_allocatorINS0_4pairIKS6_S6_EEL18MemLabelIdentifier13ELi16EEEELb0EE13StaticDestroyEPv
N_i:_Rigidbody2D_AddForce_m1687473487
hTe:_TextWriter_Write_m576684782
Tj:_glIsVertexArray
rJa:__ZN25SingleBlockMemoryFileDataC2E18MemLabelIdentifierPvjb
ZCa:__ZN5Unity9Component8TransferI18StreamedBinaryReadILb0EEEEvRT_
fa:invoke_fff
_Qh:_Text_get_fontSize_m3105730761
rSj:b14
VAf:_TlsServerHello_Update_m1740270635
Z3c:__ZN2UI6Canvas17MainThreadCleanupEv
Hra:__ZN6prcoreL12RemapGenericI17TexFormatARGB155517TexFormatRGBA8888EEvPKNS_9InnerInfoE
GNh:_ScrollRect_Rebuild_m3423824761
$7e:_List_1_Find_m3862454845_gshared
qBd:_CanvasScaler_get_physicalUnit_m3637173174
eGg:__ZL85Locale_t4255929015_CustomAttributesCacheGenerator_Locale_GetText_m1445803604____args1P21CustomAttributesCache
wbi:_MatchCollection_get_Item_m2609281578
Fza:__ZN7ApiGLES13CreateProgramEv
qSa:__ZN11HaloManager7AddHaloEv
j1f:_UTF8Encoding__ctor_m100325490
ype:_Array_InternalArray__set_Item_TisTouch_t407273883_m3356370177_gshared
Lpa:__ZN4crnd12crn_unpackerD2Ev
DQh:_StencilMaterial_ClearAll_m1372779118
dk:_emscripten_glTexImage2D
rRf:_ObjRefSurrogate_SetObjectData_m1873902916
D0c:_tt_driver_class_pic_init
B5:__ZN18ScriptingArguments9AddStringEPKc
TDj:_setup_header
Vch:__Z99RuntimeInvoker_RuntimeObject_DateTime_t693205669_Nullable_1_t1693325264_RuntimeObject_RuntimeObjectPFvvEPK10MethodInfoPvPS4_
$kf:_ReadOnlyCollection_1_System_Collections_IList_get_IsReadOnly_m1367736517_gshared
dPj:runPostSets
kWg:__ZL93AxisEventData_t1524870173_CustomAttributesCacheGenerator_AxisEventData_set_moveDir_m254243794P21CustomAttributesCache
Pqa:__ZL23stbir__resize_arbitraryPvPKviiiS_iiiffffPfiij14stbir_datatype12stbir_filterS4_10stbir_edgeS5_16stbir_colorspace
T3e:_List_1_System_Collections_IList_Insert_m848656350_gshared
Jzb:__Z18Transfer_BlittableI24GenerateTypeTreeTransferLb1E8Vector4fEvRK29SerializationCommandArgumentsR31RuntimeSerializationCommandInfo
uKe:_Int16_ToString_m3971652088_AdjustorThunk
ok:_pthread_detach
Z6i:__ZN6il2cpp2vm19SocketPollingThread7RunLoopEv
rYe:_KeyValuePair_2__ctor_m1640124561_AdjustorThunk
LQf:_MethodDictionary_AllocInternalProperties_m3261295876
_dc:__ZN15DirectorManager20ScheduleGraphDestroyERK14HPlayableGraph
BIb:__ZNSt3__213__stable_sortIRN10vector_mapI17ScriptingClassPtrPKN5Unity4TypeENS_4lessIS2_EENS_9allocatorINS_4pairIS2_S6_EEEEE13value_compareENS_11__wrap_iterIPSB_EEEEvT0_SJ_T_NS_15iterator_traitsISJ_E15difference_typeEPNSM_10value_typeEi
$Hg:__ZL77U3CPrivateImplementationDetailsU3E_t1486305139_CustomAttributesCacheGeneratorP21CustomAttributesCache
omb:__ZN9ShaderLab25SerializedTextureProperty8TransferI24GenerateTypeTreeTransferEEvRT_
nrf:_Comparison_1_Invoke_m2645957248_gshared
YZj:_emscripten_glIsShader__wrapper
tij:__ZN6il2cpp2gc19AppendOnlyGCHashMapINSt3__24pairIPK14Il2CppAssemblyP11Il2CppClassEEP24Il2CppReflectionAssembly17ReflectionMapHashIS9_ENS2_8equal_toIS9_EEEC2Ev
bYc:_tt_cmap14_char_next
Oug:__ZL69AssemblyTrademarkAttribute_t3740556705_CustomAttributesCacheGeneratorP21CustomAttributesCache
Ika:__ZN13GfxDeviceGLES28GetNativeVertexBufferPointerEP9GfxBuffer
iEa:__ZN11NamedObject8TransferI18StreamedBinaryReadILb0EEEEvRT_
Aya:__ZNK17GPUSkinPoseBuffer12GetBoneCountEv
pWf:_DelegatePInvokeWrapper_CallbackHandler_t362827733
yFg:__ZL59ResolveEventArgs_t1859808873_CustomAttributesCacheGeneratorP21CustomAttributesCache
Qqj:__ZNK15dense_hashtableINSt3__24pairIK10KeyWrapperIP14Il2CppIUnknownEjEES5_N6il2cpp5utils11PointerHashIS3_EEN14dense_hash_mapIS5_jSB_NS5_14EqualsComparerINS0_8equal_toIS4_EEEENS0_9allocatorIS7_EEE9SelectKeyESG_SI_E12test_deletedEj
Zig:_EventInfo_get_MemberType_m3337516651
mAc:__Z18Transfer_BlittableI8JSONReadLb1EyEvRK29SerializationCommandArgumentsR31RuntimeSerializationCommandInfo
Lk:_emscripten_glMatrixMode
ow:__ZN8Animator23VirtualRedirectTransferER18StreamedBinaryReadILb0EE
rug:__ZL93TypeBuilder_t3308873219_CustomAttributesCacheGenerator_TypeBuilder_GetConstructors_m774120094P21CustomAttributesCache
lPe:_NotSupportedException__ctor_m836173213
bRf:_MethodReturnDictionary__ctor_m756139344
MY:__ZN11UnityEngine15CloudWebService14DataDispatcher16PrepareDataBlockERNS0_16SessionContainerE
gAa:__ZN18GfxFramebufferGLES5ClearE13GfxClearFlagsRK10ColorRGBAffib
_8e:_List_1_GetIndex_m2513359832_gshared
Wbh:__Z52RuntimeInvoker_Single_t2076509932_Double_t4078015681PFvvEPK10MethodInfoPvPS4_
eHb:__ZL26Transfer_SimpleNativeClassI18StreamedBinaryReadILb0EE10RectOffsetLb0EEvRK29SerializationCommandArgumentsR31RuntimeSerializationCommandInfo
cVc:_UNITY_ft_destroy_default_module_classes
v1e:_List_1_CheckMatch_m1772343151_gshared
DTb:__ZL12DepthPassJobPN21GfxDeviceAsyncCommand10ArgScratchEPKNS_3ArgE
Pkb:__ZNSt3__26vectorIN9ShaderLab20SerializedSubProgram16TextureParameterENS_9allocatorIS3_EEE6assignINS_11__wrap_iterIPS3_EEEENS_9enable_ifIXaasr21__is_forward_iteratorIT_EE5valuesr16is_constructibleIS3_NS_15iterator_traitsISC_E9referenceEEE5valueEvE4typeESC_SC_
Jvc:__ZN5Unity9rapidjson6WriterI16TempBufferWriterNS0_4UTF8IcEES4_13JSONAllocatorE11WriteDoubleEd
LMe:_IntPtr_Equals_m1214967011_AdjustorThunk
T6e:_List_1_Add_m3591975577_gshared
nva:__ZN14GfxDeviceStats16CopyAllDrawStatsERKS_
g8b:__Z13RegisterClassI19LowerResBlitTextureEvv
qWg:__ZL100PointerEventData_t1599784723_CustomAttributesCacheGenerator_U3CpointerPressRaycastU3Ek__BackingFieldP21CustomAttributesCache
Pm:FUNCTION_TABLE_iiiiiiiiiiii
LJj:_ChangeSceneOnClickScript_Update_m3064201586
cJi:_GUIUtility_Internal_GetPixelsPerPoint_m1075452981
BRa:__ZN16GraphicsSettingsD0Ev
v4b:__Z29StdTemplateConversionFunctionIshEbPvR14SafeBinaryRead
dXj:_pthread_mutex_init__wrapper
n:cttz_i8
MUc:_UNITY_FT_GlyphLoader_Add
bli:_Display_FireDisplaysUpdated_m2197288612
y1d:_DateTimeFormatInfo_get_FullDateTimePattern_m2607507656
tBf:_HttpsClientStream_RaiseServerCertificateValidation_m3356770426
hxi:_RectTransform_INTERNAL_set_anchorMin_m3893342226
Kre:_Array_swap_TisUIVertex_t1204258818_TisUIVertex_t1204258818_m1163375424_gshared
Il:_emscripten_glViewport
L6b:__Z21GenerateTilingAreaJobP22GenerateTilingAreaInfoj
hAj:__ZN6il2cpp6icalls8mscorlib6System15MonoCustomAttrs17IsDefinedInternalEP12Il2CppObjectP20Il2CppReflectionType
mUa:__ZN4Mesh21UnswizzleVertexColorsEb
Gfa:__ZN30dense_hashtable_const_iteratorINSt3__24pairIKN4core12basic_stringIcNS2_20StringStorageDefaultIcEEEEP11AssetBundleEES6_20StringHash32FunctionIS6_EN14dense_hash_mapIS6_S9_SC_NS0_8equal_toIS6_EENS0_9allocatorISA_EEE9SelectKeyESF_SH_EppEv
KAf:_TlsServerSettings_set_CertificateTypes_m264196087
HWh:_InternalEnumerator_1__ctor_m4150855019_gshared
O6d:_DateTime_ToString_m2276663647_AdjustorThunk
A0c:_cff_parse_font_bbox
okc:__Z35Application_Get_Custom_PropIsEditorv
wdb:__ZN14PlayerSettings23VirtualRedirectTransferER18StreamedBinaryReadILb0EE
Bee:_Array_get_swapper_TisCustomAttributeTypedArgument_t1498197914_m2780757375_gshared
FXe:_KeyValuePair_2__ctor_m3201181706_AdjustorThunk
WIj:__ZN6il2cpp2os5Event5ResetEv
rkf:_ReadOnlyCollection_1_System_Collections_IList_Insert_m1130110335_gshared
DLi:_AesManaged__ctor_m2322442838
btj:__ZN6il2cpp8metadata15GenericMetadata17InflateParametersEPK13ParameterInfohPK20Il2CppGenericContextb
_Le:_Int64_System_IConvertible_ToUInt32_m850395426_AdjustorThunk
H6:__ZN18AwakeFromLoadQueue28InvokePersistentManagerAwakeEPNS_4ItemEj17AwakeFromLoadMode
zPa:__ZN6Camera13AwakeFromLoadE17AwakeFromLoadMode
zid:_HMACSHA512__ctor_m2390736870
hC:__ZNK17AnimationPlayable27GetNextCompatibleDescendantEi
jEa:__ZN4PPtrI6SpriteE8TransferI18StreamedBinaryReadILb0EEEEvRT_
_eg:_TypeBuilder_GetInterfaces_m1818658502
YCf:_TlsException_get_Alert_m4022765752
Krf:_BigInteger_op_Equality_m2683055762
ZLb:__Z25SetNeedToPerformRenderingb
vlg:_MonoMethod_GetPseudoCustomAttributes_m466965107
Zdi:__ZN21InterfaceFuncInvoker0IP19LinkRef_t2090853131E6InvokeEjP11Il2CppClassP12Il2CppObject
XKa:__ZN10GameObjectD2Ev
STb:__ZN14qsort_internal30FindAndMovePivotToLastPositionIP15RODataDepthPassi17ROSorterDepthPassEEvT_S4_T0_T1_
dyi:_ResourceRequest_t2560315377_marshal_pinvoke
Vvh:_Enumerator_System_Collections_IDictionaryEnumerator_get_Value_m3005608231_gshared
AQi:__ZL24UnresolvedVirtualCall_26P12Il2CppObjectS0_iiPK10MethodInfo
oJh:_MaskUtilities_NotifyStencilStateChanged_m1527407683
Kpg:__ZL69RuntimeArray_CustomAttributesCacheGenerator_Array_IndexOf_m2447301431P21CustomAttributesCache
I$b:__ZN12CullingGroup10SendEventsEPK17CullingGroupEventj
Gze:_DSAManaged_GenerateKeyPair_m2711647034
Q2a:__ZThn32_NK8Renderer8GetLayerEv
Ole:_Array_InternalArray__ICollection_Add_TisResourceCacheItem_t333236149_m1151081240_gshared
ksh:__Z39RuntimeInvoker_RaycastHit2D_t4063908774PFvvEPK10MethodInfoPvPS4_
Cnf:_ReadOnlyCollection_1_System_Collections_Generic_ICollectionU3CTU3E_get_IsReadOnly_m2197226755_gshared
b3d:_Convert_ToInt32_m2209788057
$rj:__ZN30dense_hashtable_const_iteratorINSt3__24pairIK10KeyWrapperINS1_IPKcS4_EEEiEES6_24NamespaceAndNamePairHashN14dense_hash_mapIS6_iS9_NS6_14EqualsComparerI26NamespaceAndNamePairEqualsEENS0_9allocatorIS8_EEE9SelectKeyESD_SF_E30advance_past_empty_and_deletedEv
$Tf:_SoapServices_GetXmlTypeForInteropType_m3821579913
WMi:_EqualityComparer_1_System_Collections_IEqualityComparer_Equals_m3601790950_gshared
XXj:_emscripten_glTexParameterfv__wrapper
Ttb:__Z18Transfer_BlittableI14SafeBinaryReadLb1E9BoundsIntEvRK29SerializationCommandArgumentsR31RuntimeSerializationCommandInfo
dbj:_il2cpp_method_get_param_count
Lhc:__ZN10systeminfo19ISOToSystemLanguageERN4core12basic_stringIcNS0_20StringStorageDefaultIcEEEE
mhj:__ZNK15dense_hashtableINSt3__24pairIK10KeyWrapperINS1_IPK12PropertyInfoP11Il2CppClassEEEjEES9_17ReflectionMapHashIS8_EN14dense_hash_mapIS9_jSD_NS9_14EqualsComparerINS0_8equal_toIS8_EEEENS0_9allocatorISB_EEE9SelectKeyESI_SK_E3endEv
vNc:__ZN11Rigidbody2D8TransferI19StreamedBinaryWriteILb0EEEEvRT_
uih:__Z34RuntimeInvoker_LogType_t1559732862PFvvEPK10MethodInfoPvPS4_
iHg:__ZL68Uri_t19570940_CustomAttributesCacheGenerator_U3CU3Ef__switchU24map15P21CustomAttributesCache
$Yc:_ps_dimension_done
zAd:_LayoutRebuilder_MarkLayoutForRebuild_m640589351
N3c:__Z46Register_UnityEngine_TextGenerator_Dispose_cppv
fyd:_PointerEventData_get_pressEventCamera_m724559964
nod:_String_IndexOfUnchecked_m3356721554
G1a:__ZN16LightmapSettings8TransferI14SafeBinaryReadEEvRT_
bha:__ZN17BufferManagerGLES13ReleaseBufferEP14DataBufferGLES
jAc:__Z18Transfer_BlittableI8JSONReadLb1EjEvRK29SerializationCommandArgumentsR31RuntimeSerializationCommandInfo
S_g:__ZL63ScrollRect_t1199013257_CustomAttributesCacheGenerator_m_InertiaP21CustomAttributesCache
rri:_PKCS12_Decrypt_m1557069392
qRh:_VertexHelper_AddUIVertexQuad_m280792808
tIf:_WebHeaderCollection_ToString_m1246460752
WWh:_InternalEnumerator_1_System_Collections_IEnumerator_get_Current_m2842514953_AdjustorThunk
ETi:__ZL25UnresolvedVirtualCall_192P12Il2CppObject19DateTime_t693205669S1_PK10MethodInfo
ep:stackSave
zcd:__ZN5Unity9rapidjson15GenericDocumentINS0_4UTF8IcEE13JSONAllocatorNS0_12CrtAllocatorEE6StringEPKcjb
sZc:_ps_dimension_end
doc:__Z41Register_UnityEngine_Mesh_Internal_Createv
Fsb:__ZN16MemoryFileSystem5TouchER13FileEntryData
sab:__ZN14SpriteRenderer23VirtualRedirectTransferER24GenerateTypeTreeTransfer
$sj:__ZNK15dense_hashtableI10KeyWrapperIP18Il2CppGenericClassES3_N6il2cpp8metadata22Il2CppGenericClassHashEN14dense_hash_setIS3_S6_NS3_14EqualsComparerINS5_25Il2CppGenericClassCompareEEENSt3__29allocatorIS3_EEE8IdentityESA_SD_E12test_deletedERK30dense_hashtable_const_iteratorIS3_S3_S6_SF_SA_SD_E
XLc:__ZNSt3__27__sort3IRN18Overlap2DQueryBase29ColliderHitsByDepthComparitorEPP10Collider2DEEjT0_S7_S7_T_
hIf:_ServicePointManager_get_SecurityProtocol_m1445189298
Pid:_MACTripleDES_Initialize_m1318099802
xuf:_MD5SHA1_VerifySignature_m507888141
tSd:_Byte_System_IConvertible_ToChar_m4188836679
pKe:_NumberFormatter_InitDecHexDigits_m2036076025
ywh:_Enumerator_get_CurrentKey_m3839846791_AdjustorThunk
i1b:__ZN6Camera9SetAspectEf
cDd:_ColorTween_get_ignoreTimeScale_m641454126_AdjustorThunk
wa:invoke_viiffiii
Akf:_ReadOnlyCollection_1_Contains_m1800950533_gshared
EXg:__ZL79TouchInputModule_t2561058385_CustomAttributesCacheGenerator_m_ForceModuleActiveP21CustomAttributesCache
mZj:_emscripten_glBindVertexArray__wrapper
Blh:__Z52RuntimeInvoker_Vector2_t2243707579_Int32_t2071877448PFvvEPK10MethodInfoPvPS4_
$tf:_MD4__ctor_m2366413460
yDh:_Dictionary_2_InitArrays_m435313205_gshared
AM:__ZN10ObjectPoolIN4FMOD3DSPENS0_4DSPIEE7GetFreeEi
XLa:__ZN9Transform37InitializeTransformHierarchyRecursiveER18TransformHierarchyRii
w9b:__Z34DefaultPrepareDispatchBoundsUpdateR13RendererScene18MemLabelIdentifier
qGd:_Graphic_get_useLegacyMeshGeneration_m1366444625
Zza:__ZN26SinglePassStereoSupportExt23SetupStereoMatrixParamsE21MonoOrStereoscopicEye24BuiltinShaderMatrixParamRK10Matrix4x4f
gIf:_ServicePointManager_get_CheckCertificateRevocationList_m4009410230
BZg:__ZL65InputField_t1631627530_CustomAttributesCacheGenerator_m_InputTypeP21CustomAttributesCache
yRi:__ZL24UnresolvedVirtualCall_78P12Il2CppObjectPK10MethodInfo
Vxe:_ModulusRing_Pow_m1137250399
R1h:_InternalEnumerator_1_MoveNext_m2410670600_AdjustorThunk
RW:__Z46AudioListener_CUSTOM_GetNumExtensionPropertiesP12Il2CppObject
rTa:__ZN17MeshRenderingData4InitEP4MeshS1_iP15SharedGfxBufferS3_
Hmf:_ReadOnlyCollection_1_System_Collections_ICollection_get_SyncRoot_m2779904122_gshared
_Hh:_EqualityComparer_1_System_Collections_IEqualityComparer_Equals_m1682986002_gshared
_Yd:_Hashtable__cctor_m2952659675
zMf:_X509ChainStatus__ctor_m3628359961_AdjustorThunk
b1g:__ZL77LayoutUtility_t4076838048_CustomAttributesCacheGenerator_U3CU3Ef__amU24cache4P21CustomAttributesCache
bxb:__ZN15SerializeTraitsI13dynamic_arrayIN4math12int3_storageELj4EEE19ResizeSTLStyleArrayERS3_i
Eod:_Evidence_get_HostEvidenceList_m2095478124
Fqc:__Z57Register_UnityEngine_Transform_INTERNAL_set_localPositionv
Cxf:_Context_Clear_m4000337070
Yka:__ZN13GfxDeviceGLES26SetRandomWriteTargetBufferEi15ComputeBufferID
jPf:_IntervalCollection_Normalize_m538796191
pPb:__ZZ23InitPlayerLoopCallbacksvEN49EarlyUpdateResetFrameStatsAfterPresentRegistrator7ForwardEv
y$d:_Console_SetEncodings_m342145566
JMg:__ZL77Object_t1021602117_CustomAttributesCacheGenerator_Object_get_name_m3369637820P21CustomAttributesCache
hGd:_FontUpdateTracker_UntrackText_m3827316510
ogj:__ZN6il2cpp2gc19AppendOnlyGCHashMapINSt3__24pairIPK11Il2CppImageP11Il2CppClassEEP22Il2CppReflectionModule17ReflectionMapHashIS9_ENS2_8equal_toIS9_EEE10CopyValuesEPv
BBi:_Vector2_get_sqrMagnitude_m593717298_AdjustorThunk
Nte:_Array_InternalArray__get_Item_TisSingle_t2076509932_m1495809753_gshared
BUi:_Font_get_fontSize_m3125470578
vhc:__ZNK11ICallString6ToUTF8Ev
Jei:_CaptureAssertion_get_Alternate_m2729005740
YBj:_GC_number_stack_black_listed
brj:__ZN24dense_hashtable_iteratorINSt3__24pairIK10KeyWrapperIP14Il2CppIUnknownEjEES5_N6il2cpp5utils11PointerHashIS3_EEN14dense_hash_mapIS5_jSB_NS5_14EqualsComparerINS0_8equal_toIS4_EEEENS0_9allocatorIS7_EEE9SelectKeyESG_SI_E30advance_past_empty_and_deletedEv
TTb:__ZNSt3__211__sift_downIR17ROSorterDepthPassP15RODataDepthPassEEvT0_S5_T_NS_15iterator_traitsIS5_E15difference_typeES5_
Obg:_Default_SelectMethod_m3081239996
CYa:__ZN18UnityPropertySheet11UnityTexEnvC2Ev
gkc:__ZNSt3__214__split_bufferIPN9BlobWrite11TypeContextENS_9allocatorIS3_EEE10push_frontERKS3_
oE:__ZN8Animator17ApplyOnAnimatorIKEiRNS_11AnimatorJobE
$9:__ZN12FileAccessor4ReadEyyPvPy
KXa:__ZN13dynamic_arrayI16ShaderKeywordSetLj4EE6insertEPS0_PKS0_S4_
mIb:__Z29Transfer_Blittable_ArrayFieldI18StreamedBinaryReadILb0EE11QuaternionfEvRT_R9ArrayInfoRK23StaticTransferFieldInfo
MQf:_MethodDictionary_IsOverridenKey_m3922224650
l_d:_SyncHashtable_Contains_m3042906549
J9e:_List_1_System_Collections_IList_set_Item_m4016273526_gshared
QMf:_X509KeyUsageExtension_CopyFrom_m931530012
ZTi:__ZL25UnresolvedVirtualCall_213P12Il2CppObject40CustomAttributeTypedArgument_t1498197914PK10MethodInfo
K0b:__ZN13RenderTexture9SetHeightEi
Px:__ZN7mecanim9animation17ClearMotionOutputEPNS0_18AnimationNodeStateE
NUa:__ZN16LevelGameManager8TransferI24GenerateTypeTreeTransferEEvRT_
cJh:_LayoutUtility_U3CGetMinHeightU3Em__4_m1769295917
hEf:_SslStreamBase_Read_m1036897444
cLh:_RectMask2D_PerformClipping_m1232012832
poj:__ZN6il2cpp6icalls8mscorlib6System2IO6MonoIO17GetFileAttributesEP12Il2CppStringPi
mxh:_Transform_1_Invoke_m4020530914_gshared
IXc:_tt_cmap8_char_index
$5:__Z24scripting_class_get_name17ScriptingClassPtr
Jba:__ZN13RuntimeStaticI15GUIEventManagerLb0EE13StaticDestroyEPv
uyj:__ZN6il2cpp2os6Thread15CurrentThreadIdEv
Kvb:__Z29Transfer_Blittable_ArrayFieldI14SafeBinaryReadjEvRT_R9ArrayInfoRK23StaticTransferFieldInfo
he:_emscripten_set_keydown_callback
JZd:_Enumerator_get_Value_m3684748062
MMa:__ZN19StreamedBinaryWriteILb0EE21TransferSTLStyleArrayINSt3__26vectorI17SortingLayerEntryNS2_9allocatorIS4_EEEEEEvRT_17TransferMetaFlags
v7f:_UInt32_Parse_m3371984903
haa:__ZN12FileAccessorC2Ev
Vsi:_X509CertificateCollection_Compare_m1014334435
uff:_Collection_1_ClearItems_m1280157591_gshared
bsh:__Z33RuntimeInvoker_TypeTag_t141209596PFvvEPK10MethodInfoPvPS4_
zci:_PatternLinkStack_GetCurrent_m2994645935
$Pa:__ZN6Camera8TransferI19StreamedBinaryWriteILb0EEEEvRT_
Qqf:_Comparison_1__ctor_m2929820459_gshared
p5g:__Z59RuntimeInvoker_RuntimeObject_RuntimeObject_SByte_t454417549PFvvEPK10MethodInfoPvPS4_
xai:_AsyncResult__ctor_m1183194429
x9i:__ZN6il2cpp2vm7Runtime12GetConfigDirEv
BJ:__ZN4PPtrI13MonoBehaviourE8TransferI18StreamedBinaryReadILb0EEEEvRT_
OQf:_MethodDictionary_set_Item_m3475146889
eph:__Z49RuntimeInvoker_Int32_t2071877448_Touch_t407273883PFvvEPK10MethodInfoPvPS4_
Koh:__Z71RuntimeInvoker_Int32_t2071877448_CustomAttributeNamedArgument_t94157543PFvvEPK10MethodInfoPvPS4_
oUg:__ZL54Tile_t429716126_CustomAttributesCacheGenerator_m_ColorP21CustomAttributesCache
yyg:__ZL62WellKnownObjectMode_t2630225581_CustomAttributesCacheGeneratorP21CustomAttributesCache
GRh:_Toggle_PlayEffect_m3950629415
SJj:_U3CStartDelayU3Ec__Iterator0_System_Collections_Generic_IEnumeratorU3CobjectU3E_get_Current_m3985513931
Fje:_Array_IndexOf_TisRuntimeObject_m214763038_gshared
mGi:_UnityEvent_1_GetDelegate_m3917909024_gshared
nqh:__Z79RuntimeInvoker_Void_t1841601450_Int32_t2071877448_ParameterModifier_t1820634920PFvvEPK10MethodInfoPvPS4_
lKb:__Z39WriteQueueForTransferSignatureIntoCacheRK31TransferFunctionScriptingTraitsRK24TransferRequestSignature17ScriptingClassPtrR23CachedSerializationDataRb
Zgb:__ZN13RenderManager18UpdateAllRenderersEv
wJ:__ZN18AnimatorController19TransferRuntimeDataI18StreamedBinaryReadILb0EEEEvRT_
Fpi:_Mesh_Clear_m239607636
W9c:__ZN22BaseUnityConnectClient30OnEnteringStatePausedOrStoppedEv
ZGc:__ZN10ClipperLib7Clipper18SwapPositionsInAELEPNS_5TEdgeES2_
thf:_Collection_1_System_Collections_ICollection_get_SyncRoot_m2157752542_gshared
Xgj:__ZN15dense_hashtableINSt3__24pairIK10KeyWrapperINS1_IPK12PropertyInfoP11Il2CppClassEEEjEES9_17ReflectionMapHashIS8_EN14dense_hash_mapIS9_jSD_NS9_14EqualsComparerINS0_8equal_toIS8_EEEENS0_9allocatorISB_EEE9SelectKeyESI_SK_E12resize_deltaEjj
ay:__ZN7mecanim5human12HumanPoseAddERNS0_9HumanPoseERKS1_S4_
JCg:__ZL64AssemblyLoadEventArgs_t4233815743_CustomAttributesCacheGeneratorP21CustomAttributesCache
xgf:_Collection_1_IsFixedSize_m218241296_gshared
BLa:__Z24MergeTransformComponentsR9TransformS0_b
CJg:__ZL98DebugLogHandler_t865810509_CustomAttributesCacheGenerator_DebugLogHandler_Internal_Log_m3333167788P21CustomAttributesCache
UPi:_DelegatePInvokeWrapper_AudioConfigurationChangeHandler_t3743753033
VQe:_MonoIO_get_PathSeparator_m2635828107
kUf:_TypeInfo_get_TypeName_m1722081275
eLc:__ZN15b2CircleContactD0Ev
cWe:_MonoType_get_Name_m865859211
Pde:_CultureInfo__cctor_m2290268677
eTh:_ArrayReadOnlyList_1_System_Collections_IEnumerable_GetEnumerator_m3039869667_gshared
_rd:_String_Trim_m3982520224
mTf:_RemotingConfiguration__cctor_m2129988840
Oef:_Collection_1_Insert_m44548038_gshared
t2h:_InternalEnumerator_1_MoveNext_m4175772187_AdjustorThunk
nTg:__ZL87GUIUtility_t3275770671_CustomAttributesCacheGenerator_U3CguiIsExitingU3Ek__BackingFieldP21CustomAttributesCache
jAj:__ZN6il2cpp2vm13ComObjectBase19GetRuntimeClassNameEPP15Il2CppHString__
oHb:__Z35Transfer_Blittable_FixedBufferFieldI18StreamedBinaryReadILb0EEyEvRK29SerializationCommandArgumentsR31RuntimeSerializationCommandInfo
Rj:_emscripten_glVertexAttribPointer
NOj:__ZNSt11logic_errorD0Ev
oTa:__ZNK20IntermediateRenderer12GetSceneMaskEv
_fb:__ZN14PreloadManager26UpdatePreloadingSingleStepENS_21UpdatePreloadingFlagsEi
jmd:_SHA512Managed_Initialize_m891287980
Yod:_SecurityException__ctor_m1484114982
c8h:_SinkProviderData_get_Children_m100594762
Ati:_X509Crl_GetHashName_m183504634
gPd:_Array_GetValue_m1507415734
Joc:__Z57Register_UnityEngine_RectTransform_INTERNAL_set_anchorMinv
zGe:_Object_MemberwiseClone_m2655589444
Elf:_ReadOnlyCollection_1_System_Collections_IList_get_Item_m375043207_gshared
ora:__ZN6prcoreL25inner_stretch_i8_bilinearEPKNS_9InnerInfoE
qib:__ZL30RegisterFilteredObjectCallbackPP12Il2CppObjectiPv
yOe:_DirectoryInfo_ToString_m4208086799
Dlg:_MonoMethod_get_IsGenericMethod_m4276550811
Lxh:_Transform_1_BeginInvoke_m3826027984_gshared
gZ:__ZN11UnityEngine15CloudWebService16SessionContainer24GetSessionHeaderJsonDataERKN4core12basic_stringIcNS2_20StringStorageDefaultIcEEEERNS2_13StringBuilderE
d2d:_Decimal_op_Implicit_m2149927308
wba:__ZN13RuntimeStaticI21AssetReferenceStorageLb0EE13StaticDestroyEPv
i7f:_UInt16_System_IConvertible_ToUInt32_m1864968312
Xvj:__ZN6il2cpp6icalls8mscorlib6System9AppDomain22InternalGetProcessGuidEP12Il2CppString
VH:__ZNK25RuntimeAnimatorController30GetAnimationClipOverrideVectorEv
cAe:_KeyPairPersistence_get_UseMachineKeyStore_m560802076
Sbf:_Collection_1_CopyTo_m1840908033_gshared
uuh:_Enumerator_System_Collections_IDictionaryEnumerator_get_Entry_m345330700_AdjustorThunk
GHa:__ZNK17FileSystemHandler10IsReadOnlyERK13FileEntryData
p8i:__ZNSt3__214__split_bufferIP9FieldInfoRNS_9allocatorIS2_EEEC2EjjS5_
lud:_AbstractEventData__ctor_m3586111519
eAb:__Z18Transfer_BlittableI24GenerateTypeTreeTransferLb1EjEvRK29SerializationCommandArgumentsR31RuntimeSerializationCommandInfo
RNg:__ZL118AttributeHelperEngine_t958797062_CustomAttributesCacheGenerator_AttributeHelperEngine_GetRequiredComponents_m586474250P21CustomAttributesCache
Wtf:_MD2Managed_Padding_m410163267
Kgj:__ZNK15dense_hashtableINSt3__24pairIK10KeyWrapperINS1_IPK11Il2CppImageP11Il2CppClassEEEjEES9_17ReflectionMapHashIS8_EN14dense_hash_mapIS9_jSD_NS9_14EqualsComparerINS0_8equal_toIS8_EEEENS0_9allocatorISB_EEE9SelectKeyESI_SK_E10test_emptyERK30dense_hashtable_const_iteratorISB_S9_SD_SM_SI_SK_E
$Rh:_Toggle_UnityEngine_UI_ICanvasElement_get_transform_m4177274032
$8b:__ZNK28RectTransformPropertyBinding9BindValueER6ObjectRKN11UnityEngine9Animation14GenericBindingERNS3_10BoundCurveE
hTa:__ZN11ColorRGBA328TransferI14SafeBinaryReadEEvRT_
lUc:__ZN20TextRenderingPrivate8TextMesh8TransferI14SafeBinaryReadEEvRT_
ewh:_Enumerator_Dispose_m401572848_AdjustorThunk
Mf:_emscripten_glClearDepth
Kcc:__ZNK8GUILayer22GetTypeVirtualInternalEv
f_a:__ZN8Playable12SetPlayStateE9PlayState
b4a:__ZN14SafeBinaryRead21TransferSTLStyleArrayINSt3__26vectorIN15QualitySettings14QualitySettingENS1_9allocatorIS4_EEEEEEvRT_17TransferMetaFlags
Nre:_Array_swap_TisVector2_t2243707579_m3359959735_gshared
NOe:_File_OpenText_m4058508963
Xcb:__ZNSt3__26vectorINS_4pairIPKN5Unity4TypeE7Hash128EENS_9allocatorIS7_EEE8__appendEj
lUf:_WellKnownClientTypeEntry__ctor_m670594074
OYg:__ZL61FontData_t2614388407_CustomAttributesCacheGenerator_m_MinSizeP21CustomAttributesCache
wTi:__ZL25UnresolvedVirtualCall_184P12Il2CppObject19DateTime_t693205669S1_PK10MethodInfo
v5d:_DateTime_System_IConvertible_ToSingle_m3927769066_AdjustorThunk
O$c:_cff_font_load
BBf:_RecordProtocol_SendRecord_m2977889250
uic:__Z13IsPathCreatedRKN4core12basic_stringIcNS_20StringStorageDefaultIcEEEE
XK:__ZN13ProduceHelperI13AnimationClipLb0EE7ProduceE18MemLabelIdentifier18ObjectCreationMode
Vqa:__ZL22stbir__encode_scanlineP11stbir__infoiPvPfiii
R9g:__Z136RuntimeInvoker_Void_t1841601450_Byte_t3683104436_RuntimeObject_Int64U26_t763825331_ObjectU26_t597476745_SerializationInfoU26_t4051840202PFvvEPK10MethodInfoPvPS4_
BQc:__ZN20QuadTreeNodeRenderer13StaticDestroyEPv
c_:__ZN11UnityEngine15CloudWebService20WebRequestRestClient5AbortEv
aEi:_InvokableCall_1_Invoke_m2228071798_gshared
k9b:__ZN9Transform12CleanupClassEv
w4g:__Z50RuntimeInvoker_Void_t1841601450_Double_t4078015681PFvvEPK10MethodInfoPvPS4_
VJi:_GUILayoutGroup_CalcWidth_m877887811
Axf:_ClientContext_set_ClientHelloProtocol_m2246603449
yzi:_Texture_Internal_GetHeight_m3235768354
toa:__ZNSt3__26vectorIN9GfxDevice14SubPassActionsENS_9allocatorIS2_EEE26__swap_out_circular_bufferERNS_14__split_bufferIS2_RS4_EE
CMd:_U3CMouseDragOutsideRectU3Ec__Iterator1_MoveNext_m2845491958
Elb:__ZNSt3__26vectorIN9ShaderLab19SerializedSubShaderENS_9allocatorIS2_EEE26__swap_out_circular_bufferERNS_14__split_bufferIS2_RS4_EE
VD:__ZN11UnityEngine9Animation33SetGenericTransformPropertyValuesERKNS0_30AnimatorGenericBindingConstantERKN7mecanim10ValueArrayEP9Transformy
gu:__ZN11UnityEngine9Animation28AnimationClipBindingConstant8TransferI24GenerateTypeTreeTransferEEvRT_
qzd:_StandaloneInputModule_IsModuleSupported_m623598506
smj:__ZN6il2cpp2vmL24thread_cleanup_on_cancelEPv
Y4h:_ResourceReader_Close_m3256966401
fYf:_SByte_ToString_m4105923225_AdjustorThunk
rWf:_StreamingContext_t1417235061_marshal_pinvoke_cleanup
Tde:_CultureInfo_ConstructCurrentUICulture_m3363349599
h9f:_UInt64_CompareTo_m2422461804_AdjustorThunk
b0g:__ZL75CanvasScaler_t2574720772_CustomAttributesCacheGenerator_m_FallbackScreenDPIP21CustomAttributesCache
BVe:_MonoType_GetEvent_m4160342003
OKh:_RawImage_set_texture_m2400157626
gOi:_PrimeHelper_ToPrime_m1606935350_gshared
ETa:__Z30ProcessDynamicBatchGeometryJobP25DynamicVBOGeometryJobDataj
Yih:__Z59RuntimeInvoker_Boolean_t3825574718_RaycastHit2D_t4063908774PFvvEPK10MethodInfoPvPS4_
XHh:_EqualityComparer_1__ctor_m81618677_gshared
nUb:__ZNSt3__27__sort4IRNS_6__lessI11CulledLightS2_EEPS2_EEjT0_S6_S6_S6_T_
xcj:__ZN6il2cpp2vm14TypeNameParser26ParseArrayModifierOptionalEv
pve:_MSCompatUnicodeTable_Level3_m260824928
dNd:_LayoutElement_OnEnable_m3478706401
q7:__Z26scripting_object_get_class18ScriptingObjectPtr
eWi:_Func_3__ctor_m3917225629_gshared
Efb:__ZNSt3__26vectorIN4core12basic_stringIcNS1_20StringStorageDefaultIcEEEE13stl_allocatorIS5_L18MemLabelIdentifier13ELi16EEE7reserveEj
zYi:_RectTransformUtility_GetTransposed_m1233793627
K8b:__ZNK28MonoBehaviourPropertyBinding15GenerateBindingERKN4core12basic_stringIcNS0_20StringStorageDefaultIcEEEEbRN11UnityEngine9Animation14GenericBindingE
hJe:_Int32_FindExponent_m3187554672
oAe:_KeyPairPersistence_Load_m1355205585
sNh:_ScrollRect_get_horizontalScrollbarVisibility_m4152068235
rLe:_Int32_ToString_m2960866144_AdjustorThunk
cXi:_Predicate_1_Invoke_m3539717340_gshared
Tqd:_Single_CompareTo_m2081476257_AdjustorThunk
rPi:_AudioExtensionManager_AddSpatializerExtension_m1881494443
txj:__ZN6il2cpp6icalls8mscorlib6System11Environment15internalGetHomeEv
ERj:dynCall_iiiiiiffiiiiiiiiiffffiiii
Wri:_PKCS12_get_Keys_m288413492
cCa:__ZNK5Unity9Component7GetNameEv
U8i:__ZNSt3__214__split_bufferIN6il2cpp6icalls8mscorlib6System12PropertyPairERNS_9allocatorIS5_EEEC2EjjS8_
ZDg:__ZL79Convert_t2607082565_CustomAttributesCacheGenerator_Convert_ToUInt16_m2130758075P21CustomAttributesCache
_Vf:__ZN21InterfaceFuncInvoker4IP12Il2CppObjectS1_P28SerializationInfo_t22898743028StreamingContext_t1417235061S1_E6InvokeEjP11Il2CppClassS1_S1_S3_S4_S1_
VEg:__ZL58IFormatProvider_t2849799027_CustomAttributesCacheGeneratorP21CustomAttributesCache
Xph:__Z75RuntimeInvoker_Void_t1841601450_Int32_t2071877448_KeyValuePair_2_t888819835PFvvEPK10MethodInfoPvPS4_
aIi:_ObjectPool_1_Get_m3724675538_gshared
F4a:__ZN13ScreenManagerD0Ev
kEc:__ZNK11b2RopeJoint16GetReactionForceEf
hF:__ZN7mecanim8skeleton26SkeletonPoseComputeGlobalQEPKNS0_8SkeletonEPKNS0_13SkeletonPoseTIN4math4trsXEEEPS7_ii
Vcd:__ZN18UnityConnectClient19RegisterVRCallbacksEv
VJj:_U3CStartDelayU3Ec__Iterator0_Reset_m3984307686
o4e:_List_1_GetEnumerator_m2672519407_gshared
S5b:__ZN10BootConfig4Data3SetEPKcjS2_j
JE:__ZN9BlobWrite8TransferI22OffsetPtrArrayTransferIiEEEvRT_PKc17TransferMetaFlags
eah:__Z82RuntimeInvoker_Boolean_t3825574718_SByte_t454417549_RuntimeObject_SByte_t454417549PFvvEPK10MethodInfoPvPS4_
$ue:_ContractionComparer_Compare_m314873025
syb:__Z18Transfer_BlittableI17RemapPPtrTransferLb1EjEvRK29SerializationCommandArgumentsR31RuntimeSerializationCommandInfo
JLe:_Int64_System_IConvertible_ToDouble_m638786774
dR:__ZN4FMOD6System7releaseEv
NZd:_HashKeys_get_IsSynchronized_m4207641174
cCb:__Z18Transfer_BlittableI19StreamedBinaryWriteILb0EELb1E8BitFieldEvRK29SerializationCommandArgumentsR31RuntimeSerializationCommandInfo
E9:__Z18PathToAbsolutePathRKN4core12basic_stringIcNS_20StringStorageDefaultIcEEEE
vfh:__Z44RuntimeInvoker_HashAlgorithmType_t1654661965PFvvEPK10MethodInfoPvPS4_
KYe:_Enumerator_MoveNext_m3078170540_AdjustorThunk
Hr:__ZN13AnimationClip23VirtualRedirectTransferER17RemapPPtrTransfer
Nmd:_SymmetricAlgorithm_get_Padding_m718051685
nFj:__ZN6il2cpp6icalls8mscorlib6System10Reflection16MonoPropertyInfo16GetTypeModifiersEPvb
vLi:_Action_Invoke_m3801112262
I4g:__Z79RuntimeInvoker_Decimal_t724701077_RuntimeObject_Int32_t2071877448_RuntimeObjectPFvvEPK10MethodInfoPvPS4_
xqa:__ZL13BlitImageImplR14ImageReferenceiiRKS_NS_10ColorSpaceENS_8BlitModeEb
aec:__ZN15DirectorManager17AcquireOutputNodeEv
LKb:__ZN10MonoScript23VirtualRedirectTransferER17RemapPPtrTransfer
WCg:__ZL76Convert_t2607082565_CustomAttributesCacheGenerator_Convert_ToChar_m541258017P21CustomAttributesCache
Y3g:__Z64RuntimeInvoker_RuntimeObject_Int16_t4041245914_Int16_t4041245914PFvvEPK10MethodInfoPvPS4_
Yya:__ZN16GeometryJobTasks20ScheduleGeometryJobsER9GfxDevicePFvP15GeometryJobDataEPK22GeometryJobInstructionjb
jP:__ZN12AudioManager29ShutdownReinitializeAndReloadEv
bri:_NetscapeCertTypeExtension_Decode_m2210025005
jmh:__Z56RuntimeInvoker_Void_t1841601450_KeyValuePair_2_t38854645PFvvEPK10MethodInfoPvPS4_
uUf:_BaseFixupRecord_DoFixup_m1821597450
t$i:__ZN15dense_hashtableINSt3__24pairIK10KeyWrapperIPK22Il2CppGenericParameterEP11Il2CppClassEES6_N6il2cpp5utils11PointerHashIS4_EEN14dense_hash_mapIS6_S9_SE_NS6_14EqualsComparerINS0_8equal_toIS5_EEEENS0_9allocatorISA_EEE9SelectKeyESJ_SL_E6insertERKSA_
ROe:_FileLoadException__ctor_m1356374414
MEi:_InvokableCall_4_Invoke_m1140294390_gshared
Fwf:_TlsStream_Reset_m1504601050
Mzi:_Time_set_timeScale_m2966928564
u$e:__ZN23InterfaceActionInvoker2IP23Int32U5BU5D_t3030399641iE6InvokeEjP11Il2CppClassP12Il2CppObjectS1_i
Qna:__ZN14DataBufferGLES16RecreateWithDataEjPKv
zCa:__Z29GetGlobalAllowNameConversionsv
r2b:__ZN8Material8SetColorEN9ShaderLab16FastPropertyNameERK10ColorRGBAf
Sjg:_Module_GetCustomAttributes_m3581287913
yqg:__ZL67Type_t_CustomAttributesCacheGenerator_Type_IsSubclassOf_m2450899481P21CustomAttributesCache
US:__ZN11AudioSource23VirtualRedirectTransferER18StreamedBinaryReadILb0EE
zba:__ZN21AssetReferenceStorageC2Ev
JCb:__ZN10RectOffset8TransferI19StreamedBinaryWriteILb0EEEEvRT_
d6:__ZL41AssemblyNameMatchesWithOrWithoutExtensionPKcS0_
Snh:__Z53RuntimeInvoker_Boolean_t3825574718_Color32_t874517518PFvvEPK10MethodInfoPvPS4_
TCc:__ZN23ColliderTilingExtension5ResetEv
Uva:__ZN14GfxContextGLES43AddRenderSurfaceToDeferredFBOInvalidateListEPK17RenderSurfaceGLES
Unj:__ZN6il2cpp6icalls8mscorlib6System9Threading6Thread15Thread_internalEP12Il2CppThreadP14Il2CppDelegate
AEa:__ZN11NamedObject23VirtualRedirectTransferER14SafeBinaryRead
zpg:__ZL74RuntimeArray_CustomAttributesCacheGenerator_Array_BinarySearch_m3522310993P21CustomAttributesCache
xPi:_AudioListener_GetNumExtensionProperties_m2652400521
MTc:__ZNSt3__26vectorIN20TextRenderingPrivate8FontImpl13CharacterInfoE13stl_allocatorIS3_L18MemLabelIdentifier1ELi16EEE6insertENS_11__wrap_iterIPKS3_EERS9_
uFa:__ZN23PreloadManagerOperation6IsDoneEv
uT:__ZN4FMOD7Channel20get3DConeOrientationEP11FMOD_VECTOR
VDe:_X509Certificate_get_RawData_m3000055075
Z$i:__ZNSt3__26vectorIPK10Il2CppTypeNS_9allocatorIS3_EEE21__push_back_slow_pathIRKS3_EEvOT_
Rec:__Z33GetHasChangedDeprecatedSystemMaskv
aJc:__ZN10Effector2D10EndContactEP9b2Contact
Lzj:__ZN6il2cpp5utils11StringUtils11Utf16ToUtf8ERKNSt3__212basic_stringIDsNS2_11char_traitsIDsEENS2_9allocatorIDsEEEE
Orh:__Z30RuntimeInvoker_Link_t865133271PFvvEPK10MethodInfoPvPS4_
Fvh:_Enumerator_VerifyState_m1165543189_AdjustorThunk
h6d:_DateTime_AddSeconds_m722082155_AdjustorThunk
aXd:_SynchronizedArrayListWrapper_CopyTo_m956887031
x3h:_Comparer_1__ctor_m1202126643_gshared
xhb:__ZN21LightProbeProxyVolume18HasHardwareSupportEv
XXi:_CanvasRenderer_set_materialCount_m1703953120
iLc:__ZNK20b2SeparationFunction17FindMinSeparationEPiS0_f
jra:__ZN6prcoreL31inner_stretch_argb8888_bilinearEPKNS_9InnerInfoE
eEb:__Z18Transfer_BlittableI18StreamedBinaryReadILb1EELb1E8BitFieldEvRK29SerializationCommandArgumentsR31RuntimeSerializationCommandInfo
UIg:__ZL84Behaviour_t955675639_CustomAttributesCacheGenerator_Behaviour_set_enabled_m602406666P21CustomAttributesCache
XVc:_UNITY_FT_Outline_Decompose
Mzf:_TlsClientCertificate_get_ClientCertificate_m3062440489
uod:_StrongNamePublicKeyBlob_ToString_m3721281223
iEj:_GC_init_size_map
mWh:_InternalEnumerator_1_get_Current_m198513457_AdjustorThunk
C_h:_InternalEnumerator_1__ctor_m1240086835_AdjustorThunk
HQa:__Z20scripting_object_new17ScriptingClassPtr
eHe:_TextInfo__ctor_m2782608694
Laf:_Queue_1_System_Collections_ICollection_CopyTo_m772787461_gshared
Xej:__ZN24dense_hashtable_iteratorINSt3__24pairIK10KeyWrapperINS1_IPK9FieldInfoP11Il2CppClassEEEjEES9_17ReflectionMapHashIS8_EN14dense_hash_mapIS9_jSD_NS9_14EqualsComparerINS0_8equal_toIS8_EEEENS0_9allocatorISB_EEE9SelectKeyESI_SK_E30advance_past_empty_and_deletedEv
nHe:_TextInfo_ToUpper_m299550697
vyc:__ZN9JSONWrite8TransferI13dynamic_arrayI8BitFieldLj4EEEEvRT_PKc17TransferMetaFlags
BFa:__ZN23PreloadManagerOperation21MustCompleteNextFrameEv
wGd:_Graphic_OnRectTransformDimensionsChange_m1610753363
a4d:_Convert_ToUInt16_m3265369225
P:Math_exp
gVe:_MonoEnumInfo_get_Cache_m3551569711
Ho:FUNCTION_TABLE_iiifi
Lvj:__ZN6il2cpp2os5posix13PosixAutoLockD2Ev
Pfe:_Array_InternalArray__ICollection_Contains_TisVector3_t2243707580_m3625701788_gshared
hOc:__ZN13BoxCollider2D15InitializeClassEv
Wmg:_TypeFilter_BeginInvoke_m2395188690
YMc:__GLOBAL__sub_I_modules_physics2d_public_0_cpp
Zpg:__ZL66RuntimeArray_CustomAttributesCacheGenerator_Array_Sort_m1999601238P21CustomAttributesCache
zaf:_Enumerator__ctor_m1424070651_AdjustorThunk
CEb:__Z30TransferField_LinearCollectionI18StreamedBinaryReadILb1EEEvRK29SerializationCommandArgumentsR31RuntimeSerializationCommandInfo
IJb:__ZN13MonoBehaviour9SetScriptERK4PPtrI10MonoScriptE18ScriptingObjectPtr
Efe:_Array_InternalArray__ICollection_Contains_TisPlayableBinding_t2498078091_m4267109606_gshared
gOc:__ZN13ProduceHelperI13BoxCollider2DLb0EE7ProduceE18MemLabelIdentifier18ObjectCreationMode
DVc:_UNITY_FT_Create_Class_sfnt_module_class
rRh:_Text_CalculateLayoutInputHorizontal_m1578553982
Iqj:__ZNSt3__218uninitialized_copyIPNS_4pairIK10KeyWrapperIP14Il2CppIUnknownEjEES8_EET0_T_SA_S9_
Q8d:_Decimal_IsZero_m3557909184_AdjustorThunk
HUd:_Char_ToString_m1401375624
Xid:_MD5CryptoServiceProvider__cctor_m3309191799
gKa:__ZNK10FileSystem16LastErrorMessageEv
Mni:_Logger_set_filterLogType_m3982626604
HOf:_InterpreterFactory_get_NamesMapping_m3186583301
hih:__Z74RuntimeInvoker_Vector2_t2243707579_Vector2_t2243707579_Vector2_t2243707579PFvvEPK10MethodInfoPvPS4_
k_e:_Enumerator_System_Collections_IEnumerator_Reset_m3052395060_gshared
dsf:_Kernel_DwordDivMod_m3728402123
ZIb:__ZN13MonoBehaviour13AwakeFromLoadE17AwakeFromLoadMode
lyb:__ZL26Transfer_SimpleNativeClassI17RemapPPtrTransfer8GradientLb1EEvRK29SerializationCommandArgumentsR31RuntimeSerializationCommandInfo
dfc:__ZN12CachedWriter9InitWriteER15CacheWriterBase
Wdc:__Z21UnsignedInt64ToStringy
c1f:_UTF7Decoder__ctor_m549434986
W0h:_InternalEnumerator_1_get_Current_m1025321669_AdjustorThunk
iqi:_Object_t1021602117_marshal_pinvoke
Qqc:__Z66Register_UnityEngine_Transform_INTERNAL_CALL_InverseTransformPointv
Wda:__ZZN15DirectorManager15InitializeClassEvEN41FixedUpdateDirectorFixedUpdateRegistrator7ForwardEv
KXh:_InternalEnumerator_1_MoveNext_m2720582493_gshared
BNf:_Group__ctor_m4103922028
C7i:__ZNSt3__214__split_bufferI6pollfdRNS_9allocatorIS1_EEEC2EjjS4_
XYj:_glLinkProgram__wrapper
hqb:__ZN18ScriptingArguments8AddInt64Ex
Tra:__ZN6prcoreL12RemapGenericI17TexFormatARGB888815TexFormatBGR888EEvPKNS_9InnerInfoE
Oqb:__ZN12HandlerChain4LockER13FileEntryData12FileLockMode
bjd:_MD5CryptoServiceProvider_ProcessFinalBlock_m1052610785
qXd:_BitArray_Set_m2878881714
NTi:__ZL25UnresolvedVirtualCall_201P12Il2CppObjectPK10MethodInfo
Ydd:__ZN28UnityConnectScriptingClasses23CallSessionStateChangedEixxbP21ScriptingExceptionPtr
RHe:_Guid_CompareTo_m2203922782_AdjustorThunk
JOh:_Selectable_get_colors_m3501193396
prj:__ZN6il2cpp6icalls8mscorlib6System13Globalization11CultureInfo35construct_internal_locale_from_nameEP17Il2CppCultureInfoP12Il2CppString
tAb:__ZL22Transfer_ManagedObjectI24GenerateTypeTreeTransferLb1EEvRK29SerializationCommandArgumentsR31RuntimeSerializationCommandInfo
YMg:__ZL72SceneManager_t90660965_CustomAttributesCacheGenerator_activeSceneChangedP21CustomAttributesCache
Yvg:__ZL55COMException_t1790481504_CustomAttributesCacheGeneratorP21CustomAttributesCache
Lye:_ASN1_get_Count_m404940548
O9h:_ContextAttribute_Equals_m53324298
Zj:_emscripten_set_main_loop_timing
Vii:_Camera_ScreenToViewportPoint_m3458250415
rag:_WeakReference_AllocateHandle_m1783929473
Lna:__ZN14DataBufferGLES12RecordRenderEv
Lqe:_Array_Sort_TisRuntimeObject_m3674422195_gshared
Y1b:__ZN14ImageReference10FlipImageYEv
VPa:__Z32TransferEnumWithNameForceIntSizeI14SafeBinaryRead13TargetEyeMaskEvRT_RT0_PKc17TransferMetaFlags
otc:__Z14GetDefaultSkini
Wde:_CultureInfo_get_Name_m3316229893
Z5d:_DateTime_get_Ticks_m310281298_AdjustorThunk
xM:__ZN4FMOD3DSP9setBypassEb
Uif:_Collection_1_System_Collections_IList_get_Item_m287847793_gshared
u5b:__Z19NormalizeWheelInputf
nNf:_CaptureCollection_CopyTo_m1982767892
w4b:__Z29StdTemplateConversionFunctionIsaEbPvR14SafeBinaryRead
Xfe:_Array_InternalArray__ICollection_Remove_TisLink_t865133271_m1984184141_gshared
kCc:__Z29Transfer_Blittable_ArrayFieldI8JSONReadhEvRT_R9ArrayInfoRK23StaticTransferFieldInfo
MNd:_LayoutRebuilder_IsDestroyed_m3442208294
gvh:_Enumerator_VerifyState_m1547102902_AdjustorThunk
EIj:__ZN6il2cpp2os20ThreadLocalValueImpl8SetValueEPv
iRa:__ZN22RenderingCommandBuffer20CleanupCommandBufferEv
rah:__Z165RuntimeInvoker_Void_t1841601450_UInt32U26_t2197289955_Int32_t2071877448_UInt32U26_t2197289955_Int32_t2071877448_Int32_t2071877448_Int32_t2071877448_Int32_t2071877448PFvvEPK10MethodInfoPvPS4_
Jqh:__Z99RuntimeInvoker_Void_t1841601450_CustomAttributeTypedArgumentU5BU5DU26_t4216645529_Int32_t2071877448PFvvEPK10MethodInfoPvPS4_
$wc:__Z18Transfer_BlittableI9JSONWriteLb1EtEvRK29SerializationCommandArgumentsR31RuntimeSerializationCommandInfo
SOe:_FileLoadException__ctor_m918124939
cNg:__ZL106SceneManager_t90660965_CustomAttributesCacheGenerator_SceneManager_Internal_ActiveSceneChanged_m1940652884P21CustomAttributesCache
qk:___syscall85
wga:__ZN15dense_hashtableINSt3__24pairIKN4core12basic_stringIcNS2_20StringStorageDefaultIcEEEE13dynamic_arrayI4PPtrI6SpriteELj4EEEES6_20StringHash32FunctionIS6_EN14dense_hash_mapIS6_SC_SF_NS0_8equal_toIS6_EE13stl_allocatorISD_L18MemLabelIdentifier81ELi16EEE9SelectKeyESI_SL_E5clearEv
YRb:__ZNSt3__26__sortIRPFbP10GUIElementS2_EPS2_EEvT0_S7_T_
Msf:_SequentialSearchPrimeGeneratorBase_GenerateSearchBase_m2930465198
Qcc:__ZN16GraphicsSettings12CleanupClassEv
vyj:__ZN6il2cpp2os6Thread19DetachCurrentThreadEv
O$i:__ZN6il2cpp2vmL21SetupInterfacesLockedEP11Il2CppClassRKNS_2os12FastAutoLockE
Zsb:__ZN11MonoManager23VirtualRedirectTransferER24GenerateTypeTreeTransfer
U7g:__Z102RuntimeInvoker_Int32_t2071877448_RuntimeObject_Int32_t2071877448_Int32_t2071877448_Int32U26_t455636984PFvvEPK10MethodInfoPvPS4_
SC:__ZN23AnimationPlayableOutput17SetSourcePlayableEP8Playable
bNf:_Capture__ctor_m885749277
DJd:_SubmitEvent__ctor_m222860306
cZ:__ZN11UnityEngine15CloudWebService14DataDispatcher15SetupWebRequestEv
_Se:_TextWriter__cctor_m4047845042
YBf:_ReceiveRecordAsyncResult_get_Record_m1336421357
bbd:__ZN11UnityEngine15PlatformWrapper13GetShaderCapsEv
rqi:_Object_ToString_m2938729670
FZb:__ZNSt3__211__sift_downIR26RenderDeferredObjectSorterP16RenderObjectDataEEvT0_S5_T_NS_15iterator_traitsIS5_E15difference_typeES5_
TCg:__ZL76Convert_t2607082565_CustomAttributesCacheGenerator_Convert_ToByte_m509311047P21CustomAttributesCache
PBh:_Dictionary_2_System_Collections_Generic_IEnumerableU3CSystem_Collections_Generic_KeyValuePairU3CTKeyU2CTValueU3EU3E_GetEnumerator_m1742521661_gshared
fih:__Z87RuntimeInvoker_Void_t1841601450_RuntimeObject_StringU26_t638738783_StringU26_t638738783PFvvEPK10MethodInfoPvPS4_
XJd:_InputField_CaretBlink_m3960486606
ak:_emscripten_glGetProgramiv
aAi:_TouchScreenKeyboard_set_hideInput_m962370792
OAe:_SmallXmlParser_ReadCharacters_m1966365555
HDf:_InternalAsyncResult_get_CompletedWithError_m3993955322
ydc:__ZN21FixedBehaviourManager6UpdateEv
eic:__ZN9Transform9SetParentEPS_NS_15SetParentOptionE
JHd:_GridLayoutGroup_set_startCorner_m1660251450
WOa:__ZN19ShaderPropertySheet8SetFloatEN9ShaderLab16FastPropertyNameEfNS_8SetFlagsE
CZg:__ZL68InputField_t1631627530_CustomAttributesCacheGenerator_m_AsteriskCharP21CustomAttributesCache
mgb:__ZN19RuntimeSceneManager24BeginIntegrateMainThreadEP10UnityScene
Zwj:__ZNSt3__2plIcNS_11char_traitsIcEENS_9allocatorIcEEEENS_12basic_stringIT_T0_T1_EERKS9_S6_
RTe:_LocalDataStoreSlot__cctor_m1192669356
hlb:__ZN9ShaderLab20SerializedSubProgramaSERKS0_
wPj:_roundf
rtd:_String_CreateString_m2556700934
KMa:__ZN18StreamedBinaryReadILb0EE21TransferSTLStyleArrayINSt3__26vectorI17SortingLayerEntryNS2_9allocatorIS4_EEEEEEvRT_17TransferMetaFlags
POh:_Selectable_get_targetGraphic_m137842753
ww:__ZN8Animator15SetPrepareStageEv
cQh:_Slider_get_axis_m162140813
Ekg:_MonoEventInfo_t2190036573_marshal_pinvoke
P$i:__ZN6il2cpp2vmL24SetupTypeHierarchyLockedEP11Il2CppClassRKNS_2os12FastAutoLockE
C5b:__ZL11TextHandleriPK23EmscriptenKeyboardEventPv
XNd:_LayoutRebuilder_U3Cs_RebuildersU3Em__0_m3768099182
AOh:_ScrollRect_SetLayoutHorizontal_m3486408020
kTc:_destroy_face
QNi:_GenericEqualityComparer_1_GetHashCode_m116190842_gshared
doi:_Material_SetIntImpl_m1039479734
Puh:_Enumerator_VerifyState_m1547102902_gshared
Ftg:__ZL55StreamWriter_t3858580635_CustomAttributesCacheGeneratorP21CustomAttributesCache
WPc:__ZN5physx19PxAllocatorCallbackD2Ev
EFj:__ZN6il2cpp6icalls8mscorlib6System8Security12Cryptography24RNGCryptoServiceProvider13RngInitializeEP11Il2CppArray
K7e:_List_1_System_Collections_ICollection_get_IsSynchronized_m227393674_gshared
$ch:__Z99RuntimeInvoker_Void_t1841601450_Int32_t2071877448_Int16_t4041245914_Int16_t4041245914_RuntimeObjectPFvvEPK10MethodInfoPvPS4_
lHf:_IPAddress__cctor_m3624830012
bT:__ZN20SoundChannelInstance7setMuteEb
tVa:__ZN4PPtrI5LightE8TransferI19StreamedBinaryWriteILb0EEEEvRT_
XIf:_AsnEncodedData_EnhancedKeyUsageExtension_m1452131166
dFb:__Z19TransferField_ArrayI18StreamedBinaryReadILb1EE27Converter_SimpleNativeClassI17AnimationCurveTplIfEEEvRK23StaticTransferFieldInfoR31RuntimeSerializationCommandInfoRT0_
Kyi:_SendMouseEvents__cctor_m1448404407
JOc:__ZN7b2World18SetContactListenerEP17b2ContactListener
xLc:__ZN14PhysicsQuery2D11LinecastAllERK8Vector2fS2_RKN10Collider2D13ContactFilterEPKS3_bP13dynamic_arrayI12RaycastHit2DLj4EE
zoa:__ZN18GfxFramebufferGLES22MakeCurrentFramebufferENS_7BuiltinE
uFj:__ZN6il2cpp2vm12MarshalAlloc4FreeEPv
hOf:_Interpreter_Close_m1500459069
uk:_JS_SystemInfo_GetWidth
BKa:__ZN12CachedReader4ReadEPvj
v_c:_cf2_blues_init
qWh:_InternalEnumerator_1_System_Collections_IEnumerator_get_Current_m3600601141_gshared
zld:_SHA1Internal_HashFinal_m3188468925
nWb:__Z24CalculateLightShadowFadeRK6CamerafffR8Vector4f
j6:__ZN19RuntimeSceneManagerD2Ev
VFg:__ZL55HeaderHandler_t324204131_CustomAttributesCacheGeneratorP21CustomAttributesCache
z7h:_ChannelData_get_CustomProperties_m1470957369
VLg:__ZL99Material_t193706927_CustomAttributesCacheGenerator_Material_Internal_CreateWithMaterial_m1941547384P21CustomAttributesCache
Xre:_Dictionary_2_Do_ICollectionCopyTo_TisRuntimeObject_m545661084_gshared
s_:__ZN11UnityEngine15CloudWebService25WebRequestDownloadHandler17OnCompleteContentEv
ira:__ZN6prcore17GetIntegerBlitterE13TextureFormatS0_N14ImageReference8BlitModeE
sCc:__ZN13BoxCollider2DD0Ev
kgj:__ZN6il2cpp2gc19AppendOnlyGCHashMapINSt3__24pairIPK11Il2CppImageP11Il2CppClassEEP22Il2CppReflectionModule17ReflectionMapHashIS9_ENS2_8equal_toIS9_EEE11TryGetValueERKS9_PSB_
cwh:_Enumerator_VerifyState_m3173176371_AdjustorThunk
Nqh:__Z84RuntimeInvoker_Void_t1841601450_RaycastResultU5BU5DU26_t2399554255_Int32_t2071877448PFvvEPK10MethodInfoPvPS4_
tGf:_TypeConverterAttribute__cctor_m506796812
l_f:_Encoding_get_IsReadOnly_m3729101432
kkc:__ZN9BlobWrite14ReduceCopyImplERK14ReduceCopyDataj
P3:__ZNSt3__26__treeI19RepeatingLogMessageNS_4lessIS1_EE13stl_allocatorIS1_L18MemLabelIdentifier73ELi16EEE12__find_equalIS1_EERPNS_16__tree_node_baseIPvEESD_RKT_
GW:__ZN11AudioSource18IsPlayingScriptingEv
N9f:_ValueType_t3507792607_marshal_pinvoke_back
D3h:_Comparer_1_System_Collections_IComparer_Compare_m1790257529_gshared
Ooh:__Z55RuntimeInvoker_Int32_t2071877448_ILTokenInfo_t149559338PFvvEPK10MethodInfoPvPS4_
Mjg:_MethodInfo_get_ContainsGenericParameters_m572340060
REc:__ZNK12b2WheelJoint10GetAnchorAEv
$Tj:_glShaderSource__wrapper
JIa:__ZN25MultiBlocksMemoryFileData17AdjustBlocksCountEj
Enj:__ZNSt3__214__split_bufferIN6il2cpp2vm22EmbeddedResourceRecordERNS_9allocatorIS3_EEED2Ev
Hxf:_TlsClientHello__ctor_m1699671541
msh:__Z31RuntimeInvoker_Touch_t407273883PFvvEPK10MethodInfoPvPS4_
qRc:__ZN13TextRendering4Font8TransferI24GenerateTypeTreeTransferEEvRT_
h9h:_Context_NotifyGlobalDynamicSinks_m2916447645
Clc:__Z27CullingGroup_CUSTOM_DisposeP12Il2CppObject
ved:__ZNSt3__26vectorIP19BaseConnectSettings13stl_allocatorIS2_L18MemLabelIdentifier6ELi16EEE21__push_back_slow_pathIKS2_EEvRT_
Hhh:__Z69RuntimeInvoker_Color_t2020392075_Color_t2020392075_Single_t2076509932PFvvEPK10MethodInfoPvPS4_
gRb:__ZN13ComputeShader15SetTextureParamEjRKN9ShaderLab16FastPropertyNameE9TextureID16TextureDimension
tPh:_Shadow_set_effectDistance_m1951993364
GDh:_Dictionary_2_ContainsKey_m416495915_gshared
mgf:_Collection_1_Remove_m1798559666_gshared
Am:_glStencilMask
Fah:__Z70RuntimeInvoker_Boolean_t3825574718_Int16_t4041245914_Int32_t2071877448PFvvEPK10MethodInfoPvPS4_
Bwj:__ZN6il2cpp2os10ThreadImpl16GetCurrentThreadEv
tyf:_TlsServerHelloDone__ctor_m2125611008
WYd:_Hashtable__ctor_m2337481811
Jvh:_Enumerator_System_Collections_IEnumerator_get_Current_m2010873149_gshared
rEd:_Resources_t2975512894_marshal_pinvoke_cleanup
Dqg:__ZL88Type_t_CustomAttributesCacheGenerator_Type_MakeGenericType_m2765875033____typeArguments0P21CustomAttributesCache
C$g:__ZL74SpriteState_t1353336012_CustomAttributesCacheGenerator_m_HighlightedSpriteP21CustomAttributesCache
bu:__ZN24GenerateTypeTreeTransfer21TransferSTLStyleArrayINSt3__26vectorI24CompressedAnimationCurve13stl_allocatorIS3_L18MemLabelIdentifier26ELi16EEEEEEvRT_17TransferMetaFlags
jDj:_GC_push_conditional_with_exclusions
f8f:_UInt32_System_IConvertible_ToUInt16_m2798641702_AdjustorThunk
TUf:_BinaryFormatter_get_DefaultSurrogateSelector_m219714691
nz:__ZN21AnimationPosePlayableD0Ev
IF:__ZN12_GLOBAL__N_121ProcessAnimationBeginER35AnimationPlayableEvaluationConstantR32AnimationPlayableEvaluationInputR33AnimationPlayableEvaluationOutput
P6g:__Z136RuntimeInvoker_Void_t1841601450_Int32_t2071877448_RuntimeObject_RuntimeObject_RuntimeObject_RuntimeObject_RuntimeObject_SByte_t454417549PFvvEPK10MethodInfoPvPS4_
iuf:_MD4Managed_Encode_m2097839378
Sif:_Collection_1_System_Collections_IList_get_IsFixedSize_m3252091801_gshared
yDd:_FloatTween_get_ignoreTimeScale_m4161298485_AdjustorThunk
gmg:_MonoProperty_GetOptionalCustomModifiers_m3827844355
zMj:_strrchr
y8h:__ZN21InterfaceFuncInvoker1IP8String_tS1_E6InvokeEjP11Il2CppClassP12Il2CppObjectS1_
Xve:_SimpleCollator_GetSortKey_m2188419329
u0g:__ZL56LayoutElement_t2808691390_CustomAttributesCacheGeneratorP21CustomAttributesCache
TLh:_Scrollbar_Set_m244028386
FVa:__ZN14RenderSettings27UpdateIndirectSpecularColorEv
Kth:__Z102RuntimeInvoker_RuntimeObject_UILineInfo_t3621277874_UILineInfo_t3621277874_RuntimeObject_RuntimeObjectPFvvEPK10MethodInfoPvPS4_
Vdb:__ZN14PlayerSettings8TransferI18StreamedBinaryReadILb0EEEEvRT_
L5h:_FixedBufferAttribute__ctor_m2048050068
A8i:__ZN6il2cpp6icalls8mscorlib6System8MonoType16GetMethodsByNameEP20Il2CppReflectionTypeP12Il2CppStringibS5_
Sni:_Logger_Log_m302200299
j6h:_GCHandle__ctor_m2952050298
Yse:_LayoutGroup_SetProperty_TisAxis_t1431825778_m2174054513_gshared
o3a:__ZN4PPtrI10GameObjectE8TransferI14SafeBinaryReadEEvRT_
sJh:_Mask_IsRaycastLocationValid_m62488857
JNb:__ZNSt3__27__sort3IRNS_4lessIN22BuiltinResourceManager8ResourceEEEPS3_EEjT0_S7_S7_T_
T2h:_DefaultComparer_Compare_m3472472212_gshared
Trh:__Z31RuntimeInvoker_Slot_t2022531261PFvvEPK10MethodInfoPvPS4_
oPe:_MonoIO_GetLength_m2812344043
hZc:_ps_hints_t2mask
rQg:__ZL68UsedByNativeCodeAttribute_t3212052468_CustomAttributesCacheGeneratorP21CustomAttributesCache
Jkj:__ZN14dense_hash_mapI10KeyWrapperINSt3__24pairIP11Il2CppClassjEEES4_N6il2cpp8metadata14ArrayClassHashENS6_14EqualsComparerINS8_17ArrayClassCompareEEENS1_9allocatorINS2_IKS6_S4_EEEEEC2EjRKS9_RKSC_
k9a:__ZN10BlendShape8TransferI19StreamedBinaryWriteILb0EEEEvRT_
bN:__Z32TransferEnumWithNameForceIntSizeI14SafeBinaryReadN10SampleClip8LoadTypeEEvRT_RT0_PKc17TransferMetaFlags
JMe:__Z21il2cpp_codegen_sizeofP11Il2CppClass
qva:__Z19GetTimeSinceStartupv
$pd:_SecurityFrame_get_Assembly_m2816566490
rwj:__ZN6il2cpp2os10ThreadImpl11SetPriorityENS0_14ThreadPriorityE
VXi:_CanvasRenderer_set_hasPopInstruction_m3302400555
l2c:_TT_Load_Composite_Glyph
bJg:__ZL84Camera_t189460977_CustomAttributesCacheGenerator_Camera_get_targetTexture_m505846373P21CustomAttributesCache
Wpg:__ZL66RuntimeArray_CustomAttributesCacheGenerator_Array_Sort_m2323017822P21CustomAttributesCache
HPd:_Array_Sort_m2994254654
t9e:_List_1__ctor_m593058937_gshared
tie:_Array_InternalArray__IEnumerable_GetEnumerator_TisColor32_t874517518_m2198639025_gshared
GUb:__ZN29RenderNodeQueuePrepareContextC2Ev
FV:__ZN10SampleClipC2E18MemLabelIdentifier18ObjectCreationMode
jmb:__ZN9ShaderLab20SerializedSubProgram16TextureParameter8TransferI24GenerateTypeTreeTransferEEvRT_
Rha:__ZN9GfxDevice19SaveStereoConstantsEv
Z2f:_Thread_set_Name_m1343706609
bGj:__ZN6il2cpp2os11MutexHandle4WaitEj
Zic:__ZL34GetComponentsImplementationRecurseILb1ELi1ELi1EEbR10GameObjectbRK17CompareParametersRK39GetComponentsImplementation_ReturnValue
aGj:__ZN6il2cpp2os11MutexHandle4WaitEv
aVd:_ArrayList_set_Capacity_m592558035
bta:__ZN6prcoreL17RemapGenericFloatI15TexFormatRGHalf18TexFormatARGBFloatEEvPKNS_9InnerInfoE
_Ue:_MonoEnumInfo_t2335995564_marshal_pinvoke_cleanup
LWa:__ZNK13RenderTexture13GetDataHeightEv
mMb:__Z18SimulateMouseInputi
AQb:__ZN13RenderManager23AddRemoveCamerasDelayedEv
eyc:__ZN9JSONWrite8TransferI13dynamic_arrayIdLj8EEEEvRT_PKc17TransferMetaFlags
wFa:__ZN23PreloadManagerOperation11GetPriorityEv
wce:_Exception_get_InnerException_m3722561235
xji:_Color_op_Multiply_m2110750533
qge:_Array_InternalArray__ICollection_Remove_TisILTokenInfo_t149559338_m1523907845_gshared
jVh:_InternalEnumerator_1_System_Collections_IEnumerator_Reset_m138745466_AdjustorThunk
Njh:__Z105RuntimeInvoker_Void_t1841601450_Vector2U26_t3911752445_RuntimeObject_RuntimeObject_Vector2U26_t3911752445PFvvEPK10MethodInfoPvPS4_
i6e:_List_1_GetEnumerator_m4053501645_gshared
g7i:__ZN6il2cpp2gc9AllocatorIP17Il2CppAsyncResultE10deallocateEPvj
nZd:_Hashtable_Rehash_m2877670513
J0b:__ZN13RenderTexture8SetWidthEi
VLd:_InputField_Insert_m1593238693
Y8b:__ZNK28RectTransformPropertyBinding12SetPPtrValueERKN11UnityEngine9Animation10BoundCurveEi
kGb:__Z18Transfer_BlittableI18StreamedBinaryReadILb0EELb0EfEvRK29SerializationCommandArgumentsR31RuntimeSerializationCommandInfo
w9a:__ZN10MeshFilterD0Ev
LUc:_UNITY_FT_GlyphLoader_CheckSubGlyphs
i7i:__ZN6il2cpp2vm21ThreadPoolCompartment20SpawnNewWorkerThreadEv
Hle:_Array_InternalArray__ICollection_Add_TisCustomAttributeTypedArgument_t1498197914_m3260005285_gshared
SWb:__Z25SetupObjectBakedOcclusionbRK15SharedLightDataRK26SharedLightmapSettingsDataRK15LightmapIndicesR17ShaderPassContext
obi:__ZN21InterfaceFuncInvoker4IP17Match_t3164245899P17Regex_t1803876613P8String_tiiE6InvokeEjP11Il2CppClassP12Il2CppObjectS3_S5_ii
UHe:_Guid_GetHashCode_m1401300871
OHi:_ListPool_1_U3Cs_ListPoolU3Em__0_m1243609651_gshared
FFd:_FontData__ctor_m3822008992
fQi:__ZL23UnresolvedVirtualCall_5P12Il2CppObjectsPK10MethodInfo
qH:__ZN4PPtrI6AvatarE8TransferI19StreamedBinaryWriteILb0EEEEvRT_
rCh:_Dictionary_2_System_Collections_IDictionary_set_Item_m115188189_gshared
_3:__ZN9ShaderLab16FastPropertyName4InitEPKc
dFc:__ZN11b2GearJointD0Ev
c8b:__Z13RegisterClassIN2UI13RectTransformEEvv
tve:_MSCompatUnicodeTable_ToWidthCompat_m2299599532
QWe:_NumberFormatter_get_IsFloatingSource_m2830957202
hcc:__ZL31MeshRendererTransformChangedJobP13BoundsJobDatajPK23TransformAccessReadOnlyPKyj
Jad:__ZN11UnityEngine15PlatformWrapper19GetPhysicalMemoryMBEv
W5a:__ZN10VertexData8TransferI17RemapPPtrTransferEEvRT_
pWa:__ZN13RenderTexture9SetMipMapEb
K1i:__ZN15dense_hashtableINSt3__24pairIK10KeyWrapperIPK11Il2CppClassEPKcEES6_N6il2cpp5utils11PointerHashIS3_EEN14dense_hash_mapIS6_S9_SE_NS6_14EqualsComparerINS0_8equal_toIS5_EEEENS0_9allocatorISA_EEE9SelectKeyESJ_SL_E13set_empty_keyERKSA_
ANh:_ScrollRect_set_verticalScrollbarSpacing_m2356851539
Eda:__Z18GetDirectorManagerv
eyi:_ResourceRequest_t2560315377_marshal_pinvoke_back
oWg:__ZL92PointerEventData_t1599784723_CustomAttributesCacheGenerator_U3CpointerDragU3Ek__BackingFieldP21CustomAttributesCache
nqc:__Z38Transform_CUSTOM_INTERNAL_get_rotationP12Il2CppObjectP11Quaternionf
fdj:__ZNSt3__26vectorIN6il2cpp2vm17TypeNameParseInfoENS_9allocatorIS3_EEE8allocateEj
Tvg:__ZL66CriticalFinalizerObject_t1920899984_CustomAttributesCacheGeneratorP21CustomAttributesCache
$fj:__ZNK15dense_hashtableINSt3__24pairIK10KeyWrapperINS1_IPK10MethodInfoP11Il2CppClassEEEjEES9_17ReflectionMapHashIS8_EN14dense_hash_mapIS9_jSD_NS9_14EqualsComparerINS0_8equal_toIS8_EEEENS0_9allocatorISB_EEE9SelectKeyESI_SK_E5beginEv
gua:__ZN7ApiGLES19UploadBufferSubDataEjN2gl12BufferTargetEllPKv
iga:__ZNSt3__216__rotate_forwardINS_11__wrap_iterIPN4core12basic_stringIcNS2_20StringStorageDefaultIcEEEEEEEET_S9_S9_S9_
yrd:_String_System_IConvertible_ToInt32_m1927223638
Mba:__ZdaPv
wI:__ZN7mecanim12statemachine20StateMachineConstant8TransferI14SafeBinaryReadEEvRT_
Axh:_Transform_1_EndInvoke_m4121732147_gshared
Cmi:_FailedToLoadScriptObject_t3605283378_marshal_pinvoke_back
Ftd:_ASCIIEncoding__ctor_m4127831672
Oji:_GameObject_GetComponent_m724360550
IXi:_CanvasGroup_get_alpha_m4171392097
ovb:__Z19TransferField_ArrayI14SafeBinaryRead27Converter_SimpleNativeClassI8GUIStyleEEvRK23StaticTransferFieldInfoR31RuntimeSerializationCommandInfoRT0_
edh:__Z63RuntimeInvoker_Void_t1841601450_RuntimeObject_Int16_t4041245914PFvvEPK10MethodInfoPvPS4_
c$f:_UTF8Encoding__ctor_m3336862259
nqj:__ZN15dense_hashtableINSt3__24pairIK10KeyWrapperIP14Il2CppIUnknownEjEES5_N6il2cpp5utils11PointerHashIS3_EEN14dense_hash_mapIS5_jSB_NS5_14EqualsComparerINS0_8equal_toIS4_EEEENS0_9allocatorIS7_EEE9SelectKeyESG_SI_ED2Ev
RFj:__ZN6il2cpp5utils10MemoryPoolC2Ej
qLf:_X509Chain_GetAuthorityKeyIdentifier_m2607407678
NFj:__ZN6il2cpp5utils10MemoryPoolC2Ev
bVa:__ZN14RenderSettings5ResetEv
G6b:__ZN6Sprite9BindAtlasERK4PPtrI11SpriteAtlasE
Ruc:__ZN5Unity9rapidjson12GenericValueINS0_4UTF8IcEE13JSONAllocatorE10FindMemberIS4_EENS0_21GenericMemberIteratorILb0ES3_S4_EERKNS1_IS3_T_EE
Roj:__ZNSt3__212basic_stringIDsNS_11char_traitsIDsEENS_9allocatorIDsEEE6appendEPKDsj
Tyd:_RaycastResult_set_gameObject_m1138581891_AdjustorThunk
qvc:__ZN5Unity9rapidjson13GenericReaderINS0_4UTF8IcEES3_13JSONAllocatorE11ParseNumberILj1ENS0_25GenericInsituStringStreamIS3_EENS0_15GenericDocumentIS3_S4_S4_EEEEvRT0_RT1_
uK:__ZN19StreamedBinaryWriteILb0EE21TransferSTLStyleArrayI22OffsetPtrArrayTransferIN7mecanim8skeleton19SkeletonMaskElementEEEEvRT_17TransferMetaFlags
wab:__ZN14SpriteRenderer14OnChangeSpriteEv
ose:_Dictionary_2_Do_ICollectionCopyTo_TisKeyValuePair_2_t3716250094_m1740410536_gshared
XEh:_DefaultComparer__ctor_m580747638_gshared
lwj:__ZN6il2cpp2os10ThreadImplD2Ev
UBe:_RSAManaged_Dispose_m3018788098
RFc:__ZN12b2MouseJoint23InitVelocityConstraintsERK12b2SolverData
hwc:__ZN8Gradient8TransferI9JSONWriteEEvRT_
l2f:_Monitor_Monitor_pulse_m2135582245
bzf:_Context_get_ReceivedConnectionEnd_m3369356276
Mri:_X509CertificateEnumerator_MoveNext_m1422952050
RFf:_NameObjectCollectionBase_get_Count_m2353593692
$Ea:__ZNK12TLSAllocatorI14StackAllocatorE22GetAllocatedMemorySizeEv
Sv:__ZN7mecanim6memory16ChainedAllocator8AllocateEjj
n4d:_Convert_ToUInt32_m3394039268
hli:_DisplaysUpdatedDelegate_EndInvoke_m1055876886
TCa:__ZN17RemapPPtrTransfer12PushMetaFlagE17TransferMetaFlags
_T:__ZNK7WeakPtrI20SoundChannelInstanceE10SharedData9GetRawPtrEv
zqb:__ZN12HandlerChain4NameEv
$wb:__Z29Transfer_Blittable_ArrayFieldI14SafeBinaryReadN4math12int3_storageEEvRT_R9ArrayInfoRK23StaticTransferFieldInfo
hcb:__ZNSt3__26vectorI9InputAxisNS_9allocatorIS1_EEE10deallocateEv
SIe:_Int16_Equals_m3925135434_AdjustorThunk
L8c:__Z44Register_UnityEngine_CanvasRenderer_get_cullv
dzh:_Enumerator_Dispose_m2532362830_AdjustorThunk
psg:__ZL60IHashCodeProvider_t1980576455_CustomAttributesCacheGeneratorP21CustomAttributesCache
z8b:__ZN13ProduceHelperI13MonoBehaviourLb0EE7ProduceE18MemLabelIdentifier18ObjectCreationMode
AZe:_Enumerator_VerifyState_m1677639504_AdjustorThunk
Y4b:__Z29StdTemplateConversionFunctionIbbEbPvR14SafeBinaryRead
kzj:__ZNK15dense_hashtableINSt3__24pairIK10KeyWrapperIPK19Il2CppGenericMethodEP10MethodInfoEES6_N6il2cpp8metadata23Il2CppGenericMethodHashEN14dense_hash_mapIS6_S9_SD_NS6_14EqualsComparerINSC_26Il2CppGenericMethodCompareEEENS0_9allocatorISA_EEE9SelectKeyESH_SJ_E12test_deletedEj
Rwf:_CipherSuiteCollection_get_Item_m280627160
rtb:__Z44InitializeTransferFunctionScriptingTraitsForI17RemapPPtrTransferEvR31TransferFunctionScriptingTraits
$Pf:_SerializationInfoEnumerator_MoveNext_m1876990879
D4f:_TimeSpan_Duration_m4205681645
F2b:__ZN14UnityWebStream24UpdateAllUnityWebStreamsEv
O8b:__ZNSt3__26vectorI16MessageForwarder13stl_allocatorIS1_L18MemLabelIdentifier7ELi8EEE6resizeEj
Sdf:_Collection_1_System_Collections_IList_get_IsReadOnly_m2329986891_gshared
Rqg:__ZL60ObsoleteAttribute_t3878847927_CustomAttributesCacheGeneratorP21CustomAttributesCache
hgi:_Uri_ParseAsWindowsAbsoluteFilePath_m1108586962
oyf:_Context_get_HandshakeState_m3443153737
kne:_Array_InternalArray__ICollection_CopyTo_TisRaycastHit2D_t4063908774_m3837098618_gshared
kgb:__ZN18LoadSceneOperation21MustCompleteNextFrameEv
fzi:_DataUtility_GetInnerUV_m593541260
cT:__ZNK12AudioManager16GetAudioListenerEv
Lkg:_MonoField_get_FieldType_m598011426
Rdf:_Collection_1_System_Collections_IList_get_IsFixedSize_m1624702704_gshared
WIg:__ZL48Camera_t189460977_CustomAttributesCacheGeneratorP21CustomAttributesCache
p0b:__ZNSt3__26vectorI11CameraStackNS_9allocatorIS1_EEE8__appendEj
ynj:__ZNSt3__212basic_stringIcNS_11char_traitsIcEENS_9allocatorIcEEE6__initINS_11__wrap_iterIPcEEEENS_9enable_ifIXsr21__is_forward_iteratorIT_EE5valueEvE4typeESB_SB_
CJc:__ZNK11Rigidbody2D20GetAttachedCollidersER13dynamic_arrayIP10Collider2DLj4EE
cLd:_InputField_OnDisable_m1865339380
c8f:_UInt32_System_IConvertible_ToType_m747769316
Vx:__ZN7mecanim9animation12GetHumanPoseERKNS0_18ClipMuscleConstantEPKNS0_10ValueDeltaERNS_5human9HumanPoseE
vte:_Array_InternalArray__get_Item_TisInt16_t4041245914_m2533263979_gshared
Kz:__ZN22AnimationMixerPlayable17ProcessRootMotionEP35AnimationPlayableEvaluationConstantP32AnimationPlayableEvaluationInputP33AnimationPlayableEvaluationOutput
OCb:__Z29Transfer_Blittable_ArrayFieldI19StreamedBinaryWriteILb0EEjEvRT_R9ArrayInfoRK23StaticTransferFieldInfo
K9:__Z13GetFileSystemv
bba:__ZNK5Unity4Type21FindAllDerivedClassesER13dynamic_arrayIPKS0_Lj4EENS0_17TypeFilterOptionsE
Iba:__ZN13RuntimeStaticI15GUIEventManagerLb0EE16StaticInitializeEPv
tbb:__ZN14SafeBinaryRead8TransferIfEEvRT_PKc17TransferMetaFlags
uHb:__ZL12InvokeMethodI18StreamedBinaryReadILb0EEEvRK29SerializationCommandArgumentsR31RuntimeSerializationCommandInfo
IFe:_DaylightTime_get_Delta_m2316831491
JLc:__ZNSt3__27__sort5IR24RayHitsByDepthComparitorP12RaycastHit2DEEjT0_S5_S5_S5_S5_T_
Lfe:_Array_InternalArray__ICollection_Contains_TisUILineInfo_t3621277874_m1175659630_gshared
Ihh:__Z70RuntimeInvoker_Boolean_t3825574718_Color_t2020392075_Color_t2020392075PFvvEPK10MethodInfoPvPS4_
U3f:_WaitHandle_WaitOne_m370363697
NWg:__ZL114PointerEventData_t1599784723_CustomAttributesCacheGenerator_PointerEventData_set_pointerCurrentRaycast_m2431897513P21CustomAttributesCache
wNf:_FactoryCache_Lookup_m1681894361
K6d:_DateTime_Subtract_m698282245_AdjustorThunk
Aab:__ZThn32_N14SpriteRenderer15AddAsRenderNodeER15RenderNodeQueueRK20DeprecatedSourceData
l3h:_DefaultComparer__ctor_m2470932885_gshared
wke:_Array_InternalArray__IndexOf_TisResourceCacheItem_t333236149_m761772858_gshared
Qjf:_Collection_1_InsertItem_m724820684_gshared
BEg:__ZL79Convert_t2607082565_CustomAttributesCacheGenerator_Convert_ToUInt64_m1896191125P21CustomAttributesCache
tRb:__ZN19ShaderPropertySheet9SetMatrixEN9ShaderLab16FastPropertyNameERK10Matrix4x4fNS_8SetFlagsE
_jd:_RIPEMD160Managed_Initialize_m3365407578
K0a:__Z29GetTextureSizeAllowedMultiple13TextureFormat
kHf:_IPAddress_HostToNetworkOrder_m1092199707
Bhe:_SetPropertyUtility_SetStruct_TisSpriteState_t1353336012_m2898060836_gshared
iPb:__ZZ23InitPlayerLoopCallbacksvEN52InitializationAsyncUploadTimeSlicedUpdateRegistrator7ForwardEv
god:_SecurityAttribute__ctor_m3425755778
Odc:__ZN21IntermediateRenderers3AddEP20IntermediateRenderer
aaj:_il2cpp_array_element_size
Zf:_glCheckFramebufferStatus
qRg:__ZL55TextGenerator_t647235000_CustomAttributesCacheGeneratorP21CustomAttributesCache
Uie:_Array_compare_TisInt32_t2071877448_m840310202_gshared
jwh:_Enumerator_System_Collections_IEnumerator_get_Current_m229223308_AdjustorThunk
Mrj:__ZN15dense_hashtableINSt3__24pairIK10KeyWrapperINS1_IPKcS4_EEEiEES6_24NamespaceAndNamePairHashN14dense_hash_mapIS6_iS9_NS6_14EqualsComparerI26NamespaceAndNamePairEqualsEENS0_9allocatorIS8_EEE9SelectKeyESD_SF_E12resize_deltaEjj
q2h:_InternalEnumerator_1_System_Collections_IEnumerator_get_Current_m442726479_AdjustorThunk
C$:__ZN19CloudServiceHandler20StartEventDispatcherERKN11UnityEngine15CloudWebService18CloudServiceConfigERNS1_23WebRequestRestHeaderMapE
o0h:_InternalEnumerator_1_System_Collections_IEnumerator_get_Current_m790514740_AdjustorThunk
XFc:__ZNK15b2DistanceJoint17GetReactionTorqueEf
gnh:__Z78RuntimeInvoker_Boolean_t3825574718_TransitionU26_t3012618447_Int32_t2071877448PFvvEPK10MethodInfoPvPS4_
hve:__Z37il2cpp_codegen_get_executing_assemblyPK10MethodInfo
Zpb:__ZN9Transform23VirtualRedirectTransferER17RemapPPtrTransfer
Zgh:__Z72RuntimeInvoker_Boolean_t3825574718_Bounds_t3033363703_Bounds_t3033363703PFvvEPK10MethodInfoPvPS4_
eJ:__ZN15SerializeTraitsINSt3__24pairI8StateKey10StateRangeEEE8TransferI24GenerateTypeTreeTransferEEvRS4_RT_
KJ:__ZN15SerializeTraitsI9OffsetPtrIN7mecanim12statemachine21SelectorStateConstantEEE8TransferI18StreamedBinaryReadILb0EEEEvRS4_RT_
Wje:_Array_InternalArray__IndexOf_TisByte_t3683104436_m3605266236_gshared
zjf:_Collection_1_System_Collections_IList_Insert_m435904526_gshared
ePc:__ZN15dense_hashtableINSt3__24pairIKNS1_IPK10Collider2DS4_EE11Collision2DEES5_NS2_23ColliderPairHashFunctorEN14dense_hash_mapIS5_S7_S9_NS0_8equal_toIS5_EE13stl_allocatorIS8_L18MemLabelIdentifier67ELi16EEE9SelectKeyESC_SF_E13set_empty_keyERKS8_
DLh:_RaycastAllCallback_Invoke_m981876639
Q_f:_UnicodeEncoding__ctor_m72484327
Dzi:_Texture_INTERNAL_get_texelSize_m3335010007
qqj:__ZN14dense_hash_mapI10KeyWrapperIP14Il2CppIUnknownEjN6il2cpp5utils11PointerHashIS1_EENS3_14EqualsComparerINSt3__28equal_toIS2_EEEENS9_9allocatorINS9_4pairIKS3_jEEEEE15set_deleted_keyERSF_
qba:__ZN22BuiltinResourceManager16StaticInitializeEPv
Cv:__ZN7mecanim4hand8HandPose8TransferI19StreamedBinaryWriteILb0EEEEvRT_
bKe:_NumberFormatter_ScaleOrder_m1915154678
xmj:__ZN6il2cpp2gc9AllocatorIP12Il2CppThreadE10deallocateEPvj
Cij:__ZN13Il2CppHashMapIPK14Il2CppAssemblyPK22Il2CppMonoAssemblyNameN6il2cpp5utils11PointerHashIS1_EENSt3__28equal_toIS2_EENSA_9allocatorINSA_4pairIK10KeyWrapperIS2_ES5_EEEEEC2EjRKS9_RKSC_
Myf:_ClientSessionInfo_SetContext_m2649357891
Lui:_PropertyAttribute__ctor_m1714388149
QKe:_Int32_System_IConvertible_ToInt64_m3790029067_AdjustorThunk
LCc:__ZN13BoxCollider2D13PrepareShapesER13dynamic_arrayIP7b2ShapeLj4EERK10Matrix4x4f
fs:__ZN14AnimationEvent8TransferI14SafeBinaryReadEEvRT_
Rvd:_RaycasterManager_GetRaycasters_m1154876874
ZDf:_SslStreamBase_InternalReadCallback_m2524917586
P8:__ZN8Remapper6RemoveEi
z2e:_List_1_CheckCollection_m2608305187_gshared
jJa:__ZN10MemoryFile4ReadEyPvPy
q6f:_Type_get_ContainsGenericParameters_m505913180
xjc:__ZN9Scripting27CreateArgumentNullExceptionEPKc
TTc:__ZL36CleanupTextRenderingScriptingClassesv
W4g:__Z52RuntimeInvoker_UInt32_t2149682021_Decimal_t724701077PFvvEPK10MethodInfoPvPS4_
Smf:_ReadOnlyCollection_1__ctor_m3532148437_gshared
nPd:_Array_BinarySearch_m3270245097
Znc:__Z34Mesh_CUSTOM_SetArrayForChannelImplP12Il2CppObject30InternalScriptingShaderChannel34InternalScriptingVertexChannelTypeiP11Il2CppArrayi
EOe:_MonoIO_DeleteFile_m3273821223
dxe:_BigInteger_GenerateRandom_m2507308768
l5d:_DateTime_System_IConvertible_ToDouble_m1431748426_AdjustorThunk
wfe:_Array_InternalArray__ICollection_Contains_TisUInt16_t986882611_m510319131_gshared
qoe:_Array_InternalArray__Insert_TisRaycastHit2D_t4063908774_m3174907903_gshared
e9d:_Decimal_ToString_m541380585
jOf:_RepeatContext_get_Previous_m808449037
Pkh:__Z46RuntimeInvoker_CharacterValidation_t3437478890PFvvEPK10MethodInfoPvPS4_
ljg:_MemberFilter__ctor_m1775909550
saj:_il2cpp_class_is_valuetype
RK:__ZN11UnityEngine9Animation28GenericAnimationBindingCache25RegisterIAnimationBindingEPKN5Unity4TypeEiP17IAnimationBinding
P8c:__Z70RectTransformUtility_CUSTOM_INTERNAL_CALL_RectangleContainsScreenPointP12Il2CppObjectRK13Vector2fIcallS0_
Ube:_Enum_ToObject_m2601523252
ZPj:dynCall_viiffiii
yDf:_InternalAsyncResult_get_FromWrite_m2893408424
G$i:__ZN6il2cpp2vm5Class15GetElementClassEP11Il2CppClass
DNd:_U3CDelayedSetDirtyU3Ec__Iterator0_System_Collections_IEnumerator_get_Current_m851854792
g$b:__Z40ProcessCameraIndexListIsNodeVisibleInOutRK22SceneCullingParametersPK9SceneNodePK4AABBR9IndexList
noi:_Mathf_Sqrt_m3274009347
SSa:__ZN16GraphicsSettings8TransferI17RemapPPtrTransferEEvRT_
Fsf:_BigInteger_op_LessThanOrEqual_m3528380540
JRe:_StreamReader__ctor_m2654332332
r6c:__ZN2UI6Canvas13UpdateBatchesEb
Jqi:_Playable__cctor_m3745623656
PC:__ZNK23AnimationPlayableOutput11DerivesFromE17ScriptingClassPtr
J$a:__ZN7Texture19SupportsAsyncUploadI19StreamedBinaryWriteILb0EEEEbRT_
tji:_Color_op_Implicit_m3487763211
F0e:_List_1_CheckCollection_m3968030679_gshared
LWi:_Predicate_1_BeginInvoke_m3556950370_gshared
K$f:_StringBuilder_ToString_m617673931
Eha:__ZNK13GfxDeviceGLES12GetWireframeEv
J1f:_UTF8Encoding_GetString_m1836344205
Mnf:_ReadOnlyCollection_1_System_Collections_ICollection_get_IsSynchronized_m3127987432_gshared
Dbd:__ZN11UnityEngine7Connect13ConfigHandler12GetListenersERKN4core12basic_stringIcNS2_20StringStorageDefaultIcEEEE
sSg:__ZL110AudioSource_t1135106623_CustomAttributesCacheGenerator_AudioSource_INTERNAL_CALL_ReadExtensionName_m3515549821P21CustomAttributesCache
hja:__ZN9GfxDevice18AllocRenderSurfaceEb
sLh:_GetRayIntersectionAllNonAllocCallback_BeginInvoke_m273046189
A6b:__ZN10TagManager32GetSortingLayerUniqueIDFromValueEi
iei:_AnchorInfo_get_IsComplete_m1247624133
ZEd:_Dropdown_Show_m324374589
N5:__ZL27CleanupCoreScriptingClassesv
e7g:__Z68RuntimeInvoker_RuntimeObject_RuntimeObject_DSAParameters_t1872138834PFvvEPK10MethodInfoPvPS4_
Zkf:_ReadOnlyCollection_1_System_Collections_ICollection_get_SyncRoot_m769863805_gshared
Rlh:__Z101RuntimeInvoker_Void_t1841601450_RuntimeObject_Int32_t2071877448_Single_t2076509932_Single_t2076509932PFvvEPK10MethodInfoPvPS4_
kyd:_RaycastResult_get_isValid_m2482925612
Unc:__Z26AnimationCurve_CUSTOM_InitP12Il2CppObjectP11Il2CppArray
DXj:_glUniform1uiv__wrapper
_Cc:__ZNK14b2PolygonShape5CloneEP16b2BlockAllocator
nij:__ZN6il2cpp2vm10Reflection7IsEventEP12Il2CppObject
tIj:__ZNSt3__26__treeINS_12__value_typeIPFvvEPK10MethodInfoEENS_19__map_value_compareIS3_S7_NS_4lessIS3_EELb1EEENS_9allocatorIS7_EEE16__insert_node_atEPNS_16__tree_node_baseIPvEERSI_SI_
W6:__ZN17PersistentManager26GetStreamNameSpaceInternalEi
Pvi:_Rect_set_y_m3273335367
kN:__ZN4FMOD6System11createSoundEPKcjP22FMOD_CREATESOUNDEXINFOPPNS_5SoundE
ysh:__Z72RuntimeInvoker_Int32_t2071877448_Vector2_t2243707579_Vector2_t2243707579PFvvEPK10MethodInfoPvPS4_
lgf:__ZN23InterfaceActionInvoker2Ii22UICharInfo_t3056636800E6InvokeEjP11Il2CppClassP12Il2CppObjectiS0_
$n:FUNCTION_TABLE_iiifiiii
Gdj:__ZN6il2cpp2vm4Type14IsSystemDBNullEPK10Il2CppType
U4:__ZN9ShaderLab19CommonPropertyNames13StaticCleanupEPv
f8:__Z31scripting_method_get_returntype18ScriptingMethodPtr
INh:_ScrollRect_UpdateBounds_m3266596336
Z1a:__ZN15SerializeTraitsI12LightmapDataE8TransferI24GenerateTypeTreeTransferEEvRS0_RT_
IAi:_Transform_INTERNAL_set_localScale_m1610244689
CCd:_ColorBlock_GetHashCode_m649325222
bUj:_glStencilOpSeparate__wrapper
kgc:__ZN4Mesh5SetUvEiPKfjj
u4a:__ZN7Texture13SetAnisoLimitENS_20AnisotropicFilteringE
ihb:__ZN28LightProbeProxyVolumeManager25UpdateSHCoeffsTextureDataER21LightProbeProxyVolume
FJa:__Z18CreateDecompressor15CompressionType18MemLabelIdentifier
WU:__ZN11AudioModule16SetListenerPauseEb
Sh:_emscripten_glCompressedTexSubImage2D
Jva:__ZN13GfxDeviceGLES22MemoryBarrierImmediateEyN2gl17MemoryBarrierTypeE
Vfa:__ZZN18SpriteAtlasManagerC1EvEN46EarlyUpdateSpriteAtlasManagerUpdateRegistrator7ForwardEv
pta:__ZN6prcoreL26RemapGenericFloatToIntegerI18TexFormatARGBFloat17TexFormatARGB8888EEvPKNS_9InnerInfoE
Tic:__Z46GetShaderModelNumericValueFromRequirementsMask18ShaderRequirements
y0c:_cff_ps_has_glyph_names
ayh:_Transform_1_EndInvoke_m1025924012_gshared
Iof:_ReadOnlyCollection_1_System_Collections_Generic_ICollectionU3CTU3E_get_IsReadOnly_m2873538493_gshared
Ybi:_PatternCompiler_EmitPosition_m3013268572
UMf:_X509SubjectKeyIdentifierExtension__ctor_m1109455121
TQi:__ZL24UnresolvedVirtualCall_45P12Il2CppObject19DateTime_t693205669PK10MethodInfo
jHd:_Graphic_CreateColorFromAlpha_m2614574534
w0f:_UnicodeEncoding_GetHashCode_m2443440683
Duc:__Z44Register_UnityEngine_GUIStyle_SetDefaultFontv
Rfg:_GenericTypeParameterBuilder_GetPropertyImpl_m3566422383
mDb:__Z18Transfer_BlittableI18StreamedBinaryReadILb1EELb1EiEvRK29SerializationCommandArgumentsR31RuntimeSerializationCommandInfo
HE:__ZN9BlobWrite8TransferI22OffsetPtrArrayTransferIKN4math7_float3EEEEvRT_PKc17TransferMetaFlags
cnd:_TripleDES_IsWeakKey_m483013953
jzh:_Enumerator__ctor_m3819430617_AdjustorThunk
chj:__ZN15dense_hashtableINSt3__24pairIK10KeyWrapperINS1_IPK12PropertyInfoP11Il2CppClassEEEjEES9_17ReflectionMapHashIS8_EN14dense_hash_mapIS9_jSD_NS9_14EqualsComparerINS0_8equal_toIS8_EEEENS0_9allocatorISB_EEE9SelectKeyESI_SK_E12maybe_shrinkEv
udh:__Z75RuntimeInvoker_RuntimeObject_RuntimeObject_Single_t2076509932_RuntimeObjectPFvvEPK10MethodInfoPvPS4_
NDb:__Z18Transfer_BlittableI18StreamedBinaryReadILb1EELb1EsEvRK29SerializationCommandArgumentsR31RuntimeSerializationCommandInfo
olh:__Z54RuntimeInvoker_Void_t1841601450_ColorBlock_t2652774230PFvvEPK10MethodInfoPvPS4_
Dqd:_Single_System_IConvertible_ToSByte_m3757385387
zAi:_Vector3_get_forward_m1316319684
CPe:_StreamAsyncResult_SetComplete_m2141125667
y4a:__ZL21SetAnisoLimitEnumImplN7Texture20AnisotropicFilteringEb
T9c:__ZN22BaseUnityConnectClient17OnEnterStateReadyEv
g6:__Z21GetManagerFromContexti
gRa:__ZN14GrowableBufferD2Ev
KJi:_GUIStyle_get_stretchWidth_m813991504
inc:__Z29Input_CUSTOM_GetMouseButtonUpi
_8i:__ZN6il2cpp6icalls8mscorlib6System8MonoType16InternalGetEventEP20Il2CppReflectionTypeP12Il2CppStringi
g8f:_UInt32_System_IConvertible_ToUInt32_m1257480358_AdjustorThunk
Lrh:__Z55RuntimeInvoker_CustomAttributeTypedArgument_t1498197914PFvvEPK10MethodInfoPvPS4_
i2f:_Interlocked_CompareExchange_m3339239614
qWc:_UNITY_tt_face_load_maxp
wnc:__Z46Input_CUSTOM_INTERNAL_set_compositionCursorPosRK13Vector2fIcall
Yw:__ZN7mecanim5human12FullBodyMaskEv
uCg:__ZL98Activator_t1850728717_CustomAttributesCacheGenerator_Activator_CreateInstance_m1465989661____args1P21CustomAttributesCache
rAi:_Transform_set_position_m2942701431
bbb:__ZN19ShaderPropertySheet11ComputeHashEv
r3i:__ZN30dense_hashtable_const_iteratorI10KeyWrapperIPK19Il2CppGenericMethodES4_N6il2cpp8metadata23Il2CppGenericMethodHashEN14dense_hash_setIS4_S7_NS4_14EqualsComparerINS6_26Il2CppGenericMethodCompareEEENSt3__29allocatorIS4_EEE8IdentityESB_SE_EppEv
SKc:__ZN12b2EPCollider24ComputePolygonSeparationEv
JEb:__ZN4PPtrI6ObjectE8TransferI18StreamedBinaryReadILb1EEEEvRT_
b_:__ZN11UnityEngine15CloudWebService20WebRequestRestClient6IsDoneEv
YCd:_ColorTween_get_tweenMode_m2919867230_AdjustorThunk
Oi:_llvm_fabs_f32
GBd:_CanvasScaler_HandleScaleWithScreenSize_m80056230
myh:_Transform_1_EndInvoke_m687617772_gshared
GZ:__ZN11UnityEngine15CloudWebService16SessionContainer16GetJsonDataBlockEjRKN4core12basic_stringIcNS2_20StringStorageDefaultIcEEEERS6_PjSA_
SXf:_SByte_System_IConvertible_ToUInt64_m2174352876_AdjustorThunk
ts:__ZN7mecanim9animation18ClipMuscleConstant8TransferI14SafeBinaryReadEEvRT_
cgg:_GenericTypeParameterBuilder_get_AssemblyQualifiedName_m902593295
_ij:__ZN15dense_hashtableINSt3__24pairIK10KeyWrapperIPK14Il2CppAssemblyEPK22Il2CppMonoAssemblyNameEES6_N6il2cpp5utils11PointerHashIS4_EEN14dense_hash_mapIS6_SA_SF_NS6_14EqualsComparerINS0_8equal_toIS5_EEEENS0_9allocatorISB_EEE9SelectKeyESK_SM_E13set_empty_keyERKSB_
V0f:_UTF7Encoding_InternalGetBytes_m2772055844
pIh:_EqualityComparer_1__ctor_m831468288_gshared
DBh:_Dictionary_2_System_Collections_IDictionary_set_Item_m2290664072_gshared
l9g:__Z76RuntimeInvoker_Void_t1841601450_Int64_t909078037_ResourceInfoU26_t3126209420PFvvEPK10MethodInfoPvPS4_
Fve:_SimpleCollator__cctor_m2693747668
Z8d:_Decimal_CompareTo_m2454501434_AdjustorThunk
k7:__ZN14SafeBinaryReadD2Ev
P6f:_UInt16_System_IConvertible_ToChar_m4055364664
X7b:__Z13RegisterClassI7TextureEvv
mfi:_ExpressionCollection_OnValidate_m1703610065
lue:_Component_GetComponentInChildren_TisRuntimeObject_m2461586036_gshared
bFb:__ZN8Gradient8TransferI18StreamedBinaryReadILb1EEEEvRT_
yyh:_Enumerator_Dispose_m2369319718_AdjustorThunk
XDg:__ZL79Convert_t2607082565_CustomAttributesCacheGenerator_Convert_ToUInt16_m3991499696P21CustomAttributesCache
u8f:_UInt32_ToString_m554020223_AdjustorThunk
jbf:_Enumerator_Dispose_m1520016780_AdjustorThunk
Rmi:_GameObject_SendMessage_m3423113156
Epj:__ZN6il2cpp6icalls8mscorlib6System4Type15MakeGenericTypeEP20Il2CppReflectionTypeP11Il2CppArray
nj:_SDL_PauseAudio
xaj:_il2cpp_class_from_type
VPd:_Array_Sort_m2323017822
kMh:_Scrollbar_UpdateDrag_m3839695926
T4:__ZN9ShaderLab19CommonPropertyNames16StaticInitializeEPv
nUe:_MissingMemberException__ctor_m3710131950
uib:__ZN13MemoryManager31DisallowAllocationsOnThisThreadEv
Avi:_Ray_get_direction_m4136268940_AdjustorThunk
JG:__ZN7mecanim9animation18CreateAvatarOutputEPKNS0_14AvatarConstantEbbRNS_6memory9AllocatorE
Dfh:__Z91RuntimeInvoker_Void_t1841601450_RuntimeObject_Int32_t2071877448_RuntimeObject_RuntimeObjectPFvvEPK10MethodInfoPvPS4_
RYf:_CspParameters__ctor_m2546931874
WS:__ZN11AudioSource23VirtualRedirectTransferER24GenerateTypeTreeTransfer
Rfc:__ZN7Texture11SetWrapModeE15TextureWrapMode
U6a:__ZN14Texture2DArray23VirtualRedirectTransferER14SafeBinaryRead
iWb:__ZNK6Camera21CalculateCanDoShadowsEv
oEh:_Dictionary_2_make_pair_m2631942124_gshared
nHd:_Graphic__cctor_m1643894470
oyj:__ZN6il2cpp2os6Thread12SetStackSizeEj
G3g:__Z99RuntimeInvoker_Void_t1841601450_Int32_t2071877448_RuntimeObject_Int32_t2071877448_Int32_t2071877448PFvvEPK10MethodInfoPvPS4_
DKf:_X509ChainElementEnumerator_get_Current_m2232618221
Pki:_DebugLogHandler_LogFormat_m2866699703
f9g:__Z54RuntimeInvoker_CallingConventions_t1097349142_IntPtr_tPFvvEPK10MethodInfoPvPS4_
cBd:_U3COnFinishSubmitU3Ec__Iterator0_Reset_m2080388334
Kfc:__ZNK8Renderer16IsVisibleInSceneEv
CNh:_ScrollRect_set_onValueChanged_m3957749575
X2:__Z13VFormatBufferPciPKcz
iGb:__Z18Transfer_BlittableI18StreamedBinaryReadILb0EELb1EhEvRK29SerializationCommandArgumentsR31RuntimeSerializationCommandInfo
oWi:_U3CCreateWhereIteratorU3Ec__Iterator1D_1_Dispose_m1879652802_gshared
vwg:__ZL90SafeHandle_t2733794115_CustomAttributesCacheGenerator_SafeHandle_get_IsInvalid_m3910183075P21CustomAttributesCache
gJd:_Image_GenerateSimpleSprite_m4275440988
E7f:_UInt16_ToString_m3280699191
tta:__ZN6prcoreL27StretchGenericFloatBilinearI15TexFormatRFloatEEvPKNS_9InnerInfoE
gKj:_PersoController2_Start_m114850156
uxg:__ZL62IDynamicMessageSink_t3056162262_CustomAttributesCacheGeneratorP21CustomAttributesCache
Ghe:_Array_InternalArray__IEnumerable_GetEnumerator_TisBoolean_t3825574718_m798244337_gshared
b7e:_List_1_CopyTo_m158925060_gshared
Nz:__Z24ProcessAnimationMixBeginP35AnimationPlayableEvaluationConstantP32AnimationPlayableEvaluationInputP33AnimationPlayableEvaluationOutput
Hje:_Array_IndexOf_TisCustomAttributeNamedArgument_t94157543_m745056346_gshared
wqa:__Z14PadImageBorderR14ImageReferenceii
Hfj:__ZN15dense_hashtableINSt3__24pairIK10KeyWrapperINS1_IPK10MethodInfoP11Il2CppClassEEEjEES9_17ReflectionMapHashIS8_EN14dense_hash_mapIS9_jSD_NS9_14EqualsComparerINS0_8equal_toIS8_EEEENS0_9allocatorISB_EEE9SelectKeyESI_SK_E4findERSA_
v6i:__ZN6il2cpp2vm13MetadataCache28GetFieldDefaultValueForFieldEPK9FieldInfo
cTh:_ArrayReadOnlyList_1_ReadOnlyError_m2289309720_gshared
pA:__ZN27AnimationLayerMixerPlayableD2Ev
m9i:__ZN6il2cpp2vm8basepathEPKc
$Fh:_DefaultComparer_GetHashCode_m320514092_gshared
Iuf:_PKCS1_Verify_v15_m478274703
iLg:__ZL99Input_t1785128008_CustomAttributesCacheGenerator_Input_INTERNAL_set_compositionCursorPos_m144787813P21CustomAttributesCache
pP:__ZN12AudioManager39HandlePendingAudioConfigurationCallbackEv
F6g:__Z119RuntimeInvoker_Int32_t2071877448_RuntimeObject_RuntimeObject_Int32_t2071877448_Int32_t2071877448_BooleanU26_t3168250738PFvvEPK10MethodInfoPvPS4_
jk:_emscripten_glIsFramebuffer
MNa:__ZN12_GLOBAL__N_16qAtan2Eff
x3d:_Convert_ToInt64_m954367741
TSi:__ZL25UnresolvedVirtualCall_153P12Il2CppObject40CustomAttributeTypedArgument_t1498197914S1_PK10MethodInfo
nk:_JS_Sound_SetLoopPoints
UUd:_ArrayList__ctor_m1467563650
gU:__ZN12AudioManager17ShouldSourcePauseEb
hGj:__ZN6il2cpp2vm26MetadataAllocGenericMethodEv
Zya:__ZN19ConstantBuffersGLES12RecordRenderEv
Zxc:__ZN9JSONWrite8TransferI10RectOffsetEEvRT_PKc17TransferMetaFlags
bqa:__ZN4crnd12symbol_codec11decode_bitsEj
dLc:__ZN15b2CircleContact8EvaluateEP10b2ManifoldRK11b2TransformS4_
Yqe:_Array_Sort_TisRaycastResult_t21186376_TisRaycastResult_t21186376_m38820193_gshared
xdc:__ZN21FixedBehaviourManagerD0Ev
DKg:__ZL84RectOffset_t3387826427_CustomAttributesCacheGenerator_RectOffset_set_top_m1587840032P21CustomAttributesCache
dRg:__ZL55RaycastHit2D_t4063908774_CustomAttributesCacheGeneratorP21CustomAttributesCache
hsi:_PKCS12_EncryptedContentInfo_m938119256
OOe:_StreamReader__ctor_m3454466728
tP:__ZN4FMOD6System12createReverbEPPNS_6ReverbE
exi:_RectTransform_get_anchorMin_m3466802567
gA:__ZN7mecanim19ValueArrayBlendNodeILb1EEEvRKNS_10ValueArrayERKNS_14ValueArrayMaskERS1_RS4_RNS_16ValueArrayWeightEf
wib:__Z16MarkDependenciesR27GarbageCollectorThreadStatej
vMf:_X509ChainElementEnumerator_Reset_m3832280427
KVg:__ZL75EventSystem_t3466835263_CustomAttributesCacheGenerator_U3CU3Ef__mgU24cache0P21CustomAttributesCache
tWe:_MulticastDelegate_RemoveImpl_m2024746777
QBd:_CanvasUpdateRegistry_ParentCount_m2367607495
nWe:_MulticastDelegate_Equals_m3064081489
OEe:_Activator_CreateInstance_m1465989661
Rga:__ZNK9Transform11GetPositionEv
Jfi:_PositionAssertion_GetWidth_m2294218483
UTa:__ZN23SharedMeshRenderingData18UnloadVertexStreamEi
Ndc:__ZN31CanvasBatchIntermediateRenderer11AddSubBatchERK16DrawBuffersRangePK19ShaderPropertySheet
C5g:__Z99RuntimeInvoker_Void_t1841601450_RuntimeObject_Int32_t2071877448_Int32_t2071877448_Int32_t2071877448PFvvEPK10MethodInfoPvPS4_
vcc:__ZN19RenderEventsContextC2Ei
UX:__Z6simd4fRKf
ene:_Array_InternalArray__ICollection_CopyTo_TisColor32_t874517518_m379086718_gshared
aQh:_Slider_ClampValue_m2851810895
Rk:_emscripten_glEnable
duj:__ZN6il2cpp2gc16GarbageCollector29RegisterFinalizerForNewObjectEP12Il2CppObject
nMa:__ZN10TagManager23VirtualRedirectTransferER14SafeBinaryRead
G6h:_MarshalAsAttribute__ctor_m1892084128
MVc:_UNITY_FT_Init_Class_ft_grays_raster
Gda:__ZN14PlayableOutput26ClearInvalidSourcePlayableEv
XYb:__Z15InitLightMeshesv
qCg:__ZL97WaitHandle_t677569169_CustomAttributesCacheGenerator_WaitHandle_t677569169____Handle_PropertyInfoP21CustomAttributesCache
NXe:_KeyValuePair_2_ToString_m1391611625_AdjustorThunk
Dn:FUNCTION_TABLE_iifiii
v5e:_List_1_Sort_m4156683373_gshared
B2d:_Double_Parse_m1617409931
KVi:_Comparison_1_BeginInvoke_m4056757384_gshared
p4a:__ZN15QualitySettings8TransferI19StreamedBinaryWriteILb0EEEEvRT_
T1e:_List_1_System_Collections_Generic_IEnumerableU3CTU3E_GetEnumerator_m1503548298_gshared
zBb:__Z18Transfer_BlittableI19StreamedBinaryWriteILb0EELb1E8Vector2fEvRK29SerializationCommandArgumentsR31RuntimeSerializationCommandInfo
C_c:_cf2_arrstack_init
$vg:__ZL65ClassInterfaceAttribute_t910653559_CustomAttributesCacheGeneratorP21CustomAttributesCache
Vdj:__ZN15dense_hashtableINSt3__24pairIK10KeyWrapperINS1_IPK14Il2CppAssemblyP11Il2CppClassEEEjEES9_17ReflectionMapHashIS8_EN14dense_hash_mapIS9_jSD_NS9_14EqualsComparerINS0_8equal_toIS8_EEEENS0_9allocatorISB_EEE9SelectKeyESI_SK_E15insert_noresizeERKSB_
O1:__Z15CleanLogHandler7LogTypePKcz
Nmb:__ZN9ShaderLab19SerializedSubShader8TransferI19StreamedBinaryWriteILb0EEEEvRT_
PO:__ZN14AudioBehaviour15ThreadedCleanupEv
A0f:_UTF32Encoding_GetBytes_m2290150495
tJb:__ZN6Camera17RemoveImageFilterERK11ImageFilter
Xua:__ZNSt3__218__insertion_sort_3IR25ValueParameterArraySorterPN20GpuProgramParameters14ValueParameterEEEvT0_S6_T_
IGc:__ZN10ClipperLib7Clipper27ProcessEdgesAtTopOfScanbeamEx
Thh:__Z74RuntimeInvoker_Boolean_t3825574718_HitInfo_t1761367055_HitInfo_t1761367055PFvvEPK10MethodInfoPvPS4_
i7c:__ZZN2UI11CanvasGroup15InitializeClassEvEN38FunctorImpl_117kTransformParentChanged4CallEPviR11MessageData
RIh:_LayoutUtility_GetLayoutProperty_m4052007472
Rxa:__ZNSt3__214__split_bufferI20ComputeShaderVariantRNS_9allocatorIS1_EEED2Ev
RRi:__ZL24UnresolvedVirtualCall_97P12Il2CppObjectS0_iS0_iPK10MethodInfo
EGb:__Z18Transfer_BlittableI18StreamedBinaryReadILb0EELb1E9BoundsIntEvRK29SerializationCommandArgumentsR31RuntimeSerializationCommandInfo
izf:_Context_set_WriteSequenceNumber_m3356252710
nBj:__ZN6il2cpp2vm13ManagedObject7GetIidsEPjPP10Il2CppGuid
Y6c:__ZN2UI26InitializeDeviceForOverlayEi
SHe:_Guid_Equals_m2389236871
N3:__Z27LogRepeatingStringWithFlagsRKN4core12basic_stringIcNS_20StringStorageDefaultIcEEEE15LogMessageFlagsi
C_e:_Enumerator_MoveNext_m3483405135_gshared
yx:__ZN17AnimationPlayable28ComputeNeedsBindingRebuildedEv
Ew:__ZN17AnimationPlayable23RequestAllocateBindingsEv
Y2h:_DefaultComparer__ctor_m2859550749_gshared
Lle:_Array_InternalArray__ICollection_Add_TisMonoResource_t3127387157_m2070096275_gshared
H$e:_List_1_CheckIndex_m3609163576_gshared
ZJj:_HealthPerso1Script_Start_m3531544672
TMg:__ZL62PlayableOutputHandle_t551742311_CustomAttributesCacheGeneratorP21CustomAttributesCache
$Rb:__ZNSt3__227__insertion_sort_incompleteIRPFbP10GUIElementS2_EPS2_EEbT0_S7_T_
dKf:_X509ExtensionCollection__ctor_m1324282194
Ncd:__ZN18UnityConnectClient33OnPlayerSessionStateChangedStaticEPS_jyy
ZL:__ZN25RuntimeAnimatorController12CleanupClassEv
Vrg:__ZL74CaseInsensitiveHashCodeProvider_t2307530285_CustomAttributesCacheGeneratorP21CustomAttributesCache
v9f:_UIntPtr__ctor_m3900568171_AdjustorThunk
RUg:__ZL103UISystemProfilerApi_t845863050_CustomAttributesCacheGenerator_UISystemProfilerApi_EndSample_m3264820872P21CustomAttributesCache
L_:__ZNK11UnityEngine15CloudWebService23WebRequestUploadHandler11GetProgressEv
$ma:__ZN7ApiGLES4LoadE16GfxDeviceLevelGL
l2a:__ZN18StreamedBinaryReadILb0EE21TransferSTLStyleArrayI13dynamic_arrayI31EnlightenSystemAtlasInformationLj8EEEEvRT_17TransferMetaFlags
Wpa:__ZN4crnd12crn_unpacker22decode_color_endpointsEv
ktj:__ZN15dense_hashtableI10KeyWrapperIP18Il2CppGenericClassES3_N6il2cpp8metadata22Il2CppGenericClassHashEN14dense_hash_setIS3_S6_NS3_14EqualsComparerINS5_25Il2CppGenericClassCompareEEENSt3__29allocatorIS3_EEE8IdentityESA_SD_E15insert_noresizeERKS3_
Ylf:_ReadOnlyCollection_1_System_Collections_IList_Clear_m3006875897_gshared
Cbc:__ZZL31RegisterOtherRendererPropertiesR22GenericPropertyBindingEN30Wrapper_RendererReceiveShadows13GetFloatValueEPv
s7g:__Z130RuntimeInvoker_Void_t1841601450_RuntimeObject_Int32U26_t455636984_ByteU26_t1147306860_Int32U26_t455636984_ByteU5BU5DU26_t790777611PFvvEPK10MethodInfoPvPS4_
U_e:_Enumerator_System_Collections_IEnumerator_get_Current_m3866069145_gshared
Swe:_PreviousInfo_t581002487_marshal_pinvoke_cleanup
FMb:__ZN8Material11SetPassFastEPN9ShaderLab4PassER17ShaderPassContextP6Shaderib
O4a:__ZNK13ScreenManager13GetLockCursorEv
Lcd:__ZN11UnityEngine7Connect20BasePersistentValues10SaveValuesER9JSONWrite
sPi:_AudioListener_AddExtension_m2954727157
Rwd:_ExecuteEvents_get_pointerDownHandler_m1172742772
ILc:__ZNSt3__27__sort4IR24RayHitsByDepthComparitorP12RaycastHit2DEEjT0_S5_S5_S5_T_
_gc:__Z14ScaleCurveTimeR17AnimationCurveTplIfEf
Oba:__ZN22VirtualJoystickManagerC2Ev
eTb:__Z12SetupLODFadeR9GfxDeviceR17ShaderPassContextf
z_a:__ZNK14PlayableOutput7GetTypeEv
pKc:__ZN26b2PolygonAndCapsuleContact6CreateEP9b2FixtureiS1_iP16b2BlockAllocator
L6g:__Z203RuntimeInvoker_Boolean_t3825574718_RuntimeObject_Int32U26_t455636984_Int32_t2071877448_Int32_t2071877448_RuntimeObject_SByte_t454417549_Int32_t2071877448_ContractionU26_t2019974048_ContextU26_t3131521781PFvvEPK10MethodInfoPvPS4_
KYb:__ZL24CollectForwardObjectsJobP27CollectForwardObjectsHeader
tuh:_Enumerator_System_Collections_IDictionaryEnumerator_get_Entry_m345330700_gshared
O5i:__ZNK15dense_hashtableINSt3__24pairIK10KeyWrapperIPK11Il2CppClassEPKcEES6_N6il2cpp5utils11PointerHashIS3_EEN14dense_hash_mapIS6_S9_SE_NS6_14EqualsComparerINS0_8equal_toIS5_EEEENS0_9allocatorISA_EEE9SelectKeyESJ_SL_E12test_deletedERK24dense_hashtable_iteratorISA_S6_SE_SN_SJ_SL_E
Dzg:__ZL53HMACSHA256_t2622794722_CustomAttributesCacheGeneratorP21CustomAttributesCache
h0b:__ZNK25CameraStackRenderingState24ResolveTempToEyeTexturesEv
H_b:__Z13IsNodeVisibleRK9SceneNodeRK4AABBRK22SceneCullingParameters
Wig:_EventInfo__ctor_m1190141300
WUh:_InternalEnumerator_1_MoveNext_m3585886944_gshared
R8c:__Z57RectTransformUtility_CUSTOM_INTERNAL_CALL_PixelAdjustRectP12Il2CppObjectS0_R5RectTIfE
F$b:__Z24ScheduleCullingAllGroupsR8JobFenceRK22SceneCullingParametersiRK13CullingOutputRK13dynamic_arrayIP12CullingGroupLj4EERKS_
zUf:_DelayedFixupRecord_FixupImpl_m4249966635
zZj:_emscripten_glStencilMask__wrapper
h3i:__ZN15dense_hashtableI10KeyWrapperIPK19Il2CppGenericMethodES4_N6il2cpp8metadata23Il2CppGenericMethodHashEN14dense_hash_setIS4_S7_NS4_14EqualsComparerINS6_26Il2CppGenericMethodCompareEEENSt3__29allocatorIS4_EEE8IdentityESB_SE_EC2ERKSH_j
pxe:_BigInteger_ToString_m3837784224
X8d:_Decimal_decimalCompare_m26009298
sHa:__ZNK17ArchiveFileSystem8PositionERK13FileEntryData
YPc:__ZN16NovodexAllocator8allocateEjPKcS1_i
jae:_DllNotFoundException__ctor_m267198482
jYb:__Z17PrepareShadowMapsRK11CullResultsRK11ActiveLightRK10MinMaxAABB
b_g:__ZL81U3CMouseDragOutsideRectU3Ec__Iterator1_t2599668326_CustomAttributesCacheGeneratorP21CustomAttributesCache
X1f:_NativeEventCalls_CreateEvent_internal_m1605829321
z0e:_List_1_GetIndex_m3409004147_gshared
mOg:__ZL73RuntimePlatform_t1869584967_CustomAttributesCacheGenerator_MetroPlayerX64P21CustomAttributesCache
nQi:__ZL24UnresolvedVirtualCall_13P12Il2CppObjectaPK10MethodInfo
OYh:_InternalEnumerator_1_System_Collections_IEnumerator_get_Current_m3239681450_AdjustorThunk
Ckb:__ZNSt3__26vectorIN9ShaderLab20SerializedSubProgram15VectorParameterENS_9allocatorIS3_EEEC2ERKS6_
HYb:__ZN9ShaderLab10GrabPassesD2Ev
d7a:__ZN14Texture2DArray13UploadTextureEv
Rpd:_SecurityFrame_t1002202659_marshal_pinvoke
$Xc:_tt_cmap14_done
ngb:__ZN18AwakeFromLoadQueue25RegisterObjectInstanceIDsEv
gJg:__ZL75Camera_t189460977_CustomAttributesCacheGenerator_Camera_get_main_m881971336P21CustomAttributesCache
lSd:_Buffer_BlockCopy_m1586717258
bzg:__ZL93X509Certificate_t283079845_CustomAttributesCacheGenerator_X509Certificate_GetName_m2354987368P21CustomAttributesCache
uA:__ZNK27AnimationLayerMixerPlayable11DerivesFromE17ScriptingClassPtr
aSc:__ZN20TextRenderingPrivate19NativeTextGenerator15InsertCharacterEiPj
SWh:_InternalEnumerator_1__ctor_m3589241961_AdjustorThunk
Ade:_CompareInfo_GetSortKey_m3691382873
fVh:_InternalEnumerator_1_MoveNext_m1791963761_AdjustorThunk
pEc:__ZN11b2RopeJoint24SolveVelocityConstraintsERK12b2SolverData
T7d:_DBNull_ToString_m3228904745
pIf:_WebHeaderCollection_AddWithoutValidate_m1479880592
l_i:_Physics2D_Raycast_m608778191
Fld:_SHA1Managed_HashCore_m2658295635
bz:__ZN17AnimationPlayableD0Ev
Zuf:_RC4_get_IV_m506011366
vti:_X509Crl__ctor_m2469408229
rCb:__Z18Transfer_BlittableI19StreamedBinaryWriteILb0EELb0EyEvRK29SerializationCommandArgumentsR31RuntimeSerializationCommandInfo
nwg:__ZL82SafeHandle_t2733794115_CustomAttributesCacheGenerator_SafeHandle_Close_m1146946803P21CustomAttributesCache
Guh:_Enumerator_get_CurrentValue_m3562053380_AdjustorThunk
FQg:__ZL96Physics2D_t2540166467_CustomAttributesCacheGenerator_Physics2D_Linecast_m3759968983____maxDepth4P21CustomAttributesCache
_Mf:_X509SubjectKeyIdentifierExtension_CopyFrom_m136762226
$Pg:__ZL86Logger_t3328995178_CustomAttributesCacheGenerator_Logger_get_filterLogType_m3137240955P21CustomAttributesCache
aZe:_Enumerator_System_Collections_IEnumerator_Reset_m610822832_AdjustorThunk
btf:_ASN1_get_Length_m778823697
WTc:__ZN20TextRenderingPrivate15DynamicFontData21GetFontMetricsForFaceERK13dynamic_arrayIN4core17string_with_labelILi35EEELj4EEiRKS1_I4PPtrIN13TextRendering4FontEELj4EEPfSF_
WSc:_UNITY_FT_Open_Face
qVj:_glGenRenderbuffers__wrapper
kye:_BigInteger_op_Division_m1581119694
NVf:_CallbackHandler_Invoke_m1498072969
ahd:_DSACryptoServiceProvider__ctor_m701823690
pqh:__Z74RuntimeInvoker_Void_t1841601450_Int32_t2071877448_ResourceInfo_t3933049236PFvvEPK10MethodInfoPvPS4_
jcg:_CustomAttributeData_GetCustomAttributes_m2421330738
uCf:_SecurityParameters_set_ClientWriteMAC_m1970377285
$Ui:_TextGenerator_GetVerticesInternal_m514005870
_rj:__ZN30dense_hashtable_const_iteratorINSt3__24pairIK10KeyWrapperINS1_IPKcS4_EEEiEES6_24NamespaceAndNamePairHashN14dense_hash_mapIS6_iS9_NS6_14EqualsComparerI26NamespaceAndNamePairEqualsEENS0_9allocatorIS8_EEE9SelectKeyESD_SF_EppEv
z5f:_Type_get_IsEnum_m313908919
zlc:__Z44Register_UnityEngine_Component_get_transformv
o7e:_List_1_Reverse_m3395936565_gshared
sef:_Collection_1_System_Collections_ICollection_CopyTo_m1335644572_gshared
LF:__ZN12_GLOBAL__N_120ProcessPlayableGraphERN8Animator11AnimatorJobER35AnimationPlayableEvaluationConstantR32AnimationPlayableEvaluationInputR33AnimationPlayableEvaluationOutputPFvS4_R17AnimationPlayableEPFvS4_S6_S8_EPFvS8_S4_S6_S8_fESE_MS9_FvPS3_PS5_PS7_E
j5e:_List_1_CheckMatch_m2830747427_gshared
ROb:__ZN17ArchiveFileSystem12MountArchiveEPKcS1_
W9d:_StackFrame_GetMethod_m72881026
cxc:__Z18Transfer_BlittableI9JSONWriteLb1E8Vector4fEvRK29SerializationCommandArgumentsR31RuntimeSerializationCommandInfo
zn:FUNCTION_TABLE_viififiii
eNa:__Z30GetScriptableCullingParametersR6CameraR27ScriptableCullingParameters
ovh:_Enumerator_System_Collections_IEnumerator_Reset_m70453843_gshared
T2a:__ZThn32_NK8Renderer14GetSubsetIndexEi
q9g:__Z58RuntimeInvoker_Byte_t3683104436_IntPtr_t_Int32_t2071877448PFvvEPK10MethodInfoPvPS4_
gse:_Dictionary_2_Do_CopyTo_TisKeyValuePair_2_t1174980068_TisRuntimeObject_m3279061992_gshared
x$g:__ZL59Slider_t297367283_CustomAttributesCacheGenerator_m_MinValueP21CustomAttributesCache
nac:__ZN13ProduceHelperI15ResourceManagerLb0EE7ProduceE18MemLabelIdentifier18ObjectCreationMode
aka:__ZN9GfxDevice15ImmediateVertexEfff
E7b:__Z13RegisterClassI8MaterialEvv
wAg:__ZL51Evidence_t1407710183_CustomAttributesCacheGeneratorP21CustomAttributesCache
A1a:__ZNK16LightmapSettings22GetTypeVirtualInternalEv
kJi:_WindowFunction_BeginInvoke_m87819360
CRa:__ZN16GraphicsSettings13AwakeFromLoadE17AwakeFromLoadMode
Hce:_FieldAccessException__ctor_m3893881490
DBc:__ZN8JSONRead21TransferSTLStyleArrayI13dynamic_arrayItLj2EEEEvRT_17TransferMetaFlags
Zp:__ZN6Object13AwakeFromLoadE17AwakeFromLoadMode
xha:__ZN13GfxDeviceGLES15SetStencilStateEPK18DeviceStencilStatei
Ogh:__Z107RuntimeInvoker_Void_t1841601450_Single_t2076509932_Single_t2076509932_Single_t2076509932_Single_t2076509932PFvvEPK10MethodInfoPvPS4_
CLj:_cycle
DHg:__ZL72PKCS12_t1362584795_CustomAttributesCacheGenerator_U3CU3Ef__switchU24map5P21CustomAttributesCache
Hd:_emscripten_glUniform1iv
xRh:_Text_get_preferredHeight_m452532789
VJc:__ZN15b2DistanceProxy3SetEPK7b2Shapei
wrd:_String_System_IConvertible_ToDouble_m3860911722
Vrb:__ZN16MemoryFileSystemD2Ev
y1h:_InternalEnumerator_1_get_Current_m3732458101_AdjustorThunk
yCh:_Dictionary_2_System_Collections_Generic_ICollectionU3CSystem_Collections_Generic_KeyValuePairU3CTKeyU2CTValueU3EU3E_Contains_m842343255_gshared
rtf:_ARC4Managed__ctor_m2922048522
lSc:__Z17dynamic_pptr_castIP9Texture2D7TextureET_RK4PPtrIT0_E
Lmf:_ReadOnlyCollection_1_System_Collections_IList_set_Item_m1272038804_gshared
gUh:_InternalEnumerator_1_System_Collections_IEnumerator_get_Current_m1931522460_AdjustorThunk
cod:_SecurityPermission_IsEmpty_m1869313067
ilc:__Z37Register_UnityEngine_Camera_get_depthv
xBe:_EncryptedPrivateKeyInfo_get_Salt_m2734354394
Byi:_UsedByNativeCodeAttribute__ctor_m3185822159
Hof:_ReadOnlyCollection_1_System_Collections_Generic_IListU3CTU3E_set_Item_m1918537449_gshared
Hdf:_Collection_1_System_Collections_ICollection_CopyTo_m3896480607_gshared
xxd:_PointerEventData_set_position_m794507622
hmi:_UnityEvent_GetDelegate_m1261032859
d7b:__ZN15ApplicationInfo16GetInstallerNameEv
_4b:__Z23ConvertIntegerToTypePtrItEbPvR14SafeBinaryRead
nG:__ZN7mecanim5human29HumanGetGoalOrientationOffsetENS0_4GoalE
Yd:_emscripten_glStencilFunc
KWd:_SynchronizedArrayListWrapper_get_Capacity_m2541698837
gQi:__ZL23UnresolvedVirtualCall_6P12Il2CppObjectiPK10MethodInfo
$Eh:_DefaultComparer_GetHashCode_m3315096533_gshared
Alg:_MonoMethod_MakeGenericMethod_impl_m2063853616
Spd:__Z46il2cpp_codegen_get_marshal_directive_exceptionPKc
Ynb:__ZN9ShaderLab20SerializedSubProgram14AddMatrixParamEPKcii15ShaderParamTypei
ce:_glGetActiveUniformBlockName
aGd:_FontData_set_verticalOverflow_m4211463083
Nf:_emscripten_glUniform1fv
_He:_Guid_AppendByte_m2890893073
xTd:_Char_System_IConvertible_ToType_m3106771703_AdjustorThunk
bPf:_Interval_Intersects_m3480157390_AdjustorThunk
Pnc:__Z39Quaternion_CUSTOM_INTERNAL_CALL_InverseRK11QuaternionfRS_
q6h:_GCHandle_Alloc_m1063472408
nQ:__ZN4FMOD7Channel20set3DConeOrientationEP11FMOD_VECTOR
wXg:__ZL86StandaloneInputModule_t70867863_CustomAttributesCacheGenerator_m_InputActionsPerSecondP21CustomAttributesCache
qn:FUNCTION_TABLE_iiifii
SRg:__ZL54SkeletonBone_t345082847_CustomAttributesCacheGeneratorP21CustomAttributesCache
EYf:_CryptoConfig_CreateFromName_m391442950
tYi:_RectTransformUtility_INTERNAL_CALL_PixelAdjustRect_m3338747528
ovj:__ZN6il2cpp2vm12GenericClass11SetupEventsEP11Il2CppClass
W1c:_tt_delta_interpolate
UXc:_tt_cmap12_get_info
xFd:_U3CDelayedDestroyDropdownListU3Ec__Iterator0_Dispose_m3973609370
Tqj:__ZN6il2cpp2vm15ReboxIReferenceEP14Il2CppIUnknownP11Il2CppClass
mSe:_StreamWriter_LowLevelWrite_m4205372900
OYi:__ZN6il2cpp6icalls8mscorlib6System7Decimal14decimalCompareEP19il2cpp_decimal_reprS5_
rBj:__ZThn4_N6il2cpp2vm13CachedCCWBaseINS0_13ManagedObjectEE7ReleaseEv
Pjg:_Module__ctor_m3853650010
aYd:_CollectionBase_System_Collections_IList_get_Item_m2370387510
ryg:__ZL59RemotingException_t109604560_CustomAttributesCacheGeneratorP21CustomAttributesCache
Qqe:_Array_Sort_TisCustomAttributeNamedArgument_t94157543_m3436077809_gshared
CWj:_glCopyTexImage2D__wrapper
LMd:_LayoutElement__ctor_m789941073
GOc:__ZN16PhysicsManager2D11CreateWorldERK8Vector2f
Evg:__ZL68TargetInvocationException_t4098620458_CustomAttributesCacheGeneratorP21CustomAttributesCache
xFg:__ZL56RankException_t1539875949_CustomAttributesCacheGeneratorP21CustomAttributesCache
o2:__GLOBAL__sub_I_runtime_graphics_billboard_0_cpp
MMb:__Z18ClearByDrawingQuad13GfxClearFlagsRK10ColorRGBAffjR17ShaderPassContext
b9h:_DynamicPropertyCollection_FindProperty_m1233265924
Ssa:__ZN6prcoreL17RemapGenericFloatI14TexFormatRHalf15TexFormatRFloatEEvPKNS_9InnerInfoE
VSb:__Z16ShouldUseShadowsb
zda:__ZN15DirectorManager21RebuildStageCallbacksEv
ZMb:__ZN19RuntimeSceneManager9LoadSceneERKN4core12basic_stringIcNS0_20StringStorageDefaultIcEEEES6_S6_RK9UnityGUIDiNS_11LoadingModeE
FQi:__ZL24UnresolvedVirtualCall_31P12Il2CppObjectiS0_S0_PK10MethodInfo
_Ug:__ZL115CanvasRenderer_t261436805_CustomAttributesCacheGenerator_CanvasRenderer_INTERNAL_CALL_EnableRectClipping_m610385697P21CustomAttributesCache
aua:__ZN7ApiGLES10DrawArraysE16GfxPrimitiveTypejjj
NN:__ZN10SampleClip13LoadBaseSoundEv
Swi:_RectOffset_get_left_m1496351507
E9g:__Z49RuntimeInvoker_TimeSpan_t3430258949_RuntimeObjectPFvvEPK10MethodInfoPvPS4_
bX:__Z57AudioSource_CUSTOM_INTERNAL_CALL_ClearExtensionPropertiesP12Il2CppObjectRK12PropertyName
wv:__ZN7mecanim9animation4Clip8TransferI19StreamedBinaryWriteILb0EEEEvRT_
ruj:__ZN15dense_hashtableINSt3__24pairIK10KeyWrapperIP12Il2CppObjectEN6il2cpp2gc9CachedCCWEEES5_NS7_5utils11PointerHashIS3_EEN14dense_hash_mapIS5_S9_SD_NS5_14EqualsComparerINS0_8equal_toIS4_EEEENS0_9allocatorISA_EEE9SelectKeyESI_SK_E15insert_noresizeERKSA_
Chf:_Collection_1_Contains_m643401393_gshared
WZa:__ZN22DeviceMVPMatricesStateC2ER9GfxDevice
HMg:__ZL111Object_t1021602117_CustomAttributesCacheGenerator_Object_DestroyImmediate_m3250094537____allowDestroyingAssets1P21CustomAttributesCache
ord:_String__ctor_m372528291
$m:FUNCTION_TABLE_iifii
x5a:__ZNSt3__26vectorI13dynamic_arrayI8Vector2fLj4EENS_9allocatorIS3_EEE6assignINS_11__wrap_iterIPS3_EEEENS_9enable_ifIXaasr21__is_forward_iteratorIT_EE5valuesr16is_constructibleIS3_NS_15iterator_traitsISC_E9referenceEEE5valueEvE4typeESC_SC_
H1a:__ZN21EnlightenSceneMapping8TransferI14SafeBinaryReadEEvRT_
p_f:_Encoding_SetFallbackInternal_m1682842442
jmi:_UnityEvent_FindMethod_Impl_m947332673
cGa:__ZNSt3__26__treeIiNS_4lessIiEE13stl_allocatorIiL18MemLabelIdentifier1ELi16EEE7destroyEPNS_11__tree_nodeIiPvEE
lc:invoke_viiifi
QNg:__ZL139AttributeHelperEngine_t958797062_CustomAttributesCacheGenerator_AttributeHelperEngine_GetParentTypeDisallowingMultipleInclusion_m3087158272P21CustomAttributesCache
kVe:_LongComparer_Compare_m3981323622
i9i:__ZNSt3__214__split_bufferIP11Il2CppClassRNS_9allocatorIS2_EEEC2EjjS5_
FCd:_ContentSizeFitter_get_horizontalFit_m892469688
m1g:__ZL109LayoutUtility_t4076838048_CustomAttributesCacheGenerator_LayoutUtility_U3CGetFlexibleHeightU3Em__7_m947156537P21CustomAttributesCache
NAe:__ZN23InterfaceActionInvoker2IP8String_tP12Il2CppObjectE6InvokeEjP11Il2CppClassS3_S1_S3_
fHh:_EqualityComparer_1__cctor_m3033994022_gshared
dGa:__ZNK11AssetBundle14GetPreloadDataEiR13dynamic_arrayIiLj4EE
FCe:_EncryptedData_get_EncryptedContent_m2732115576
uMg:__ZL70Time_t31991979_CustomAttributesCacheGenerator_Time_get_time_m518788937P21CustomAttributesCache
MBi:_Vector3__ctor_m2761639014
mf:_JS_Sound_SetPosition
mdi:_Assertion_set_FalseExpression_m1781616372
WMf:_X509SubjectKeyIdentifierExtension_FromHexChars_m2515150420
dWa:__ZN19RenderBufferManager13GetTempBufferEii17DepthBufferFormat19RenderTextureFormatj22RenderTextureReadWrite14VRTextureUsagei23RenderTextureMemoryless
X5i:__ZL13GetSharedInstPK17Il2CppGenericInst
Hqg:__ZL51IReflect_t3412036974_CustomAttributesCacheGeneratorP21CustomAttributesCache
xzd:_StandaloneInputModule_SendSubmitEventToSelectedObject_m3421155293
mOc:__ZN13ProduceHelperI10Collider2DLb1EE7ProduceE18MemLabelIdentifier18ObjectCreationMode
ivi:_Quaternion_Equals_m798965363_AdjustorThunk
e_b:__Z17PrepareSceneNodesP11CullResults
uXi:_Canvas_get_sortingLayerID_m137448982
Pai:_CallContextRemotingData_Clone_m2226242476
J6:__Z63ThreadAndSerializationSafeCheckSetMonoBehaviourBeingTransferredP13MonoBehaviour
NYb:__Z24SetupActiveLightsContextR21ActiveLightingContextRK12ActiveLightsRK11CullResultsP14ShadowMapCacheRK10MinMaxAABB
nDh:_Dictionary_2_System_Collections_Generic_ICollectionU3CSystem_Collections_Generic_KeyValuePairU3CTKeyU2CTValueU3EU3E_Contains_m3400497673_gshared
rpc:__Z38Sprite_CUSTOM_INTERNAL_get_textureRectP12Il2CppObjectP5RectTIfE
Q7d:_DBNull_System_IConvertible_ToUInt32_m2681284284
Xt:__ZNSt3__26vectorIN13AnimationClip15QuaternionCurveE13stl_allocatorIS2_L18MemLabelIdentifier26ELi16EEE7reserveEj
Qic:__ZN9TextAsset7SetTextERKN4core12basic_stringIcNS0_20StringStorageDefaultIcEEEE
WPa:__ZN6Camera8TransferI24GenerateTypeTreeTransferEEvRT_
THh:_EqualityComparer_1__cctor_m416314417_gshared
Ja:invoke_iiiiiiif
Fa:invoke_iiiiiiii
nLf:_X509ChainElementCollection_Contains_m3599995067
e0b:__ZN8Renderer17PendingAddToSceneEv
u_j:b123
t_j:b122
w_j:b125
v_j:b124
y_j:b127
x_j:b126
A_j:b129
Hoc:__Z52Register_UnityEngine_RectTransform_INTERNAL_get_rectv
A5:__Z21PostprocessStacktracePKcRN4core12basic_stringIcNS1_20StringStorageDefaultIcEEEE
u6e:_List_1_ToArray_m2390522926_gshared
wwg:__ZL70TypeLibImportClassAttribute_t2390314680_CustomAttributesCacheGeneratorP21CustomAttributesCache
$db:__ZN18StreamedBinaryReadILb0EE21TransferSTLStyleArrayI13dynamic_arrayI16SplashScreenLogoLj4EEEEvRT_17TransferMetaFlags
snb:__ZNSt3__26vectorIPN9ShaderLab9SubShaderENS_9allocatorIS3_EEE21__push_back_slow_pathIKS3_EEvRT_
yge:_Array_InternalArray__ICollection_Remove_TisX509ChainStatus_t4278378721_m4127982424_gshared
slc:__Z47Register_UnityEngine_Camera_get_allCamerasCountv
NUg:__ZL92Canvas_t209405766_CustomAttributesCacheGenerator_Canvas_GetDefaultCanvasMaterial_m4265316988P21CustomAttributesCache
_gd:___clang_call_terminate
TB:__ZThn148_NK26AnimatorControllerPlayable24HasStateMachineBehaviourEv
cad:__ZN22BaseUnityConnectClient20StartEventDispatcherEv
ogc:__ZNSt3__26vectorIj13stl_allocatorIjL18MemLabelIdentifier1ELi16EEE6assignIPKtEENS_9enable_ifIXaasr21__is_forward_iteratorIT_EE5valuesr16is_constructibleIjNS_15iterator_traitsIS9_E9referenceEEE5valueEvE4typeES9_S9_
bF:__ZN7mecanim9animation16EvaluateAvatarIKEPKNS0_14AvatarConstantEPKNS0_11AvatarInputEPNS0_12AvatarOutputEPNS0_12AvatarMemoryEPNS0_15AvatarWorkspaceEb
Aua:__ZL25ProgramUniformMatrix4x3fvPK7ApiGLESjiihPKv
r4b:__Z29StdTemplateConversionFunctionIsiEbPvR14SafeBinaryRead
cQb:__ZN12InputManager13InputEndFrameEv
rFc:__ZN15b2RevoluteJointC2EPK18b2RevoluteJointDef
v8i:__ZNSt3__26__treeIP11Il2CppClassNS_4lessIS2_EENS_9allocatorIS2_EEE25__emplace_unique_key_argsIS2_JRKS2_EEENS_4pairINS_15__tree_iteratorIS2_PNS_11__tree_nodeIS2_PvEEiEEbEERKT_DpOT0_
Amj:__ZN6il2cpp2vm6Thread5SetupEP12Il2CppThread
Wpf:_ReadOnlyCollection_1_System_Collections_IList_Remove_m2200089035_gshared
Cdf:_Collection_1_CheckWritable_m2756357359_gshared
HMj:___munmap
eKd:_InputField_get_characterLimit_m2386380888
iYg:__ZL68ColorBlock_t2652774230_CustomAttributesCacheGenerator_m_PressedColorP21CustomAttributesCache
j3d:_Convert_ToInt64_m1722087499
dg:_localtime_r
xCg:__ZL81AppDomain_t2719102437_CustomAttributesCacheGenerator_assembly_resolve_in_progressP21CustomAttributesCache
iwg:__ZL65InterfaceTypeAttribute_t4113096249_CustomAttributesCacheGeneratorP21CustomAttributesCache
gg:_strftime
Swa:__ZN7Texture33SetStoredColorSpaceNoDirtyNoApplyE17TextureColorSpace
iaa:__ZN12FileAccessorD2Ev
ZPa:__ZN10ColorRGBAf8TransferI18StreamedBinaryReadILb0EEEEvRT_
gUa:__ZN14VertexDataInfoC2Ev
Dxj:__ZN6il2cpp2gc16GarbageCollector14CollectALittleEv
xXh:_InternalEnumerator_1_get_Current_m2415979394_gshared
AEb:__ZL17Transfer_GUIStyleI18StreamedBinaryReadILb1EELb1EEvRK29SerializationCommandArgumentsR31RuntimeSerializationCommandInfo
mNh:_ScrollRect_SetDirtyCaching_m1491302821
Q8i:__ZN6il2cpp6icalls8mscorlib6SystemL9IsPrivateEPK12PropertyInfo
kSg:__ZL122AudioListener_t1996719162_CustomAttributesCacheGenerator_AudioListener_INTERNAL_CALL_ReadExtensionPropertyName_m3421262708P21CustomAttributesCache
lcg:_CustomAttributeData_GetCustomAttributes_m3258419955
Loi:_Matrix4x4_GetColumn_m83396621
Q4:__ZN9shadertag10InitializeEv
gTb:__ZN13BatchRenderer20RenderSingleWithPassER17ShaderPassContextPK18SharedMaterialDataP6ShaderPN9ShaderLab4PassEiPKNS7_10GrabPassesEjib15BatchBreakCause
lrh:__Z71RuntimeInvoker_CustomAttributeNamedArgument_t94157543_Int32_t2071877448PFvvEPK10MethodInfoPvPS4_
FZf:_EncoderFallback__ctor_m1639180960
M2h:_InternalEnumerator_1_MoveNext_m1441038493_gshared
m4a:__ZN15QualitySettings14QualitySetting8TransferI24GenerateTypeTreeTransferEEvRT_
Tme:_Array_InternalArray__ICollection_CopyTo_TisParameterModifier_t1820634920_m4127516211_gshared
uZf:_DecoderReplacementFallback__ctor_m2344783488
CXe:_OutOfMemoryException__ctor_m239206850
Xyi:_Sprite_get_rect_m3985037234
zGd:_GraphicRegistry_UnregisterGraphicForCanvas_m820096873
v3c:__Z28Font_Get_Custom_PropMaterialP12Il2CppObject
OVg:__ZL65EventTrigger_t1967201810_CustomAttributesCacheGenerator_delegatesP21CustomAttributesCache
Ref:_Collection_1_Remove_m4136193368_gshared
jwd:_EventTrigger_OnPointerUp_m2791622548
brh:__Z60RuntimeInvoker_DictionaryEntry_t3048875398_Int32_t2071877448PFvvEPK10MethodInfoPvPS4_
vPh:_Shadow_set_useGraphicAlpha_m141905402
lfc:__ZN22BlockMemoryCacheWriter14LockCacheBlockEjPPhS1_
pyj:__ZN6il2cpp2os6Thread10RunWrapperEPv
Wsc:__ZNSt3__218__insertion_sort_3IRPFbPKN5IMGUI9GUIWindowES4_EPPS2_EEvT0_SA_T_
LNi:_GenericEqualityComparer_1_Equals_m1109000020_gshared
OTg:__ZL61GUISkin_t1436893342_CustomAttributesCacheGenerator_m_textAreaP21CustomAttributesCache
Sfg:_GenericTypeParameterBuilder_HasElementTypeImpl_m2592272488
OAc:__Z22TransferField_NonArrayI8JSONRead27Converter_SimpleNativeClassI8GUIStyleEEvRK23StaticTransferFieldInfoR31RuntimeSerializationCommandInfoRT0_
j3i:__ZN15dense_hashtableI10KeyWrapperIPK19Il2CppGenericMethodES4_N6il2cpp8metadata23Il2CppGenericMethodHashEN14dense_hash_setIS4_S7_NS4_14EqualsComparerINS6_26Il2CppGenericMethodCompareEEENSt3__29allocatorIS4_EEE8IdentityESB_SE_E16reset_thresholdsEv
q0e:__ZN23InterfaceActionInvoker2IP24ObjectU5BU5D_t3614634134iE6InvokeEjP11Il2CppClassP12Il2CppObjectS1_i
Mg:_llvm_eh_typeid_for
v7b:__Z13RegisterClassI10GameObjectEvv
o4i:__ZNK15dense_hashtableINSt3__24pairIK10KeyWrapperIN6il2cpp5utils13dynamic_arrayIPK10Il2CppTypeLj4EEEEPFvvEEESA_NS3_8metadata19Il2CppSignatureHashEN14dense_hash_mapISA_SD_SG_NSA_14EqualsComparerINSF_22Il2CppSignatureCompareEEENS0_9allocatorISE_EEE9SelectKeyESK_SM_E5beginEv
jsg:__ZL53HashValues_t2390200547_CustomAttributesCacheGeneratorP21CustomAttributesCache
ZJf:_X509BasicConstraintsExtension_get_PathLengthConstraint_m3004531343
OC:__ZNK23AnimationPlayableOutput7GetTypeEv
Vtg:__ZL125GenericTypeParameterBuilder_t1370236603_CustomAttributesCacheGenerator_GenericTypeParameterBuilder_GetConstructors_m103067670P21CustomAttributesCache
MKi:_GUIUtility_BeginGUI_m2381890998
tUe:_MissingMemberException__ctor_m4277447068
x0e:_List_1_Find_m1881447651_gshared
gGf:_NameValueCollection__ctor_m1767369537
PGb:__Z18Transfer_BlittableI18StreamedBinaryReadILb0EELb1E8Vector4fEvRK29SerializationCommandArgumentsR31RuntimeSerializationCommandInfo
TMi:_EqualityComparer_1__ctor_m3155445483_gshared
Nwj:__ZN6il2cpp2vm6Method8GetParamEPK10MethodInfoj
bMe:_Int64_CompareTo_m1953686218
gNi:_GenericComparer_1__ctor_m221205314_gshared
dlh:__Z31RuntimeInvoker_Axis_t2427050347PFvvEPK10MethodInfoPvPS4_
$Yj:_glBindVertexArray__wrapper
Pgd:_DSA_Create_m3450041777
iYa:__ZN8Material8TransferI14SafeBinaryReadEEvRT_
h$a:__ZN12CubemapArray17UploadToGfxDeviceEv
ONh:_ScrollRect_AdjustBounds_m1033723448
W2b:__ZN18ScreenManagerWebGL13SetShowCursorEb
yif:_Collection_1_get_Item_m3791221403_gshared
Nzg:__ZL54PaddingMode_t3032142640_CustomAttributesCacheGeneratorP21CustomAttributesCache
kmj:__ZN24dense_hashtable_iteratorINSt3__24pairIK10KeyWrapperIP11Il2CppClassES4_EES5_N6il2cpp8metadata16SZArrayClassHashEN14dense_hash_mapIS5_S4_SA_NS5_14EqualsComparerINS9_19SZArrayClassCompareEEENS0_9allocatorIS7_EEE9SelectKeyESE_SG_E30advance_past_empty_and_deletedEv
vba:__ZN13RuntimeStaticI21AssetReferenceStorageLb0EE16StaticInitializeEPv
lca:__ZN15dense_hashtableINSt3__24pairIKiiEEi21InstanceIDHashFunctorN14dense_hash_mapIiiS4_NS0_8equal_toIiEE13stl_allocatorIS3_L18MemLabelIdentifier67ELi16EEE9SelectKeyES7_SA_E14squash_deletedEv
LKf:_X509Chain_CheckRevocationOnChain_m2441901351
kBj:__ZN6il2cpp2vm13ManagedObject14QueryInterfaceERK10Il2CppGuidPPv
Lt:__ZNSt3__26vectorI24CompressedAnimationCurve13stl_allocatorIS1_L18MemLabelIdentifier26ELi16EEE6assignINS_11__wrap_iterIPS1_EEEENS_9enable_ifIXaasr21__is_forward_iteratorIT_EE5valuesr16is_constructibleIS1_NS_15iterator_traitsISB_E9referenceEEE5valueEvE4typeESB_SB_
b6f:_Type_GetMethod_m3650909507
jO:__ZN11AudioSource4StopEb
iLj:_frexp
uwb:__ZN14SafeBinaryRead21TransferSTLStyleArrayI13dynamic_arrayI10Matrix4x4fLj4EEEEvRT_17TransferMetaFlags
Dif:_Collection_1_CheckWritable_m732350052_gshared
LQa:__ZN15LODGroupManager26CollectAllLODGroupManagersERK16CoreCameraValuesR13dynamic_arrayIPS_Lj4EEb
ySd:_Byte_System_IConvertible_ToDecimal_m1036493607
oCg:__ZL47Timer_t791717973_CustomAttributesCacheGeneratorP21CustomAttributesCache
uMb:__Z25GetSplashScreenBackgroundRK5RectTIfE
EVh:_InternalEnumerator_1_System_Collections_IEnumerator_get_Current_m1679297177_gshared
pZg:__ZL65Image_t2042527209_CustomAttributesCacheGenerator_m_PreserveAspectP21CustomAttributesCache
i3h:_DefaultComparer_Compare_m1247109616_gshared
J4h:_ResourceManager__ctor_m498829021
Gza:__ZN18GlslGpuProgramGLESD2Ev
u2b:__ZN13RenderTexture14SetVolumeDepthEi
joh:__Z88RuntimeInvoker_Int32_t2071877448_UIVertex_t1204258818_UIVertex_t1204258818_RuntimeObjectPFvvEPK10MethodInfoPvPS4_
OVf:_SerializationCallbacks__ctor_m722356782
sBc:__ZN10Matrix4x4f8TransferI8JSONReadEEvRT_
_Qc:__ZN14SafeBinaryRead21TransferSTLStyleArrayI13dynamic_arrayIN4core17string_with_labelILi35EEELj4EEEEvRT_17TransferMetaFlags
ewi:_Rect_set_width_m2294291744
_Ic:__ZThn4_N16PhysicsManager2D9PostSolveEP9b2ContactPK16b2ContactImpulse
jwg:__ZL49Marshal_t785896760_CustomAttributesCacheGeneratorP21CustomAttributesCache
x6:__ZN17PersistentManager18ReadObjectThreadedEi
Sla:__ZN25TransformFeedbackSkinning31CleanupTransformFeedbackShadersEv
AQa:__Z22scripting_object_unbox18ScriptingObjectPtr
cSc:__ZNK20TextRenderingPrivate8FontImpl19GetCharacterAdvanceEjijfPj
pHj:__ZN6il2cpp6icalls8mscorlib4Mono8Security12Cryptography18KeyPairPersistence16_IsUserProtectedEP12Il2CppString
Snf:_ReadOnlyCollection_1_Contains_m3936562733_gshared
xGf:_DefaultUriParser__ctor_m4218024811
Kdg:_DerivedType_GetField_m3960169619
q8d:_Decimal_System_IConvertible_ToInt16_m3159038792_AdjustorThunk
P2g:__Z59RuntimeInvoker_Int64_t909078037_RuntimeObject_RuntimeObjectPFvvEPK10MethodInfoPvPS4_
Rrh:__Z41RuntimeInvoker_KeyValuePair_2_t3716250094PFvvEPK10MethodInfoPvPS4_
a6a:__ZN10VertexData8TransferI18StreamedBinaryReadILb0EEEEvRT_
nih:__Z73RuntimeInvoker_Single_t2076509932_Vector4_t2243707581_Vector4_t2243707581PFvvEPK10MethodInfoPvPS4_
iDe:_PKCS12_GetExistingParameters_m2413397265
uWi:_Nullable_1_get_Value_m1743067844_gshared
Qgf:_Collection_1_ClearItems_m4268731177_gshared
Zfb:__ZN14PreloadManager16UpdatePreloadingEv
QMa:__ZN12BaseRendererD2Ev
kri:_X509CertificateCollection__ctor_m858704242
Q_e:_Enumerator__ctor_m425576865_AdjustorThunk
Tpf:_ReadOnlyCollection_1_System_Collections_IList_Contains_m1545447998_gshared
Iyj:__ZN14dense_hash_mapI10KeyWrapperIPK19Il2CppGenericMethodEP10MethodInfoN6il2cpp8metadata23Il2CppGenericMethodHashENS4_14EqualsComparerINS8_26Il2CppGenericMethodCompareEEENSt3__29allocatorINSD_4pairIKS4_S6_EEEEEC2EjRKS9_RKSC_
Hji:_Color32_op_Implicit_m3337994915
B0:__ZNK21UnityDefaultAllocatorI17LowLevelAllocatorE8ContainsEPKv
f7i:__ZNSt3__213__vector_baseI6pollfdNS_9allocatorIS1_EEED2Ev
Fyf:_ClientSessionInfo_get_Id_m3046630969
Wh:_emscripten_get_main_loop_timing
uOe:_DirectoryInfo__ctor_m3750996792
OAd:_BaseMeshEffect_ModifyMesh_m2134816219
$pe:_Array_qsort_TisVector2_t2243707579_m3527759534_gshared
l4a:__ZN24GenerateTypeTreeTransfer21TransferSTLStyleArrayINSt3__26vectorIN15QualitySettings14QualitySettingENS1_9allocatorIS4_EEEEEEvRT_17TransferMetaFlags
fyi:_ResourceRequest_t2560315377_marshal_pinvoke_cleanup
E6e:_List_1_System_Collections_Generic_IEnumerableU3CTU3E_GetEnumerator_m166627113_gshared
dcb:__ZNSt3__26vectorI9InputAxisNS_9allocatorIS1_EEE6resizeEj
pje:__ZN21InterfaceFuncInvoker2Ii19Vector2_t2243707579S0_E6InvokeEjP11Il2CppClassP12Il2CppObjectS0_S0_
nTb:__ZN13BatchRendererC2ER15RenderLoopStatsRK15RenderNodeQueuebbb
jod:_SecurityElement_IsValidAttributeValue_m483287146
Pyi:_FormerlySerializedAsAttribute__ctor_m3044655632
mpb:__ZNK2UI13RectTransform22GetTypeVirtualInternalEv
BCg:__ZL56AppDomainSetup_t611332832_CustomAttributesCacheGeneratorP21CustomAttributesCache
jp:getTempRet0
eOd:_ArithmeticException__ctor_m104771799
Zmh:__Z79RuntimeInvoker_Boolean_t3825574718_ContentTypeU26_t1802785839_Int32_t2071877448PFvvEPK10MethodInfoPvPS4_
Dbg:_AssemblyTitleAttribute__ctor_m1696431446
YFi:_UnityEvent_1_RemoveListener_m2146288709_gshared
oJd:_Image_AddQuad_m1603575622
mzj:__ZN24dense_hashtable_iteratorINSt3__24pairIK10KeyWrapperIPK19Il2CppGenericMethodEP10MethodInfoEES6_N6il2cpp8metadata23Il2CppGenericMethodHashEN14dense_hash_mapIS6_S9_SD_NS6_14EqualsComparerINSC_26Il2CppGenericMethodCompareEEENS0_9allocatorISA_EEE9SelectKeyESH_SJ_E30advance_past_empty_and_deletedEv
Uuf:_PrivateKeyInfo_RemoveLeadingZero_m3396807048
kkf:_ReadOnlyCollection_1_System_Collections_Generic_ICollectionU3CTU3E_get_IsReadOnly_m1251192075_gshared
o0e:_List_1_GrowIfNeeded_m185971996_gshared
Znj:__ZN6il2cpp6icalls8mscorlib6System9ThreadingL21lookup_cached_cultureEP12Il2CppThreadi
GZb:__ZN18DeferredRenderLoopD2Ev
Pfg:_GenericTypeParameterBuilder_GetMethods_m1243855818
vCa:__ZNK16TypeTreeIterator4NameEv
MOi:_PCMReaderCallback_Invoke_m877950113
KPg:__ZL90PlayableBinding_t2498078091_CustomAttributesCacheGenerator_U3CstreamTypeU3Ek__BackingFieldP21CustomAttributesCache
I9:__ZN15FileSystemEntry3SetEPKc
gbj:_il2cpp_method_has_attribute
l2h:_InternalEnumerator_1__ctor_m2808001655_gshared
Jid:_MACTripleDES__ctor_m884945242
byi:_RenderTexture_get_height_m428170183
ZJi:_GUILayoutGroup_SetHorizontal_m4089360220
YP:__ZN20SoundChannelInstance15ParameterBuffer5ApplyEPN4FMOD7ChannelE
_Qi:__ZL24UnresolvedVirtualCall_52P12Il2CppObjectPK10MethodInfo
$Rc:__ZN20TextRenderingPrivate19NativeTextGenerator9InsertTabEv
Vog:__ZL73Enum_t2459695545_CustomAttributesCacheGenerator_Enum_ToObject_m1688724857P21CustomAttributesCache
ps:__ZN15SerializeTraitsI13dynamic_arrayIN11UnityEngine9Animation14GenericBindingELj4EEE19ResizeSTLStyleArrayERS4_i
s8a:__ZN14SafeBinaryRead21TransferSTLStyleArrayI13dynamic_arrayI16BlendShapeVertexLj4EEEEvRT_17TransferMetaFlags
Dad:__ZN11UnityEngine15PlatformWrapper24GetRuntimePlatformStringEv
Fi:_glIsEnabled
Yib:__ZN15CacheWriterBaseD2Ev
A$g:__ZL56Slider_t297367283_CustomAttributesCacheGenerator_m_ValueP21CustomAttributesCache
kvb:__Z25scripting_class_get_image17ScriptingClassPtr
eui:_PlayableAsset_Internal_CreatePlayable_m2166162235
Hfb:__ZNSt3__26vectorIN4core12basic_stringIcNS1_20StringStorageDefaultIcEEEE13stl_allocatorIS5_L18MemLabelIdentifier13ELi16EEEC2INS_11__wrap_iterIPS5_EEEET_SE_RKS8_PNS_9enable_ifIXaasr21__is_forward_iteratorISE_EE5valuesr16is_constructibleIS5_NS_15iterator_traitsISE_E9referenceEEE5valueEvE4typeE
Ji:_emscripten_glDrawElementsInstanced
EB:__ZN26AnimatorControllerPlayable27SetupStateMachineBehavioursEv
utf:_ARC4Managed_Dispose_m4102232694
Otf:_HMAC_Initialize_m3052649104
nSa:__ZN18JobBatchDispatcherD2Ev
hpb:__ZN9Transform17MainThreadCleanupEv
xPg:__ZL143UnitySynchronizationContext_t1205147244_CustomAttributesCacheGenerator_UnitySynchronizationContext_InitializeSynchronizationContext_m2786500889P21CustomAttributesCache
PDj:_GC_clear_hdr_marks
_Tj:_glScissor__wrapper
XZj:_emscripten_glCreateShader__wrapper
SJd:_InputField_get_caretSelectPositionInternal_m3523572533
g_c:_cff_fd_select_get
Pvg:__ZL73CompilationRelaxationsAttribute_t238494011_CustomAttributesCacheGeneratorP21CustomAttributesCache
TLg:__ZL86Material_t193706927_CustomAttributesCacheGenerator_Material_GetTextureImpl_m2799453342P21CustomAttributesCache
$K:__Z13RegisterClassI18AnimatorControllerEvv
wRh:_Text_get_minHeight_m1562513104
jve:_MSCompatUnicodeTable_GetTailoringInfo_m2792223347
NFf:_NameObjectCollectionBase_get_Keys_m446053925
Ui:_emscripten_glGetShaderiv
Vxh:_Transform_1__ctor_m353209818_gshared
wlh:__Z30RuntimeInvoker_Axis_t375128448PFvvEPK10MethodInfoPvPS4_
YQ:__ZN4FMOD6System10getVersionEPj
zke:_Array_InternalArray__IndexOf_TisSByte_t454417549_m1427585061_gshared
e4c:__ZN2UI6Canvas23VirtualRedirectTransferER24GenerateTypeTreeTransfer
e0d:_Decimal_u64_m3991988111
UCi:_YieldInstruction_t3462875981_marshal_pinvoke
XWi:_Predicate_1_BeginInvoke_m2959352225_gshared
Eri:_X509Certificate_Parse_m1764345628
Mcc:__ZN8GUILayer17RemoveFromManagerEv
Wyc:__ZN9JSONWrite8TransferIN4math12int2_storageEEEvRT_PKc17TransferMetaFlags
MQc:__ZN13TextRendering4Font13AwakeFromLoadE17AwakeFromLoadMode
toi:_Mathf_Pow_m1117712374
wih:__Z70RuntimeInvoker_Void_t1841601450_Guid_t_RuntimeObject_Int32_t2071877448PFvvEPK10MethodInfoPvPS4_
Hia:__ZN9GfxDevice21ReleaseSharedMeshDataEP14SharedMeshData
wEe:_SmallXmlParser_Peek_m2814840810
Ucb:__ZNSt3__27__sort5IRNS_6__lessINS_4pairIPKN5Unity4TypeE7Hash128EES8_EEPS8_EEjT0_SC_SC_SC_SC_T_
Kff:_Collection_1_ConvertItem_m3168406667_gshared
WCj:_GC_unreachable_finalize_mark_proc
SCi:_WaitForSecondsRealtime_get_keepWaiting_m4138104467
Olh:__Z70RuntimeInvoker_Single_t2076509932_Int32_t2071877448_Single_t2076509932PFvvEPK10MethodInfoPvPS4_
$mh:__Z77RuntimeInvoker_Boolean_t3825574718_InputTypeU26_t4050577942_Int32_t2071877448PFvvEPK10MethodInfoPvPS4_
Bef:_Collection_1_System_Collections_ICollection_get_SyncRoot_m2547259708_gshared
zoc:__Z43RectTransform_CUSTOM_INTERNAL_get_anchorMaxP12Il2CppObjectP13Vector2fIcall
v4g:__Z50RuntimeInvoker_Void_t1841601450_Single_t2076509932PFvvEPK10MethodInfoPvPS4_
p7d:_DateTimeOffset_get_DateTime_m229084964_AdjustorThunk
s1a:__ZN8Material28UpdateHashesOnPropertyChangeEN9ShaderLab16FastPropertyNameE
jpc:__Z53Register_UnityEngine_SortingLayer_GetLayerValueFromIDv
QNe:_DirectoryInfo_get_Parent_m1198766078
MIh:_EqualityComparer_1_System_Collections_IEqualityComparer_Equals_m349194518_gshared
GXd:_CaseInsensitiveComparer_Compare_m1192858479
cub:__Z18Transfer_BlittableI14SafeBinaryReadLb1E8Vector4fEvRK29SerializationCommandArgumentsR31RuntimeSerializationCommandInfo
BRe:_StreamAsyncResult_set_Done_m4272090534
JNd:_LayoutRebuilder_Clear_m2390054824
Wff:_Collection_1_System_Collections_IList_Insert_m2968289909_gshared
Tka:__ZN13GfxDeviceGLES20SetComputeBufferDataE15ComputeBufferIDPKvjj
Xbg:_Default_SelectMethod_m622251293
_S:__ZN11AudioSource12AddToManagerEv
Awd:_ExecuteEvents_Execute_m1429058057
Fai:_AsyncResult_get_NextSink_m1172723924
jD:__ZN11UnityEngine9Animation32CreateAnimatorGenericBindingsOptERKNS0_20AnimationSetBindingsER9TransformPKN7mecanim9animation14AvatarConstantEPKNS0_21AvatarBindingConstantEbRNS6_6memory9AllocatorER8Animator
xrj:__ZN6il2cpp2vm5Image13ClassFromNameEPK11Il2CppImagePKcS6_
cQj:dynCall_vdddddd
Prf:_BigInteger_op_Inequality_m744282323
o5:__ZL32MarkLevelGameManagerDependenciesR27GarbageCollectorThreadState
_ka:__ZNK13GfxDeviceGLES26HasActiveRandomWriteTargetEv
RUj:_glGetActiveUniformsiv__wrapper
gpc:__Z43Register_UnityEngine_Material_EnableKeywordv
F7:__ZN13MonoBehaviour19SetupScriptingCacheE17ScriptingClassPtrP10MonoScript
y7i:__ZNSt3__214__split_bufferIP12Il2CppThreadRNS_9allocatorIS2_EEED2Ev
tr:__Z20AnimationEventToMonoRK14AnimationEventR18MonoAnimationEvent
i6:__ZNK15dense_hashtableINSt3__24pairIKiiEEi21InstanceIDHashFunctorN14dense_hash_mapIiiS4_NS0_8equal_toIiEE13stl_allocatorIS3_L18MemLabelIdentifier1ELi16EEE9SelectKeyES7_SA_E13find_positionERS2_
V6:__ZN17PersistentManager29ReadAndActivateObjectThreadedEiRK26SerializedObjectIdentifierP14SerializedFilebb
Qwh:_ShimEnumerator_get_Current_m3610131784_gshared
gaf:_List_1_Sort_m2158253314_gshared
pPg:__ZL74UnityEventBase_t828812576_CustomAttributesCacheGenerator_m_PersistentCallsP21CustomAttributesCache
aea:__ZZN15DirectorManager15InitializeClassEvEN52PreLateUpdateDirectorUpdateAnimationBeginRegistrator7ForwardEv
UEh:_DefaultComparer__ctor_m2265472997_gshared
Xpj:__ZN6il2cpp2vm13LivenessState18ShouldProcessValueEP12Il2CppObjectP11Il2CppClass
$Da:__ZN4PPtrI6SpriteE8TransferI14SafeBinaryReadEEvRT_
xth:__Z49RuntimeInvoker_UIVertex_t1204258818_RuntimeObjectPFvvEPK10MethodInfoPvPS4_
PJ:__ZN7mecanim12statemachine13StateConstant8TransferI18StreamedBinaryReadILb0EEEEvRT_
qlj:__ZN15dense_hashtableINSt3__24pairIK10KeyWrapperIP11Il2CppClassES4_EES5_N6il2cpp8metadata16SZArrayClassHashEN14dense_hash_mapIS5_S4_SA_NS5_14EqualsComparerINS9_19SZArrayClassCompareEEENS0_9allocatorIS7_EEE9SelectKeyESE_SG_E16reset_thresholdsEv
Koi:_Matrix4x4_GetHashCode_m375571566
RDi:_InvokableCall_1__ctor_m1584932671_gshared
ulb:__ZNSt3__26vectorIN9ShaderLab14SerializedPassENS_9allocatorIS2_EEE8__appendEj
Lkb:__ZNSt3__26vectorIN9ShaderLab20SerializedSubProgram13BufferBindingENS_9allocatorIS3_EEEC2INS_11__wrap_iterIPS3_EEEET_SB_RKS5_PNS_9enable_ifIXaasr21__is_forward_iteratorISB_EE5valuesr16is_constructibleIS3_NS_15iterator_traitsISB_E9referenceEEE5valueEvE4typeE
QIc:__ZNK16PhysicsManager2D21GetAutoSyncTransformsEv
Kii:_Camera__ctor_m2624089815
a5a:__ZNK13ScreenManager21IsMultiDisplayEnabledEv
YEc:__ZN12b2WheelJoint24SolveVelocityConstraintsERK12b2SolverData
Xlh:__Z133RuntimeInvoker_RuntimeObject_Vector2_t2243707579_Vector2_t2243707579_Single_t2076509932_Int32_t2071877448_RuntimeObject_RuntimeObjectPFvvEPK10MethodInfoPvPS4_
$0a:__ZN9Texture2D23VirtualRedirectTransferER18StreamedBinaryReadILb0EE
QHc:__ZN10Collider2D8TransferI24GenerateTypeTreeTransferEEvRT_
Jae:_Double_System_IConvertible_ToUInt16_m286326038_AdjustorThunk
WTf:_TypeInfo__ctor_m1475908211
d2i:__ZN30dense_hashtable_const_iteratorINSt3__24pairIK10KeyWrapperIPKcEP11Il2CppClassEES5_N6il2cpp5utils11StringUtils12StringHasherIS4_EEN14dense_hash_mapIS5_S8_SE_NS5_14EqualsComparerINSB_13VmStringUtils21CaseSensitiveComparerEEENS0_9allocatorIS9_EEE9SelectKeyESJ_SL_E30advance_past_empty_and_deletedEv
eRg:__ZL73g_UnityEngine_TextRenderingModule_Assembly_CustomAttributesCacheGeneratorP21CustomAttributesCache
m8:__ZN16ScriptingManager27NativeTypeForScriptingClassE17ScriptingClassPtr
MKf:_X509Chain_WrapUp_m1072032285
Zsi:_X509CertificateEnumerator_System_Collections_IEnumerator_MoveNext_m1448966539
mXc:_get_sfnt_table
oef:_Collection_1_IsSynchronized_m3261594010_gshared
zxd:_PointerEventData_set_pressPosition_m2094137883
G2a:__ZN8Renderer20RendererAddedToSceneEv
aZf:_DES_get_Key_m2584608215
$_b:__ZL22ScheduleSceneNodesJobsP25ScheduleSceneNodesJobDataj
Ik:_emscripten_set_canvas_size
ZYd:_Hashtable__ctor_m741952536
blb:__ZNSt3__26vectorIN9ShaderLab20SerializedSubProgramENS_9allocatorIS2_EEE8__appendEj
j1:__ZN20DynamicHeapAllocatorI17LowLevelAllocatorE8AllocateEji
OTb:__ZN20DynamicPropertySheet15SetVectorQueuedERKN9ShaderLab16FastPropertyNameERK8Vector4fN19ShaderPropertySheet8SetFlagsE
Wsd:_String_Format_m1263743648
Opg:__ZL69RuntimeArray_CustomAttributesCacheGenerator_Array_Reverse_m3883292526P21CustomAttributesCache
Enf:_ReadOnlyCollection_1_System_Collections_IEnumerable_GetEnumerator_m4248982967_gshared
lE:__ZN7mecanim9animation22EvaluateAvatarRetargetEPKNS0_14AvatarConstantEPKNS0_11AvatarInputEPNS0_12AvatarOutputEPNS0_12AvatarMemoryEPNS0_15AvatarWorkspaceEb
UNd:_LayoutRebuilder_GetHashCode_m2745108660
dVa:__ZN14RenderSettings23VirtualRedirectTransferER19StreamedBinaryWriteILb0EE
txc:__ZL26Transfer_SimpleNativeClassI9JSONWrite10RectOffsetLb0EEvRK29SerializationCommandArgumentsR31RuntimeSerializationCommandInfo
e8a:__ZN14SafeBinaryRead21TransferSTLStyleArrayI13dynamic_arrayI12BoneWeights4Lj16EEEEvRT_17TransferMetaFlags
oDj:_GC_push_conditional
$oa:__ZN17GenericDynamicVBO10AllocateVBEjR21DynamicVBOChunkHandle
O1e:_List_1_get_Item_m1547593893_gshared
fOe:_Path_GetPathRoot_m1269357080
Ysj:__ZN30dense_hashtable_const_iteratorI10KeyWrapperIP18Il2CppGenericClassES3_N6il2cpp8metadata22Il2CppGenericClassHashEN14dense_hash_setIS3_S6_NS3_14EqualsComparerINS5_25Il2CppGenericClassCompareEEENSt3__29allocatorIS3_EEE8IdentityESA_SD_EppEv
FYd:_KeyNotFoundException__ctor_m264393096
Ovd:_EventSystem_SetSelectedGameObject_m2211816110
fyh:_Transform_1__ctor_m4161450529_gshared
gl:_glMapBufferRange
T0a:__ZN9Texture2D8TransferI18StreamedBinaryReadILb0EEEEvRT_
hnc:__Z31Input_CUSTOM_GetMouseButtonDowni
Hfh:__Z41RuntimeInvoker_HandshakeState_t1820731088PFvvEPK10MethodInfoPvPS4_
uoc:__Z75Register_UnityEngine_Playables_PlayableHandle_INTERNAL_CALL_IsValidInternalv
gec:__ZN13PlayableGraph4PlayEv
GLa:__ZNK9Transform16GetLocalPositionEv
vOd:_Array_System_Collections_ICollection_get_Count_m2897196527
zFa:__ZN13LoadOperation19IntegrateTimeSlicedEi
RSh:_ArrayReadOnlyList_1_get_Item_m176001975_gshared
AOf:_InterpreterFactory__ctor_m3331468903
PDe:_X501__cctor_m3795360380
jla:__ZN13GfxDeviceGLES22DispatchComputeProgramE12ObjectHandleI18ComputeProgram_TagPvE15ComputeBufferIDj
COb:__ZN20DefaultGfxDeviceImpl32InitStereoGlobalsBuffersPlatformEiijPKv
Mr:__ZNK13AnimationClip15GetAverageSpeedEv
c3d:_Convert_ToInt32_m2297793940
whb:__Z17TransformAABBSlowRK4AABBRK10Matrix4x4fRS_
yKf:_X509Chain_Build_m1140429528
Mjb:__ZN9ShaderLab21SerializedShaderState8TransferI14SafeBinaryReadEEvRT_
oNj:_ftruncate
mld:_RSAPKCS1SignatureFormatter_SetKey_m2365816458
TIe:_Int16_GetHashCode_m304503362_AdjustorThunk
b$c:_cf2_stack_pushInt
yH:__ZN7mecanim9animation20DestroyLayerConstantEPNS0_13LayerConstantERNS_6memory9AllocatorE
Oui:_PropertyName__ctor_m4147171238_AdjustorThunk
M1f:_CompressedStack__ctor_m276924800
bxd:_ExecuteEvents_get_cancelHandler_m1964324668
XYa:__ZN15SerializeTraitsINSt3__24pairIN4core12basic_stringIcNS2_20StringStorageDefaultIcEEEES6_EEE8TransferI24GenerateTypeTreeTransferEEvRS7_RT_
iXj:b89
hXj:b88
loi:_Mathf_Sin_m712860563
$Sg:__ZL70GUISettings_t622856320_CustomAttributesCacheGenerator_m_SelectionColorP21CustomAttributesCache
ZBi:_Vector3_Dot_m827632793
HWj:b81
AWj:b80
gxa:__ZN7ApiGLES19CreateSparseTextureEjj14GraphicsFormatiiiiRiS1_S1_
Y8:__ZN18ResourceImageGroup7CleanupEv
XWj:b85
QWj:b84
gXj:b87
YWj:b86
Fp:__ZN11Quaternionf8TransferI24GenerateTypeTreeTransferEEvRT_
eqh:__Z68RuntimeInvoker_Void_t1841601450_Int32_t2071877448_Double_t4078015681PFvvEPK10MethodInfoPvPS4_
mcc:__ZN13ProduceHelperI4MeshLb0EE7ProduceE18MemLabelIdentifier18ObjectCreationMode
Suf:_PrivateKeyInfo_Decode_m1053025782
qMf:_X509ChainElementCollection_System_Collections_ICollection_CopyTo_m1467895312
SCe:_PKCS12_Decrypt_m2457743414
n_a:__ZN8Playable19SetOutputConnectionEPS_i
u1i:__ZN15dense_hashtableINSt3__24pairIK10KeyWrapperIPK11Il2CppClassEPKcEES6_N6il2cpp5utils11PointerHashIS3_EEN14dense_hash_mapIS6_S9_SE_NS6_14EqualsComparerINS0_8equal_toIS5_EEEENS0_9allocatorISA_EEE9SelectKeyESJ_SL_EC2ERKSO_j
Vl:_glDeleteShader
yLg:__ZL88Mesh_t1356156583_CustomAttributesCacheGenerator_Mesh_Internal_Create_m384282753____mono0P21CustomAttributesCache
zce:_Exception_GetType_m3898489832
_sa:__ZN6prcoreL17RemapGenericFloatI15TexFormatRGHalf16TexFormatRGFloatEEvPKNS_9InnerInfoE
tbf:_Stack_1_Peek_m1548778538_gshared
XJi:_GUILayoutUtility_get_spaceStyle_m4248899869
sPh:_Shadow_set_effectColor_m3110056844
Wic:__Z27scripting_add_internal_callPKcPKv
joe:_Array_InternalArray__Insert_TisUriScheme_t1876590943_m2728325409_gshared
TTg:__ZL72GUISkin_t1436893342_CustomAttributesCacheGenerator_m_verticalSliderThumbP21CustomAttributesCache
Wjj:__ZN13Il2CppHashMapINSt3__24pairIPK9EventInfoP11Il2CppClassEEj17ReflectionMapHashIS7_ENS0_8equal_toIS7_EENS0_9allocatorINS1_IK10KeyWrapperIS7_EjEEEEEC2EjRKS9_RKSB_
soi:_Mathf_Max_m2902748112
Ywa:__Z17GetPlayerSettingsv
mlb:__ZNSt3__26vectorIN9ShaderLab20SerializedSubProgram16SamplerParameterENS_9allocatorIS3_EEE6assignIPS3_EENS_9enable_ifIXaasr21__is_forward_iteratorIT_EE5valuesr16is_constructibleIS3_NS_15iterator_traitsISA_E9referenceEEE5valueEvE4typeESA_SA_
ME:__ZN34BlobWriteTransferSTLStyleArrayImplI22OffsetPtrArrayTransferIiEEclERS1_17TransferMetaFlagsR9BlobWrite
kti:_X509Store_CheckStore_m1027496478
jhi:_AddComponentMenu__ctor_m686408932
jvg:__ZL82MethodBase_t904190842_CustomAttributesCacheGenerator_MethodBase_Invoke_m1075809207P21CustomAttributesCache
Hw:__ZN26AnimatorControllerPlayable18SetLayerAutoWeightEv
w9c:__Z44Register_UnityEngine_Canvas_get_pixelPerfectv
Fsd:_String_Contains_m4017059963
xre:_Array_swap_TisCustomAttributeNamedArgument_t94157543_TisCustomAttributeNamedArgument_t94157543_m3600072996_gshared
Q2h:_DefaultComparer_Compare_m1606207039_gshared
J6c:__ZN2UI14CanvasRenderer12SyncMaterialENS0_8SyncFlagE
hHj:__ZN6il2cpp2vm9Parameter30GetDefaultParameterValueObjectEPK10MethodInfoPK13ParameterInfoPb
xLi:_Action_EndInvoke_m4281032350
_oe:_Array_InternalArray__set_Item_TisLabelData_t3712112744_m2253365137_gshared
gkg:_MonoCMethod_get_Attributes_m3914742834
ndg:_ConstructorBuilder_get_DeclaringType_m4264602248
tSe:_StringReader__ctor_m643998729
oHf:_IPv6Address_TryParse_m2220524278
SOi:_PCMReaderCallback_EndInvoke_m4163012370
CNd:_U3CDelayedSetDirtyU3Ec__Iterator0_System_Collections_Generic_IEnumeratorU3CobjectU3E_get_Current_m2210283424
rv:__ZN14AnimationEvent8TransferI19StreamedBinaryWriteILb0EEEEvRT_
YDa:__ZN4PPtrI9Texture2DE8TransferI14SafeBinaryReadEEvRT_
cXc:_UNITY_tt_face_done_kern
U8h:_Context_get_DefaultContext_m2211922324
hcg:_CustomAttributeData_get_NamedArguments_m708818174
I8a:__ZN12BoneWeights48TransferI24GenerateTypeTreeTransferEEvRT_
hvf:_RSAManaged_GetPaddedValue_m2972141669
bOh:_ScrollRect_OnDrag_m1424848249
zAf:_TlsServerCertificate_ProcessAsSsl3_m277089231
pie:_Array_InternalArray__IEnumerable_GetEnumerator_TisUInt16_t986882611_m3665860884_gshared
PLb:__Z19scripting_gc_enablev
jPb:__ZZ23InitPlayerLoopCallbacksvEN41InitializationPlayerUpdateTimeRegistrator7ForwardEv
dei:_AnchorInfo__ctor_m617409099
W3b:__Z29StdTemplateConversionFunctionIihEbPvR14SafeBinaryRead
Qfg:_GenericTypeParameterBuilder_GetMethodImpl_m528545634
x8c:__Z55Register_UnityEngine_CanvasRenderer_DisableRectClippingv
fPf:_Interval_CompareTo_m2909556284_AdjustorThunk
f8a:__ZN14SafeBinaryRead21TransferSTLStyleArrayI13dynamic_arrayI11ColorRGBA32Lj4EEEEvRT_17TransferMetaFlags
RAa:__ZN9GfxDevice22UploadTextureCubeArrayE9TextureIDPKhjii14GraphicsFormati18TextureUploadFlags
upg:__ZL87RuntimeArray_CustomAttributesCacheGenerator_Array_CreateInstance_m679102425____lengths1P21CustomAttributesCache
cKh:_Navigation_t1571958496_marshal_pinvoke
YNf:_Interpreter_GetLastDefined_m2450713313
wdi:_Parser_ParseAssertionType_m3316669790
Hnb:__ZN9ShaderLab7Program27CreateFromSerializedProgramERKNS_17SerializedProgramE10ShaderTypeiP16PropertyNamesSetPK6Shader
VOh:_Selectable_get_isPointerDown_m774209881
Zog:__ZL73Enum_t2459695545_CustomAttributesCacheGenerator_Enum_ToObject_m2460371738P21CustomAttributesCache
bpb:__ZNSt3__27__sort4IRNS_6__lessIN4core12basic_stringIcNS2_20StringStorageDefaultIcEEEES6_EEPS6_EEjT0_SA_SA_SA_T_
JQj:dynCall_viiiifii
eUf:_TypeInfo__ctor_m1219583114
yij:__ZN6il2cpp2gc19AppendOnlyGCHashMapINSt3__24pairIPK11Il2CppImageP11Il2CppClassEEP22Il2CppReflectionModule17ReflectionMapHashIS9_ENS2_8equal_toIS9_EEEC2Ev
u6:__Z20GetPersistentManagerv
g2c:_UNITY_TT_Set_Var_Design
T8h:_Context_Finalize_m1386439645
$2:__ZN21SystemInfoStringCache16StaticInitializeEPv
Ewf:_TlsStream__ctor_m4117943603
lfj:__ZN15dense_hashtableINSt3__24pairIK10KeyWrapperIPK10Il2CppTypeEjEES6_N6il2cpp8metadata14Il2CppTypeHashEN14dense_hash_mapIS6_jSB_NS6_14EqualsComparerINSA_26Il2CppTypeEqualityComparerEEENS0_9allocatorIS8_EEE9SelectKeyESF_SH_E12maybe_shrinkEv
KQh:_Text_FontTextureChanged_m4236993972
Nxj:__ZN6il2cpp2gc16GarbageCollector23MakeDescriptorForObjectEPji
Jtj:__ZNK10KeyWrapperIP12Il2CppObjectE14EqualsComparerINSt3__28equal_toIS1_EEEclERKS2_S9_
Fmg:_ParameterModifier_t1820634920_marshal_pinvoke
bJb:__ZNK13MonoBehaviour7GetNameEv
Cib:__ZN19ScriptingInvocation28AdjustArgumentsToMatchMethodEv
itj:__ZN15dense_hashtableI10KeyWrapperIP18Il2CppGenericClassES3_N6il2cpp8metadata22Il2CppGenericClassHashEN14dense_hash_setIS3_S6_NS3_14EqualsComparerINS5_25Il2CppGenericClassCompareEEENSt3__29allocatorIS3_EEE8IdentityESA_SD_E6insertERKS3_
MN:__Z15_CheckFMODError11FMOD_RESULTPKciS1_
nud:_AbstractEventData_Use_m1797212290
sTa:__Z20RenderMultipleMeshesRK15RenderNodeQueueRK18RenderMultipleData17ShaderChannelMask
JYg:__ZL150U3CDelayedDestroyDropdownListU3Ec__Iterator0_t3461999471_CustomAttributesCacheGenerator_U3CDelayedDestroyDropdownListU3Ec__Iterator0_Reset_m3485957852P21CustomAttributesCache
w3g:__Z199RuntimeInvoker_Void_t1841601450_ByteU2AU26_t3544685828_ByteU2AU26_t3544685828_DoubleU2AU26_t3349029_UInt16U2AU26_t1636670495_UInt16U2AU26_t1636670495_UInt16U2AU26_t1636670495_UInt16U2AU26_t1636670495PFvvEPK10MethodInfoPvPS4_
tdj:__ZN6il2cpp2vm4Type19GetGenericParameterEPK10Il2CppType
Z7c:__Z51Register_UnityEngine_CanvasGroup_get_blocksRaycastsv
$0h:_InternalEnumerator_1_get_Current_m2826780083_gshared
mge:_Array_InternalArray__ICollection_Remove_TisCustomAttributeNamedArgument_t94157543_m2838387005_gshared
j1g:__ZL105LayoutUtility_t4076838048_CustomAttributesCacheGenerator_LayoutUtility_U3CGetMinHeightU3Em__4_m1769295917P21CustomAttributesCache
DEh:_Dictionary_2_GetEnumerator_m1752238884_gshared
w2h:_InternalEnumerator_1__ctor_m2782443954_AdjustorThunk
wd:_glBeginQuery
Rag:_Assembly_GetCustomAttributes_m95309865
aJ:__ZN18AnimatorController19TransferRuntimeDataI24GenerateTypeTreeTransferEEvRT_
NOc:__ZN10Effector2D25CheckEffectorColliderMaskEP10Collider2DS1_
HQb:__ZN6Camera12RenderStereoENS_10RenderFlagE8CullFlagPNS_24PerformEyeRenderFunctionE
B0g:__ZL73LayoutElement_t2808691390_CustomAttributesCacheGenerator_m_FlexibleHeightP21CustomAttributesCache
qrb:__ZN20LocalFileSystemPosix10ToAbsoluteEPKc
fTa:__ZN20TierGraphicsSettings8TransferI19StreamedBinaryWriteILb0EEEEvRT_
u2:__GLOBAL__sub_I_runtime_input_0_cpp
V$d:_Convert_ToBoolean_m48997236
Sbe:_Enum_ToObject_m275924358
Cm:f0
IDa:__ZN9BehaviourD0Ev
MVd:_ArrayListWrapper_set_Capacity_m2792463350
CSa:__Z32TransferEnumWithNameForceIntSizeI14SafeBinaryRead7HDRModeEvRT_RT0_PKc17TransferMetaFlags
dMj:_getcwd
Q$f:_StringBuilder_Append_m1128243247
lKc:__ZN16b2CapsuleContact6CreateEP9b2FixtureiS1_iP16b2BlockAllocator
eei:_AnchorInfo_get_Offset_m142119297
JEa:__ZN25ThreadsafeLinearAllocatorD2Ev
S4d:_DateTime_get_Year_m1985210972
Rgb:__Z21SendMessageToEveryoneRK17MessageIdentifier11MessageData
jFi:_UnityAction_1_EndInvoke_m902670333_gshared
dca:__ZN21BillboardBatchManager16StaticInitializeEPv
s4:__ZN12_GLOBAL__N_138ArchiveRedirectFileSystemStaticDestroyEPv
qce:_EventHandler_Invoke_m1137722757
e$a:__ZN12CubemapArray34UpdateFileTextureUploadInstructionEP26FileAssetUploadInstructionj
QVe:_MonoType_IsSubclassOf_m2211166238
Xmg:_TypeFilter_EndInvoke_m997625354
dff:_Collection_1_System_Collections_ICollection_CopyTo_m2859266050_gshared
fxa:__Z23CreateSparseTextureGLES9TextureIDii14GraphicsFormati
F3h:_Comparer_1__ctor_m2876014041_gshared
ZDj:_GC_continue_reclaim
bNe:_InvalidCastException__ctor_m2730571470
rMf:_X509ChainElementCollection_System_Collections_IEnumerable_GetEnumerator_m2559704689
xHg:__ZL86BigInteger_t925946153_CustomAttributesCacheGenerator_BigInteger_op_Implicit_m622924526P21CustomAttributesCache
sYg:__ZL59Dropdown_t1985816271_CustomAttributesCacheGenerator_m_ValueP21CustomAttributesCache
EOf:_InterpreterFactory_set_Gap_m2761943153
HJf:_PublicKey_get_Key_m126090744
USc:__ZNSt3__23mapIN20TextRenderingPrivate7FontRefEP11FT_FaceRec_NS_4lessIS2_EENS_9allocatorINS_4pairIKS2_S4_EEEEEixERS9_
YGa:__ZN17ArchiveFileSystem10AddStorageEP20ArchiveStorageReader
N3d:_Convert_ToSingle_m690748777
YDc:__ZNK12b2MotorJoint16GetReactionForceEf
x6i:__ZN6il2cpp2vm13MetadataCache37GetParameterDefaultValueDataFromIndexEi
v4e:_List_1_RemoveAll_m4125997475_gshared
TGh:_EqualityComparer_1_System_Collections_IEqualityComparer_GetHashCode_m1203798961_gshared
H$i:__ZN6il2cpp2vm5Class15GetEnumBaseTypeEP11Il2CppClass
rOe:_DirectoryNotFoundException__ctor_m3713860966
h0a:__ZNK9Texture2D16GetNpotTexelSizeEv
xWh:_InternalEnumerator_1__ctor_m245588437_gshared
hNf:_Capture_get_Text_m3472127896
hJh:_Mask_get_rectTransform_m3304369086
xih:__Z78RuntimeInvoker_Void_t1841601450_ScriptableRenderContext_t4271526_RuntimeObjectPFvvEPK10MethodInfoPvPS4_
epa:__ZN9GfxDevice22GetDefaultVertexBufferE26GfxDefaultVertexBufferTypej
aLg:__ZL83Input_t1785128008_CustomAttributesCacheGenerator_Input_get_mousePresent_m1100327283P21CustomAttributesCache
$mf:_ReadOnlyCollection_1_System_Collections_ICollection_CopyTo_m1129689124_gshared
vMj:___fseeko_unlocked
KWj:_glGetActiveUniform__wrapper
nMj:_sscanf
nif:_Collection_1_Contains_m1999290510_gshared
u8a:__ZN14SafeBinaryRead21TransferSTLStyleArrayINSt3__26vectorI17BlendShapeChannelNS1_9allocatorIS3_EEEEEEvRT_17TransferMetaFlags
PMb:__Z17BeginSplashScreenv
Lmb:__ZN9ShaderLab16SerializedShader8TransferI19StreamedBinaryWriteILb0EEEEvRT_
w7f:_UInt32_Parse_m2400360707
GG:__ZN7mecanim9animation18CreateAvatarMemoryEPKNS0_14AvatarConstantERNS_6memory9AllocatorE
r$d:_Stack_Pop_m3788808882
Juh:_Enumerator_VerifyCurrent_m4246196125_AdjustorThunk
BDh:_Dictionary_2_pick_value_m3484897877_gshared
mli:_ArgumentCache__ctor_m1191928438
R6d:_DateTime_op_Equality_m1867073872
vF:__ZN7mecanim8skeleton16SkeletonPoseCopyIN4math4trsXENS2_7affineXEEEvPKNS0_13SkeletonPoseTIT_EEPNS5_IT0_EE
lCb:__Z18Transfer_BlittableI19StreamedBinaryWriteILb0EELb0EaEvRK29SerializationCommandArgumentsR31RuntimeSerializationCommandInfo
Loa:__ZN18GfxFramebufferGLES18GetFramebufferNameERK20GfxRenderTargetSetup
Ktc:__Z30Event_Get_Custom_PropCharacterP12Il2CppObject
vda:__ZN13PlayableGraph27SchedulePlayableDestructionERK9HPlayable
UTj:_glGetFramebufferAttachmentParameteriv__wrapper
Bed:__Z13RegisterClassI20UnityConnectSettingsEvv
hvb:__Z22scripting_array_length17ScriptingArrayPtr
fod:_SecurityElement_GetAttribute_m4288291176
Xgi:_UriParser_get_DefaultPort_m1377931533
SGi:_IndexedSet_1_get_Count_m2839545138_gshared
s$a:__ZN14SafeBinaryRead20TransferTypelessDataEjPvi
Svg:__ZL66StringFreezingAttribute_t2691375565_CustomAttributesCacheGeneratorP21CustomAttributesCache
xab:__ZN14SpriteRenderer18UpdateCachedSpriteEb
Y5e:_List_1_AddCollection_m3284813601_gshared
MYc:_Horizontal_Sweep_Init
R$g:__ZL102ToggleGroup_t1030026315_CustomAttributesCacheGenerator_ToggleGroup_U3CActiveTogglesU3Em__1_m4052653494P21CustomAttributesCache
pU:__ZN13dynamic_arrayI12SoundChannelLj4EE9push_backERKS0_
Gwa:__Z19GetActiveColorSpacev
kHh:_EqualityComparer_1__cctor_m1672307556_gshared
sSf:_SoapTypeAttribute_get_IsInteropXmlElement_m2941294827
vWc:_UNITY_tt_face_load_kern
y_e:_Enumerator_System_Collections_IEnumerator_get_Current_m3542273247_gshared
bUd:_Char_System_IConvertible_ToUInt32_m1557991717_AdjustorThunk
V_f:_Encoding_get_UTF8Unmarked_m628720656
VJe:_NumberFormatter_RoundBits_m1545255255
M3:__Z6StrCmpPKcS0_
Y$h:_InternalEnumerator_1_MoveNext_m2906956792_gshared
T9g:__Z119RuntimeInvoker_Void_t1841601450_RuntimeObject_Int64U26_t763825331_ObjectU26_t597476745_SerializationInfoU26_t4051840202PFvvEPK10MethodInfoPvPS4_
pob:__Z21CheckGpuProgramUsable20ShaderGpuProgramType
Gbg:_Binder__cctor_m3736115807
Wwj:__ZN6il2cpp2os9Directory20GetFileSystemEntriesERKNSt3__212basic_stringIcNS2_11char_traitsIcEENS2_9allocatorIcEEEESA_iiPi
foh:__Z84RuntimeInvoker_Int32_t2071877448_Color32_t874517518_Color32_t874517518_RuntimeObjectPFvvEPK10MethodInfoPvPS4_
wEh:_Dictionary_2_OnDeserialization_m2160537783_gshared
wQd:_Attribute_GetHashCode_m2653962112
TRc:__ZN20TextRenderingPrivate19NativeTextGenerator5SetupEv
Hai:_AsyncResult_GetReplyMessage_m262842621
mYb:__ZNK15SharedLightData24GetFinalShadowResolutionEv
ZYe:_Enumerator__ctor_m3021143890_AdjustorThunk
Ydb:__ZN12AspectRatios8TransferI18StreamedBinaryReadILb0EEEEvRT_
Crg:__ZL66X509ExtensionCollection_t1640144839_CustomAttributesCacheGeneratorP21CustomAttributesCache
Hdc:__ZN10GameObject14CopyPropertiesERS_
fTi:__ZL25UnresolvedVirtualCall_167P12Il2CppObject19Vector3_t2243707580S1_PK10MethodInfo
yuc:__Z44Register_UnityEngine_GUIStyle_get_fixedWidthv
Mkd:_RSACryptoServiceProvider_Common_m2581564813
uwj:__ZNSt3__214__split_bufferIN6il2cpp2os10ThreadImpl10APCRequestERNS_9allocatorIS4_EEEC2EjjS7_
Jxi:_Vector2_Scale_m2260641886
tQe:_MemoryStream_CheckIfClosedThrowDisposed_m2253054610
nTh:_ArrayReadOnlyList_1_GetEnumerator_m634288642_gshared
_4a:__ZNK13ScreenManager12IsFullScreenEv
QMj:_rand
vUj:_emscripten_glFramebufferRenderbuffer__wrapper
Uhh:__Z72RuntimeInvoker_Boolean_t3825574718_Ray_t2469606224_SingleU26_t4173844468PFvvEPK10MethodInfoPvPS4_
vxj:__ZN6il2cpp5utils9PathUtils7CombineIcEENSt3__212basic_stringIT_NS3_11char_traitsIS5_EENS3_9allocatorIS5_EEEERKNS0_10StringViewIS5_EERKSA_
eqf:_ReadOnlyCollection_1_GetEnumerator_m2481390116_gshared
l7g:__Z77RuntimeInvoker_Void_t1841601450_RuntimeObject_Int32_t2071877448_RuntimeObjectPFvvEPK10MethodInfoPvPS4_
dwb:__ZN14SafeBinaryRead21TransferSTLStyleArrayINSt3__26vectorI17AnimationCurveTplIfE13stl_allocatorIS4_L18MemLabelIdentifier1ELi16EEEEEEvRT_17TransferMetaFlags
Fgj:__ZN15dense_hashtableINSt3__24pairIK10KeyWrapperINS1_IPK11Il2CppImageP11Il2CppClassEEEjEES9_17ReflectionMapHashIS8_EN14dense_hash_mapIS9_jSD_NS9_14EqualsComparerINS0_8equal_toIS8_EEEENS0_9allocatorISB_EEE9SelectKeyESI_SK_E12expand_arrayEjN21dense_hash_map_traits17integral_constantIbLb0EEE
iVf:_ObjectManager_RegisterObject_m872610295
K_b:__Z22PrepareOptimizedPlanesPK5PlaneiPKN4math7_float4E
Lwi:_RectOffset_t3387826427_marshal_pinvoke
uGd:_Graphic_SetVerticesDirty_m1607014370
Z$:__ZN11UnityEngine15CloudWebService17WebFileDownloaderINS0_20WebRequestRestClientENS0_23WebRequestRestHeaderMapEE10InitializeERKN4core12basic_stringIcNS5_20StringStorageDefaultIcEEEE
bca:__ZN17UniqueIDGenerator15CreatePureIndexEv
Rtf:_MD2__ctor_m3133818738
_v:__ZN11UnityEngine9Animation28GenericAnimationBindingCache15DidReloadDomainEv
aFe:_AppDomain_InternalGetProcessGuid_m1278588156
JLd:_InputField_MoveRight_m386206014
RZd:_HashValues_get_Count_m234926373
Neb:__ZNSt3__26vectorIN15ResourceManager10DependencyE13stl_allocatorIS2_L18MemLabelIdentifier52ELi16EEE6assignINS_11__wrap_iterIPS2_EEEENS_9enable_ifIXaasr21__is_forward_iteratorIT_EE5valuesr16is_constructibleIS2_NS_15iterator_traitsISC_E9referenceEEE5valueEvE4typeESC_SC_
rK:__ZN19StreamedBinaryWriteILb0EE8TransferIN7mecanim9animation23BlendDirectDataConstantEEEvRT_PKc17TransferMetaFlags
u5g:__Z116RuntimeInvoker_Boolean_t3825574718_RuntimeObject_Int32_t2071877448_RuntimeObject_Int32_t2071877448_Int32_t2071877448PFvvEPK10MethodInfoPvPS4_
xNe:_BinaryReader_ReadBoolean_m2892291883
X_i:__ZN15dense_hashtableINSt3__24pairIK10KeyWrapperIPK22Il2CppGenericParameterEP11Il2CppClassEES6_N6il2cpp5utils11PointerHashIS4_EEN14dense_hash_mapIS6_S9_SE_NS6_14EqualsComparerINS0_8equal_toIS5_EEEENS0_9allocatorISA_EEE9SelectKeyESJ_SL_E14squash_deletedEv
NFc:__ZNK12b2MouseJoint17GetReactionTorqueEf
xzg:__ZL66DSASignatureDeformatter_t2187578719_CustomAttributesCacheGeneratorP21CustomAttributesCache
KUg:__ZL85Canvas_t209405766_CustomAttributesCacheGenerator_Canvas_get_sortingLayerID_m137448982P21CustomAttributesCache
Urc:__Z14GUIClipTextureP9Texture2DPhiiii
Vt:__ZN14SafeBinaryRead21TransferSTLStyleArrayI13dynamic_arrayI11KeyframeTplI11QuaternionfELj4EEEEvRT_17TransferMetaFlags
VUh:_InternalEnumerator_1_Dispose_m1064404287_AdjustorThunk
Gua:__ZNSt3__26vectorI27ComputeShaderBuiltinSamplerNS_9allocatorIS1_EEE21__push_back_slow_pathIKS1_EEvRT_
zZi:_AnimatorControllerPlayable__ctor_m4080566273
CAf:_TlsServerCertificate_validateCertificates_m1988583701
Sqg:__ZL61DllImportAttribute_t3000813225_CustomAttributesCacheGeneratorP21CustomAttributesCache
d4g:__Z66RuntimeInvoker_Int32_t2071877448_RuntimeObject_Int32U26_t455636984PFvvEPK10MethodInfoPvPS4_
JSi:__ZL25UnresolvedVirtualCall_143P12Il2CppObjectaaPK10MethodInfo
uNa:__ZNK9Transform18TransformDirectionERK8Vector3f
UHa:__ZNK17ArchiveFileSystem12GetAssetGUIDERK13FileEntryData
gob:__ZNSt3__26vectorIN9ShaderLab20SerializedSubProgram15MatrixParameterENS_9allocatorIS3_EEE21__push_back_slow_pathIKS3_EEvRT_
xZj:_emscripten_glClearStencil__wrapper
Eph:__Z60RuntimeInvoker_Void_t1841601450_ResourceCacheItem_t333236149PFvvEPK10MethodInfoPvPS4_
HHh:_EqualityComparer_1_get_Default_m1852501307_gshared
i5i:__ZN15dense_hashtableINSt3__24pairIK10KeyWrapperIPK11Il2CppClassEPKcEES6_N6il2cpp5utils11PointerHashIS3_EEN14dense_hash_mapIS6_S9_SE_NS6_14EqualsComparerINS0_8equal_toIS5_EEEENS0_9allocatorISA_EEE9SelectKeyESJ_SL_E12resize_deltaEjj
BOj:__ZNK10__cxxabiv120__si_class_type_info27has_unambiguous_public_baseEPNS_19__dynamic_cast_infoEPvi
rGe:_NumberFormatInfo_get_PercentNegativePattern_m1162448153
ksg:__ZL56SyncHashtable_t1343674558_CustomAttributesCacheGeneratorP21CustomAttributesCache
gSj:_glTexSubImage3D__wrapper
tNf:_FactoryCache_Add_m2602974721
dpa:__Z30AddDefaultStreamsToMeshBuffersR9GfxDeviceR11MeshBuffersj17ShaderChannelMaskS3_
W3:__ZL16GetInterfaceImpl18UnityInterfaceGUID
EGe:_RegionInfo_construct_internal_region_from_name_m3316088619
_$i:__ZN6il2cpp2vmL17SetupFieldOffsetsENS0_15FieldLayoutKindEP11Il2CppClassjRKNSt3__26vectorIjNS4_9allocatorIjEEEE
l0e:_List_1_System_Collections_IList_get_Item_m936612973_gshared
gAj:__ZN6il2cpp6icalls8mscorlib6System15MonoCustomAttrs27GetCustomAttributesInternalEP12Il2CppObjectP20Il2CppReflectionTypeb
n2c:_UNITY_TT_Set_MM_Blend
x2:__GLOBAL__sub_I_runtime_math_random_0_cpp
sVf:_ObjectReader_ReadAssembly_m869834280
bzi:_Sprite_INTERNAL_get_textureRect_m127050026
_Mb:__ZN14PreloadManager35WaitForAllAsyncOperationsToCompleteEv
ypf:_ReadOnlyCollection_1_System_Collections_IList_get_Item_m1831743662_gshared
pjf:_Collection_1_IsSynchronized_m971497175_gshared
E5:__ZNK18ScriptingObjectPtr17ToScriptingStringEv
Nwd:_ExecuteEvents_Execute_m1617536317
HQh:_Text_get_cachedTextGeneratorForLayout_m1357670532
rP:__ZL31InitializeAudioScriptingClassesv
XRb:__Z14SortGUIByDepthP10GUIElementS0_
xKe:_NumberFormatter_NumberToString_m126384393
YVj:_emscripten_glVertexAttrib4fv__wrapper
r3:__ZN13RuntimeStaticI13dynamic_arrayIPK31TransferFunctionScriptingTraitsLj4EELb0EE16StaticInitializeEPv
XPf:_LogicalCallContext__ctor_m3173272863
dG:__ZN12_GLOBAL__N_120ProcessRootMotionMixER33AnimationPlayableEvaluationOutputR35AnimationPlayableEvaluationConstantR32AnimationPlayableEvaluationInputS1_f
BUe:_MonoCustomAttrs__cctor_m2608447972
dJe:_Int32_FindSign_m3803672540
MKg:__ZL98TouchScreenKeyboard_t601950206_CustomAttributesCacheGenerator_TouchScreenKeyboard_Open_m4126304679P21CustomAttributesCache
R7g:__Z92RuntimeInvoker_Void_t1841601450_DateTime_t693205669_DateTime_t693205669_TimeSpan_t3430258949PFvvEPK10MethodInfoPvPS4_
imh:__Z95RuntimeInvoker_Void_t1841601450_ObjectU5BU5DU26_t3223402458_Int32_t2071877448_Int32_t2071877448PFvvEPK10MethodInfoPvPS4_
Srb:__ZNK20LocalFileSystemPosix21GetAvailableDiskSpaceEPKcRy
d3:__ZNSt3__26__treeIiNS_4lessIiEENS_9allocatorIiEEE7destroyEPNS_11__tree_nodeIiPvEE
tDi:_Predicate_1__ctor_m2995226103_gshared
uwf:_CipherSuite_InitializeCipher_m229247572
Uha:__ZNK9GfxDevice14GetWorldMatrixEv
Wlg:_MonoProperty_GetGetMethod_m1100580870
cDh:_Dictionary_2__ctor_m1950568359_gshared
bzj:__ZN15dense_hashtableINSt3__24pairIK10KeyWrapperIPK19Il2CppGenericMethodEP10MethodInfoEES6_N6il2cpp8metadata23Il2CppGenericMethodHashEN14dense_hash_mapIS6_S9_SD_NS6_14EqualsComparerINSC_26Il2CppGenericMethodCompareEEENS0_9allocatorISA_EEE9SelectKeyESH_SJ_E13set_empty_keyERKSA_
gqb:__Z19scripting_array_new17ScriptingClassPtrjj
dU:__ZN11SoundHandle13CreateChannelEb
o9g:__Z90RuntimeInvoker_Void_t1841601450_IntPtr_t_Int32_t2071877448_RuntimeObject_Int32_t2071877448PFvvEPK10MethodInfoPvPS4_
J1a:__ZN14SafeBinaryRead21TransferSTLStyleArrayI13dynamic_arrayI12LightmapDataLj4EEEEvRT_17TransferMetaFlags
tFe:_ArgumentException__ctor_m3312963299
ilb:__ZNSt3__26vectorIN9ShaderLab20SerializedSubProgram16TextureParameterENS_9allocatorIS3_EEE6assignIPS3_EENS_9enable_ifIXaasr21__is_forward_iteratorIT_EE5valuesr16is_constructibleIS3_NS_15iterator_traitsISA_E9referenceEEE5valueEvE4typeESA_SA_
zof:_ReadOnlyCollection_1_get_Item_m1696267180_gshared
O3i:__ZN13Il2CppHashMapIN6il2cpp5utils13dynamic_arrayIPK10Il2CppTypeLj4EEEPFvvENS0_8metadata19Il2CppSignatureHashENS9_22Il2CppSignatureCompareENSt3__29allocatorINSC_4pairIK10KeyWrapperIS6_ES8_EEEEEC2EjRKSA_RKSB_
nWi:_U3CCreateWhereIteratorU3Ec__Iterator1D_1_MoveNext_m3533253043_gshared
ejj:__ZN15dense_hashtableINSt3__24pairIK10KeyWrapperIPK22Il2CppGenericParameterEPK24MonoGenericParameterInfoEES6_N6il2cpp5utils11PointerHashIS4_EEN14dense_hash_mapIS6_SA_SF_NS6_14EqualsComparerINS0_8equal_toIS5_EEEENS0_9allocatorISB_EEE9SelectKeyESK_SM_E15set_deleted_keyERKSB_
lXh:_InternalEnumerator_1_System_Collections_IEnumerator_Reset_m2726857860_AdjustorThunk
d6b:__ZN6prcoreL11inner_clearILj2EEEvPhjjj
YMf:_X509SubjectKeyIdentifierExtension__ctor_m3887138480
RYe:_Enumerator_System_Collections_IEnumerator_get_Current_m2853089017_AdjustorThunk
ZEc:__ZN12b2WheelJoint24SolvePositionConstraintsERK12b2SolverData
Kg:_emscripten_exit_fullscreen
HJd:_InputField_get_mesh_m3276583786
t6h:_GCHandle_Free_m1639542352_AdjustorThunk
lWc:_sfnt_done_face
ewj:__ZN6il2cpp6icalls8mscorlib6System6String19InternalAllocateStrEi
UBc:__Z29Transfer_Blittable_ArrayFieldI8JSONRead11QuaternionfEvRT_R9ArrayInfoRK23StaticTransferFieldInfo
Yxg:__ZL65SoapParameterAttribute_t2780084514_CustomAttributesCacheGeneratorP21CustomAttributesCache
zrb:__ZN20LocalFileSystemPosix8SetFlagsER13FileEntryDatajj
olc:__Z45Register_UnityEngine_Camera_get_targetDisplayv
Ubc:__ZNK24RendererAnimationBinding15GenerateBindingERKN4core12basic_stringIcNS0_20StringStorageDefaultIcEEEEbRN11UnityEngine9Animation14GenericBindingE
XRa:__Z15GetFlareManagerv
b7b:__ZN15ApplicationInfo24GetApplicationIdentifierEv
jof:_ReadOnlyCollection_1_System_Collections_IList_Contains_m927375828_gshared
WCa:__ZN9Behaviour8TransferI18StreamedBinaryReadILb0EEEEvRT_
Cbi:_Enumerator_System_Collections_IEnumerator_get_Current_m1429268283
klf:_ReadOnlyCollection_1_System_Collections_Generic_ICollectionU3CTU3E_Clear_m388357963_gshared
PKj:___toread
gLb:__ZNSt3__26vectorI10vector_mapIiiNS_4lessIiEE13stl_allocatorINS_4pairIiiEEL18MemLabelIdentifier38ELi16EEES4_IS9_LS7_38ELi16EEE26__swap_out_circular_bufferERNS_14__split_bufferIS9_RSA_EE
cPj:___cxa_is_pointer_type
Xsd:_String_Concat_m56707527
fG:__ZN7mecanim9animation16EvaluateAvatarDXEPKNS0_14AvatarConstantEPKNS0_11AvatarInputEPNS0_12AvatarMemoryEPNS0_15AvatarWorkspaceEPNS0_12AvatarOutputE
Wva:__ZN4gles20DestroyRenderSurfaceEP7ApiGLESP17RenderSurfaceGLES
QYe:_Enumerator_System_Collections_IEnumerator_get_Current_m2853089017_gshared
zqc:__Z34Transform_CUSTOM_SetAsFirstSiblingP12Il2CppObject
_dj:__ZNK15dense_hashtableINSt3__24pairIK10KeyWrapperINS1_IPK14Il2CppAssemblyP11Il2CppClassEEEjEES9_17ReflectionMapHashIS8_EN14dense_hash_mapIS9_jSD_NS9_14EqualsComparerINS0_8equal_toIS8_EEEENS0_9allocatorISB_EEE9SelectKeyESI_SK_E10test_emptyEj
P_e:_Enumerator_get_Current_m827571811_AdjustorThunk
fRg:__ZL62Font_t4239498691_CustomAttributesCacheGenerator_textureRebuiltP21CustomAttributesCache
jDa:__ZN17PersistentManager40GlobalToLocalSerializedFileIndexInternalERK26SerializedObjectIdentifier
_Y:__ZN11UnityEngine15CloudWebService17SessionEventQueue14ParseEventDataERKN4core12basic_stringIcNS2_20StringStorageDefaultIcEEEE
xud:_BaseEventData_get_selectedObject_m3551206992
hwe:_SimpleCollator_CompareOrdinal_m2176988387
KOg:__ZL47Rect_t3681755626_CustomAttributesCacheGeneratorP21CustomAttributesCache
ade:_CCGregorianCalendar_GetYear_m1289900195
vKe:_Int16_ToString_m2592645088
zJg:__ZL90CullingGroup_t1091689465_CustomAttributesCacheGenerator_CullingGroup_SendEvents_m386073533P21CustomAttributesCache
bna:__ZN13TranslateGLES4InitERK12GraphicsCaps16GfxDeviceLevelGL
kIb:__Z29Transfer_Blittable_ArrayFieldI18StreamedBinaryReadILb0EE10ColorRGBAfEvRT_R9ArrayInfoRK23StaticTransferFieldInfo
NWf:_SerializationInfoEnumerator_Reset_m2206466680
tUj:_emscripten_glGetShaderPrecisionFormat__wrapper
RNi:_GenericEqualityComparer_1_Equals_m1934771410_gshared
wsg:__ZL57DebuggingModes_t2073970606_CustomAttributesCacheGeneratorP21CustomAttributesCache
iHj:__ZN6il2cpp5utils9Exception26FormatInvalidCastExceptionEPK11Il2CppClassS4_
_ff:_Collection_1_System_Collections_IList_get_IsFixedSize_m993584401_gshared
M9b:__ZN13ProduceHelperI10TagManagerLb0EE7ProduceE18MemLabelIdentifier18ObjectCreationMode
NHj:__ZN6il2cpp2os6Memory12AlignedAllocEjj
d$h:_InternalEnumerator_1__ctor_m691972083_gshared
EBj:__ZN6il2cpp8metadataL7CompareEPK10Il2CppTypeS3_
cyb:__Z18Transfer_BlittableI17RemapPPtrTransferLb0E11ColorRGBA32EvRK29SerializationCommandArgumentsR31RuntimeSerializationCommandInfo
fdg:_TypeBuilder_get_is_created_m736553860
$uf:_RSAManaged__ctor_m1370411656
AGb:__Z18Transfer_BlittableI18StreamedBinaryReadILb0EELb1E10ColorRGBAfEvRK29SerializationCommandArgumentsR31RuntimeSerializationCommandInfo
Y_a:__ZN12CubemapArray23VirtualRedirectTransferER17RemapPPtrTransfer
Rui:_PropertyName_op_Equality_m112228798
ajc:__ZL27GetComponentsImplementationILb0ELi0EEbR10GameObjectbRK17CompareParametersRK39GetComponentsImplementation_ReturnValue
OJb:__ZN9Scripting36IsSystemCollectionsGenericDictionaryE17ScriptingClassPtr
BLh:_Raycast3DCallback_EndInvoke_m3234280377
tjh:__Z34RuntimeInvoker_KeyCode_t2283395152PFvvEPK10MethodInfoPvPS4_
tui:_PlayableHandle_op_Equality_m2854547329
iDd:_ColorTweenCallback__ctor_m3619686788
C9:__ZL16ReadTypeTreeImplILb0EEbR8TypeTreeRK16TypeTreeIteratorRPKhS6_i
yK:__ZN25RuntimeAnimatorControllerD2Ev
fC:__ZN27AnimationLayerMixerPlayable16SetLayerMaskCopyEjRKN7mecanim6bitsetILj70EEEPKNS0_8skeleton12SkeletonMaskE
uVa:__ZNK22BuiltinResourceManager21GetResourceInstanceIDEPKN5Unity4TypeERKN4core12basic_stringIcNS4_20StringStorageDefaultIcEEEE
_mc:__Z42Register_UnityEngine_RectOffset_set_bottomv
WVd:_ArrayListWrapper_IndexOf_m3574835167
huc:__Z28GUIStyleState_CUSTOM_CleanupP12Il2CppObject
aUb:__ZN28LightProbeProxyVolumeContext8CopyFromERKS_
$Ad:_U3COnFinishSubmitU3Ec__Iterator0_System_Collections_Generic_IEnumeratorU3CobjectU3E_get_Current_m1823105495
YLa:__ZN23TransformChangeDispatch32QueueTransformChangeIfHasChangedER18TransformHierarchy
Fmd:_SymmetricAlgorithm_get_FeedbackSize_m544664262
Xva:__ZN7ApiGLES18DeleteRenderbufferERj
Bua:__ZL23ProgramUniformMatrix4fvPK7ApiGLESjiihPKv
hwa:__ZN7ApiGLES13CreateTextureEjj14GraphicsFormatiiiii
rlh:__Z41RuntimeInvoker_SelectionState_t3187567897PFvvEPK10MethodInfoPvPS4_
E$h:_InternalEnumerator_1_MoveNext_m3629145604_gshared
Skb:__ZN9ShaderLab20SerializedSubProgram15MatrixParameter8TransferI14SafeBinaryReadEEvRT_
j4g:__Z51RuntimeInvoker_Int32_t2071877448_Single_t2076509932PFvvEPK10MethodInfoPvPS4_
JQd:_BitConverter_AmILittleEndian_m2716658112
cjc:__ZL27GetComponentsImplementationILb0ELi1EEbR10GameObjectbRK17CompareParametersRK39GetComponentsImplementation_ReturnValue
u1c:_Round_Down_To_Grid
E1f:_UTF8Decoder__ctor_m1460357288
hma:__ZN13RenderTexture7ReleaseEv
rzc:__Z18Transfer_BlittableI8JSONReadLb1EN4math12int3_storageEEvRK29SerializationCommandArgumentsR31RuntimeSerializationCommandInfo
D9a:__ZN10MeshFilter23VirtualRedirectTransferER14SafeBinaryRead
cmi:_UnityAction_BeginInvoke_m1146054769
k0d:_Convert_ToByte_m1201588964
N9a:__ZN12MeshRenderer17MainThreadCleanupEv
sza:__ZN22CreateGpuProgramOutput12CreateParamsEv
BQ:__ZN10ObjectPoolIN4FMOD7ChannelENS0_8ChannelIEE7GetFreeEi
Rtg:__ZL55EventBuilder_t2927243889_CustomAttributesCacheGeneratorP21CustomAttributesCache
iXf:_RuntimeMethodHandle_GetHashCode_m2682236001_AdjustorThunk
CPi:_AudioListenerExtension_get_audioListener_m2614481031
Rph:__Z54RuntimeInvoker_Void_t1841601450_UILineInfo_t3621277874PFvvEPK10MethodInfoPvPS4_
Jcj:__ZNSt3__26vectorIiNS_9allocatorIiEEE21__push_back_slow_pathIiEEvOT_
ukh:__Z45RuntimeInvoker_HorizontalWrapMode_t2027154177PFvvEPK10MethodInfoPvPS4_
Tma:__ZNK14GfxContextGLES13GetDefaultFBOEv
xge:_Array_InternalArray__ICollection_Remove_TisSByte_t454417549_m2474211570_gshared
Cod:_Evidence_get_IsSynchronized_m1427392003
rMb:__ZN14GraphicsHelper5ClearE13GfxClearFlagsRK10ColorRGBAffjR17ShaderPassContext
kxi:_RectTransform_set_anchorMax_m1168582032
Cfc:__Z13GetImagePixelI10ColorRGBAfET_PKhii13TextureFormat15TextureWrapModeS5_ii
Aaj:_il2cpp_class_is_enum
LEf:_AuthorityKeyIdentifierExtension_get_Identifier_m3535568551
ePa:__ZNSt3__23mapIN9ShaderLab16FastPropertyNameEN18UnityPropertySheet11UnityTexEnvENS_4lessIS2_EENS_9allocatorINS_4pairIKS2_S4_EEEEEixERS9_
lva:__ZNK13TranslateGLES25GetTextureTargetDimensionEj
Eoe:_Array_InternalArray__set_Item_TisByte_t3683104436_m1694926640_gshared
Dgf:_Collection_1_System_Collections_IList_Contains_m1897568526_gshared
ufg:_FieldBuilder_get_FieldType_m2267463269
eQd:_SimpleEnumerator_Clone_m3032847657
pci:_PatternCompiler_EmitInfo_m597931026
qsf:_ModulusRing_Multiply_m3113924743
Opc:__Z47Texture2D_CUSTOM_INTERNAL_CALL_GetPixelBilinearP12Il2CppObjectffR10ColorRGBAf
v5:__ZN9Scripting12LogExceptionE21ScriptingExceptionPtriPKcb
$yf:_Context_get_ServerSettings_m225713600
Ki:_emscripten_glVertexAttrib4f
Qkf:_ReadOnlyCollection_1_System_Collections_IEnumerable_GetEnumerator_m531171980_gshared
Qnb:__ZNSt3__26vectorIN20GpuProgramParameters14ConstantBufferENS_9allocatorIS2_EEE8__appendEj
Qwi:_RectOffset__ctor_m976836251
gre:_Array_Sort_TisUILineInfo_t3621277874_m3105833015_gshared
jWe:_MonoType_GetGenericArguments_m2708198481
mVb:__ZN11HaloManager21ReleaseGeometryJobMemEP25DynamicVBOGeometryJobData
r0e:_List_1_AddEnumerable_m2489692396_gshared
ykh:__Z51RuntimeInvoker_Color_t2020392075_Single_t2076509932PFvvEPK10MethodInfoPvPS4_
jNi:_GenericEqualityComparer_1_GetHashCode_m3450627064_gshared
W1f:_WaitHandle__ctor_m1256161634
gB:__ZN7mecanim12statemachine24CreateStateMachineMemoryEPKNS0_20StateMachineConstantERNS_6memory9AllocatorE
Nyh:_Enumerator_get_Current_m419581838_AdjustorThunk
vka:__ZN9GfxDevice18SetGlobalDepthBiasEff
P7i:__ZN6il2cpp6icalls8mscorlib6System8MonoType12get_AssemblyEP20Il2CppReflectionType
Hwf:_TlsStream_Write_m3425460533
svi:_Vector3_get_normalized_m1057036856
XFd:_FontData_get_richText_m2013560754
Lpd:_SecurityException_get_PermissionType_m3543350822
Yi:_emscripten_glGetPointerv
VF:__ZN8Animator22ApplyBuiltinRootMotionEv
Ssj:__ZN15dense_hashtableI10KeyWrapperIP18Il2CppGenericClassES3_N6il2cpp8metadata22Il2CppGenericClassHashEN14dense_hash_setIS3_S6_NS3_14EqualsComparerINS5_25Il2CppGenericClassCompareEEENSt3__29allocatorIS3_EEE8IdentityESA_SD_E5clearEv
GMb:__Z26ApplyMaterialPassWithCacheRK18SharedMaterialDataR17ShaderPassContextP6ShaderPN9ShaderLab4PassEibPKNS6_10GrabPassesEPNS6_11SubProgramsEPK22DeviceRenderStateBlock
$fe:_Array_InternalArray__ICollection_Remove_TisKeyValuePair_2_t3716250094_m2566517826_gshared
Eqj:__ZN30dense_hashtable_const_iteratorINSt3__24pairIK10KeyWrapperIP14Il2CppIUnknownEjEES5_N6il2cpp5utils11PointerHashIS3_EEN14dense_hash_mapIS5_jSB_NS5_14EqualsComparerINS0_8equal_toIS4_EEEENS0_9allocatorIS7_EEE9SelectKeyESG_SI_EppEv
N3a:__ZN8Renderer23VirtualRedirectTransferER14SafeBinaryRead
jeg:_DerivedType_get_UnderlyingSystemType_m3904230233
Ixd:_PointerEventData_get_rawPointerPress_m448871540
TTa:__Z27ConvertSubMeshesToTrianglesR13dynamic_arrayI7SubMeshLj4EERS_ItLj2EE
V$i:__ZN6il2cpp2vmL15GetBitmapNoInitEP11Il2CppClassPjRjj
s5b:__ZL13MotionHandleriPK27EmscriptenDeviceMotionEventPv
ALf:_X509Certificate2Collection__ctor_m819526826
ZO:__ZN12AudioManager5ResetEv
$th:__Z75RuntimeInvoker_RuntimeObject_Single_t2076509932_RuntimeObject_RuntimeObjectPFvvEPK10MethodInfoPvPS4_
Dtf:_KeyBuilder_Key_m3814433741
uFe:_ArgumentException__ctor_m158205422
rje:_Array_compare_TisVector3_t2243707580_m3709184876_gshared
kId:_HorizontalLayoutGroup_SetLayoutHorizontal_m3237355818
kta:__ZN6prcoreL17RemapGenericFloatI17TexFormatRGBAHalf15TexFormatRGHalfEEvPKNS_9InnerInfoE
Tij:__ZNK15dense_hashtableINSt3__24pairIK10KeyWrapperIPK14Il2CppAssemblyEPK22Il2CppMonoAssemblyNameEES6_N6il2cpp5utils11PointerHashIS4_EEN14dense_hash_mapIS6_SA_SF_NS6_14EqualsComparerINS0_8equal_toIS5_EEEENS0_9allocatorISB_EEE9SelectKeyESK_SM_E10test_emptyEj
sxj:__ZN6il2cpp6icalls8mscorlib6System11Environment20GetWindowsFolderPathEi
S$g:__ZL60AspectRatioFitter_t3114550109_CustomAttributesCacheGeneratorP21CustomAttributesCache
Wz:__ZN7mecanim5human18HumanPoseBlendNodeERNS0_9HumanPoseEPS1_f
yUc:_UNITY_FT_RoundFix
Znb:__ZN9ShaderLab20SerializedSubProgram15AddTextureParamEPKcii16TextureDimension
kY:__ZN23CloudWebServicesManager23VirtualRedirectTransferER17RemapPPtrTransfer
Ft:__Z14resize_trimmedINSt3__26vectorI24CompressedAnimationCurve13stl_allocatorIS2_L18MemLabelIdentifier26ELi16EEEEEvRT_j
ogi:_Uri_get_Parser_m2250631932
P9a:__ZNK12MeshRenderer22GetTypeVirtualInternalEv
Wzi:_Touch_get_type_m1491424279_AdjustorThunk
nGd:_Graphic_set_color_m646149893
ZDh:_Dictionary_2_System_Collections_ICollection_get_IsSynchronized_m960517203_gshared
jYa:__ZN14SafeBinaryRead19TransferSTLStyleMapINSt3__23mapIN4core12basic_stringIcNS3_20StringStorageDefaultIcEEEES7_NS1_4lessIS7_EE13stl_allocatorINS1_4pairIKS7_S7_EEL18MemLabelIdentifier1ELi16EEEEEEvRT_17TransferMetaFlags
B6f:_Type_MakeByRefType_m1323101575
l6c:__ZN2UI6Canvas27UpdateEventIndexesRecursiveERi
Dy:__ZN7mecanim9animation18EvaluateRootMotionERKNS0_18ClipMuscleConstantERKNS0_15ClipMuscleInputEPKfS8_RNS0_12MotionOutputEb
eZ:__ZN11UnityEngine15CloudWebService16SessionContainer21PrepareDataErrorEventERN4core12basic_stringIcNS2_20StringStorageDefaultIcEEEE
_Uc:_UNITY_FT_Outline_New
QSg:__ZL98Event_t3028476042_CustomAttributesCacheGenerator_Event_Internal_MakeMasterEventCurrent_m3691313142P21CustomAttributesCache
$yj:__ZNSt3__218uninitialized_copyIPNS_4pairIK10KeyWrapperIPK19Il2CppGenericMethodEP10MethodInfoEESB_EET0_T_SD_SC_
HCb:__Z19TransferField_ArrayI19StreamedBinaryWriteILb0EE27Converter_SimpleNativeClassI8GUIStyleEEvRK23StaticTransferFieldInfoR31RuntimeSerializationCommandInfoRT0_
NMh:_Scrollbar_SetDirection_m3264558284
hUc:__ZN20TextRenderingPrivate8TextMesh23VirtualRedirectTransferER18StreamedBinaryReadILb0EE
GWj:_emscripten_glCopyTexSubImage2D__wrapper
U4a:__ZNK13ScreenManager12GetIsFocusedEv
sEj:_maybe_finalize
oui:_PlayableHandle_IsValidInternal_m3315870994
LTf:_RemotingServices_RegisterInternalChannels_m1827304423
fzc:__Z35Transfer_Blittable_FixedBufferFieldI8JSONReadiEvRK29SerializationCommandArgumentsR31RuntimeSerializationCommandInfo
S6i:__ZNSt3__213__vector_baseIN6il2cpp2os19SocketHandleWrapperENS_9allocatorIS3_EEED2Ev
Nye:_ASN1_get_Length_m3359111015
dhh:__Z66RuntimeInvoker_InternalShaderChannel_t3331827198_Int32_t2071877448PFvvEPK10MethodInfoPvPS4_
aeh:__Z77RuntimeInvoker_RuntimeObject_Int32_t2071877448_RuntimeObject_SByte_t454417549PFvvEPK10MethodInfoPvPS4_
gc:invoke_viiffi
CGe:_RegionInfo_GetByTerritory_m3452395101
j3b:__ZN13sorted_vectorINSt3__24pairIN4core12basic_stringIcNS2_20StringStorageDefaultIcEEEEPK17MessageIdentifierEEN10vector_mapIS6_S9_NS0_4lessIS6_EENS0_9allocatorISA_EEE13value_compareESF_E10insert_oneERKSA_
UF:__ZNSt3__227__insertion_sort_incompleteIRPFbPKN8Animator11AnimatorJobES4_EPS4_EEbT0_S9_T_
RY:__ZNSt3__26__treeINS_12__value_typeIN4core12basic_stringIcNS2_20StringStorageDefaultIcEEEEjEENS_19__map_value_compareIS6_S7_NS_4lessIS6_EELb1EEE13stl_allocatorIS7_L18MemLabelIdentifier88ELi16EEE4findIS6_EENS_15__tree_iteratorIS7_PNS_11__tree_nodeIS7_PvEEiEERKT_
Q2f:_Thread_GetCachedCurrentUICulture_m5590127
Wgh:__Z36RuntimeInvoker_Matrix4x4_t2933234003PFvvEPK10MethodInfoPvPS4_
V_a:__ZNK12CubemapArray20GetRuntimeMemorySizeEv
AJi:_GUILayoutEntry_get_margin_m3913640621
a8h:_CrossAppDomainSink_get_TargetDomainId_m775204051
Klb:__Z14resize_trimmedINSt3__26vectorIN9ShaderLab18SerializedPropertyENS0_9allocatorIS3_EEEEEvRT_j
Z8e:_List_1_CheckMatch_m4018158235_gshared
zxb:__Z18Transfer_BlittableI17RemapPPtrTransferLb0EN4math12int3_storageEEvRK29SerializationCommandArgumentsR31RuntimeSerializationCommandInfo
Kwe:_Context_t2636657155_marshal_pinvoke_back
S4i:__ZN6il2cpp2vm13MetadataCache38GetMethodInfoFromMethodDefinitionIndexEi
wSd:_Byte_System_IConvertible_ToDateTime_m1583041031
oRi:__ZL24UnresolvedVirtualCall_68P12Il2CppObjectS0_iS0_S0_S0_S0_S0_S0_PK10MethodInfo
T5a:__ZN10VertexData8TransferI24GenerateTypeTreeTransferEEvRT_
pVg:__ZL100CanvasRenderer_t261436805_CustomAttributesCacheGenerator_CanvasRenderer_get_absoluteDepth_m606892957P21CustomAttributesCache
Gyj:__ZN13Il2CppHashMapIPK19Il2CppGenericMethodP10MethodInfoN6il2cpp8metadata23Il2CppGenericMethodHashENS6_26Il2CppGenericMethodCompareENSt3__29allocatorINS9_4pairIK10KeyWrapperIS2_ES4_EEEEEC2EjRKS7_RKS8_
ECe:_EncryptedData_get_EncryptionAlgorithm_m1301274243
QHh:_EqualityComparer_1_System_Collections_IEqualityComparer_Equals_m1089835085_gshared
f_b:__ZL10CullLightsRK22SceneCullingParametersR11CullResults
tFd:_Dropdown__cctor_m264401557
xPd:_Array_IndexOf_m2819632474
Evi:_Ray_GetPoint_m2427899009_AdjustorThunk
o4h:_Comparer_1__cctor_m3996541505_gshared
bB:__ZN7mecanim12statemachine20GetBlendTreeConstantERKNS0_13StateConstantEi
Z5b:__Z40GetTemporaryCachePathApplicationSpecificv
Cia:__ZN9GfxDevice16EndAsyncJobFrameEv
sJd:_Image_get_minWidth_m1809071077
phj:__ZNK15dense_hashtableINSt3__24pairIK10KeyWrapperINS1_IPK12PropertyInfoP11Il2CppClassEEEjEES9_17ReflectionMapHashIS8_EN14dense_hash_mapIS9_jSD_NS9_14EqualsComparerINS0_8equal_toIS8_EEEENS0_9allocatorISB_EEE9SelectKeyESI_SK_E10test_emptyERK30dense_hashtable_const_iteratorISB_S9_SD_SM_SI_SK_E
oWc:_UNITY_tt_face_load_hhea
T9h:_ContextAttribute_IsNewContextOK_m2186905629
K$d:_Convert_ToBase64String_m1936815455
Sk:___syscall3
Vk:___syscall6
Yja:__ZN9GfxDevice15GetNextCPUFenceEv
Xk:___syscall4
g9d:_Decimal_ToString_m759431975
uhf:_Collection_1_System_Collections_IList_get_IsFixedSize_m2204750039_gshared
Nsb:__ZNSt3__26__treeINS_12__value_typeIN4core12basic_stringIcNS2_20StringStorageDefaultIcEEEEPN16MemoryFileSystem4NodeEEENS_19__map_value_compareIS6_SA_NS_4lessIS6_EELb1EEE13stl_allocatorISA_L18MemLabelIdentifier55ELi16EEE7destroyEPNS_11__tree_nodeISA_PvEE
_Ad:_ColorBlock_get_fadeDuration_m987725262
d_g:__ZL195U3CMouseDragOutsideRectU3Ec__Iterator1_t2599668326_CustomAttributesCacheGenerator_U3CMouseDragOutsideRectU3Ec__Iterator1_System_Collections_Generic_IEnumeratorU3CobjectU3E_get_Current_m2602955272P21CustomAttributesCache
dgh:__Z86RuntimeInvoker_Void_t1841601450_RuntimeObject_Vector3U26_t425862308_RayU26_t3651946800PFvvEPK10MethodInfoPvPS4_
vYf:_CryptographicException__ctor_m2415891459
yLc:__ZNSt3__26__sortIR24RayHitsByDepthComparitorP12RaycastHit2DEEvT0_S5_T_
Pia:__ZN9GfxDevice27UpdateComputeSkinPoseBufferE15ComputeBufferIDP12SkinMeshInfo
f3e:_List_1_AddCollection_m3266731889_gshared
cyg:__ZL59ITrackingHandler_t2759960940_CustomAttributesCacheGeneratorP21CustomAttributesCache
ll:_emscripten_glShaderBinary
l3f:_DelegatePInvokeWrapper_ThreadStart_t3437517264
_pe:_Array_qsort_TisVector2_t2243707579_TisVector2_t2243707579_m3308480721_gshared
zOd:_Array_InternalArray__RemoveAt_m1126483634
Krb:__ZNK20LocalFileSystemPosix6ExistsERK13FileEntryData
lYh:_InternalEnumerator_1_Dispose_m4038440306_AdjustorThunk
ddh:__Z21RuntimeInvoker_Guid_tPFvvEPK10MethodInfoPvPS4_
PIi:_GUI_CallWindowDelegate_m2603162942
EFf:_DictionaryNodeEnumerator_get_DictionaryNode_m3521889822
by:__ZN7mecanim5human19MaskHasLeftFootGoalERKNS_6bitsetILj70EEE
roh:__Z101RuntimeInvoker_Int32_t2071877448_RuntimeObject_Color32_t874517518_Int32_t2071877448_Int32_t2071877448PFvvEPK10MethodInfoPvPS4_
H9c:__Z58Register_UnityEngine_Canvas_GetETC1SupportedCanvasMaterialv
eFb:__ZN17AnimationCurveTplIfE8TransferI18StreamedBinaryReadILb1EEEEvRT_
i7d:_DateTimeOffset_GetHashCode_m3312197462_AdjustorThunk
Ybd:__ZN18UnityConnectClientD2Ev
bIf:_ServicePoint_set_UseNagleAlgorithm_m2618011464
S9i:_il2cpp_set_data_dir
jgi:_Uri_get_IsUnc_m2111738174
uEg:__ZL79Convert_t2607082565_CustomAttributesCacheGenerator_Convert_ToUInt64_m1691869628P21CustomAttributesCache
GKa:__ZN16LevelGameManager23VirtualRedirectTransferER19StreamedBinaryWriteILb0EE
O5a:__Z32TransferEnumWithNameForceIntSizeI14SafeBinaryRead16GfxPrimitiveTypeEvRT_RT0_PKc17TransferMetaFlags
c3h:_DefaultComparer__ctor_m1961329658_gshared
Thg:_ParameterBuilder_get_Attributes_m2421099277
Bmh:__Z66RuntimeInvoker_Void_t1841601450_ObjectU26_t597476745_RuntimeObjectPFvvEPK10MethodInfoPvPS4_
Iig:_TypeBuilder_IsValueTypeImpl_m1499671481
abd:__ZN11UnityEngine15PlatformWrapper30GetGraphicsDriverLibraryStringEv
pRg:__ZL51UIVertex_t1204258818_CustomAttributesCacheGeneratorP21CustomAttributesCache
H3e:_List_1_get_Count_m1752597149_gshared
Luf:_EncryptedPrivateKeyInfo_Decode_m1706190306
HAh:_ValueCollection_GetEnumerator_m401908452_gshared
BGb:__Z18Transfer_BlittableI18StreamedBinaryReadILb0EELb0E4AABBEvRK29SerializationCommandArgumentsR31RuntimeSerializationCommandInfo
DPi:_AudioListener_ClearExtensionProperties_m2267088681
MK:__ZN16MecanimAnimation24DeleteAnimatedPropertiesERP26IAnimatedPropertyEvaluator
lah:__Z42RuntimeInvoker_CspProviderFlags_t105264000PFvvEPK10MethodInfoPvPS4_
c4d:_Convert_ToUInt16_m1665900934
OVi:_Converter_2_BeginInvoke_m898151494_gshared
BGe:_RegionInfo__ctor_m2058831971
oQb:__Z14DrawGUITextureRK5RectTIfEP7Texture11ColorRGBA32P8Materiali
OQh:_Text_get_supportRichText_m3291105891
IE:__ZN9BlobWrite8TransferI22OffsetPtrArrayTransferIKN4math7_float4EEEEvRT_PKc17TransferMetaFlags
Epf:_ReadOnlyCollection_1_get_Count_m336636247_gshared
GKi:_GUIUtility_set_systemCopyBuffer_m3458871692
tIc:__ZNK11b2EdgeShape7RayCastEP15b2RayCastOutputRK14b2RayCastInputRK11b2Transformi
zbi:_MatchCollection_GetEnumerator_m3516985966
Qyc:__ZN9JSONWrite8TransferI4AABBEEvRT_PKc17TransferMetaFlags
T_f:_UTF7Encoding__ctor_m2365939916
GIa:__ZN25MultiBlocksMemoryFileData9SetLengthEy
JZi:_Animator_SetTrigger_m2003713590
pki:_DelegatePInvokeWrapper_StateChanged_t2480912210
yJh:_MatEntry__ctor_m3650167335
CHi:_ListPool_1_U3Cs_ListPoolU3Em__0_m441310157_gshared
tCc:__ZN10Collider2D13AwakeFromLoadE17AwakeFromLoadMode
Z$a:__ZNK9Texture2D20GetRuntimeMemorySizeEv
H6f:_TypeInitializationException__ctor_m2993591639
fie:_Array_InternalArray__IEnumerable_GetEnumerator_TisRefEmitPermissionSet_t2708608433_m3450905212_gshared
_uc:__ZN5Unity9rapidjson13GenericReaderINS0_4UTF8IcEES3_13JSONAllocatorE9ParseTrueILj0ENS0_19GenericStringStreamIS3_EENS0_15GenericDocumentIS3_S4_S4_EEEEvRT0_RT1_
tm:_emscripten_glUniform2iv
rzg:__ZL46DES_t1353513560_CustomAttributesCacheGeneratorP21CustomAttributesCache
BIe:_Int16_System_IConvertible_ToInt64_m733340257
LDg:__ZL79Convert_t2607082565_CustomAttributesCacheGenerator_Convert_ToSingle_m2156102599P21CustomAttributesCache
FSc:_UNITY_FT_Outline_Transform
Ipc:__Z60Register_UnityEngine_Sprites_DataUtility_Internal_GetMinSizev
m0i:__ZN6il2cpp2vm5Class10GetMethodsEP11Il2CppClassPPv
Xed:__ZNK25UnityWebRequestJavaScript17GetUploadProgressEv
WVb:__Z30AddDefaultStreamsToMeshBuffersR9GfxDeviceR11MeshBuffersRK16DrawBuffersRange17ShaderChannelMaskS6_
koh:__Z86RuntimeInvoker_Int32_t2071877448_Vector2_t2243707579_Vector2_t2243707579_RuntimeObjectPFvvEPK10MethodInfoPvPS4_
Ava:__ZN7ApiGLES17DeleteFramebufferERN2gl6HandleILNS0_10ObjectTypeE9EEES3_
pii:_Bounds_get_center_m2113902127_AdjustorThunk
vya:__ZN15UniformTFMethod13MapBoneBufferEj
Yxf:_RecordProtocol_SendAlert_m2816808523
c5c:__ZN2UI14CanvasRendererD2Ev
fQg:__ZL113PlayerConnection_t3517219175_CustomAttributesCacheGenerator_PlayerConnection_ConnectedCallbackInternal_m286884446P21CustomAttributesCache
yQf:_MethodCall_get_LogicalCallContext_m3769562079
hnj:__ZN6il2cpp6icalls8mscorlib6System5Array8SetValueEP11Il2CppArrayP12Il2CppObjectS5_
GSe:_SynchronizedReader_Read_m1399666181
zkg:_MonoEvent_get_Name_m2796714646
ALb:__Z9SetupArgviPPKc
tZi:_AnimationOffsetPlayable__ctor_m1644499845
yph:__Z53RuntimeInvoker_Void_t1841601450_LabelData_t3712112744PFvvEPK10MethodInfoPvPS4_
Aie:_Array_InternalArray__IEnumerable_GetEnumerator_TisHitInfo_t1761367055_m2486283755_gshared
Xxd:_PointerEventData_set_worldNormal_m2025727441
OAi:_Transform_INTERNAL_get_worldToLocalMatrix_m2822011810
dzf:_Context_get_SentConnectionEnd_m3114190867
gDa:__ZN12ImmediatePtrI10GameObjectE8TransferI19StreamedBinaryWriteILb0EEEEvRT_
Z_a:__ZN12CubemapArray23VirtualRedirectTransferER24GenerateTypeTreeTransfer
wQi:__ZL24UnresolvedVirtualCall_22P12Il2CppObjectS0_iS0_S0_S0_PK10MethodInfo
gaa:__ZN12FileAccessor4OpenER15FileSystemEntry14FilePermission16FileAutoBehavior
LSa:__ZNSt3__26vectorI4PPtrI6ShaderE13stl_allocatorIS3_L18MemLabelIdentifier53ELi16EEE8__appendEj
_Oi:_AudioSource_get_spatializeInternal_m4243931620
WSa:__ZN4PPtrI6ShaderE8TransferI18StreamedBinaryReadILb0EEEEvRT_
VPc:__ZL12PhysxJobFuncPN5physx10PxBaseTaskE
c3a:__ZN23TransformChangeDispatch32QueueTransformChangeIfHasChangedERK15TransformAccess
Axd:_PointerEventData_set_clickTime_m3931922487
l9:__ZN15dense_hashtableINSt3__24pairIKiP4RTTIEEiN11TypeManager27HashFunctorPersistentTypeIDEN14dense_hash_mapIiS4_S7_NS0_8equal_toIiEE13stl_allocatorIS5_L18MemLabelIdentifier7ELi16EEE9SelectKeyESA_SD_E12maybe_shrinkEv
NJe:_NumberFormatter_AppendNonNegativeNumber_m629862866
EZa:__ZNSt3__26vectorINS_4pairIN9ShaderLab16FastPropertyNameEN18UnityPropertySheet11UnityTexEnvEEENS_9allocatorIS6_EEE21__push_back_slow_pathIKS6_EEvRT_
pIa:__ZN15ArchiveReadFile5WriteEyPKvPy
n5h:_ResourceInfo__ctor_m2401359321_AdjustorThunk
oxj:__ZN6il2cpp2os26LibraryNamePrefixAndSuffixC2EPKcS3_
bpe:_Array_InternalArray__set_Item_TisMonoResource_t3127387157_m732733855_gshared
aGi:_UnityEvent_1_Invoke_m1599856953_gshared
SYd:_Hashtable__ctor_m392789568
Q0f:_UTF7Encoding__cctor_m4192443836
B:tempValue
J4b:__Z29StdTemplateConversionFunctionIaiEbPvR14SafeBinaryRead
Zki:_Display_get_systemHeight_m3140485477
E0e:_List_1_Insert_m4101600027_gshared
FIe:_Int16_System_IConvertible_ToSingle_m3277935657
Z5:__Z29scripting_class_from_fullnamePKcS0_S0_
bCi:_Vector3_get_sqrMagnitude_m1445517847_AdjustorThunk
zLh:_Raycast3DCallback_Invoke_m2271859924
CB:__ZN26AnimatorControllerPlayable18DeallocateBindingsEv
uU:__ZN11AudioSource19CreateOpenALRolloffEfff
bXc:_UNITY_FT_Stream_ReadAt
T5g:__Z38RuntimeInvoker_MemberTypes_t3343038963PFvvEPK10MethodInfoPvPS4_
dvh:_Enumerator_get_CurrentKey_m2387752419_AdjustorThunk
b4i:__ZN15dense_hashtableINSt3__24pairIK10KeyWrapperIN6il2cpp5utils13dynamic_arrayIPK10Il2CppTypeLj4EEEEPFvvEEESA_NS3_8metadata19Il2CppSignatureHashEN14dense_hash_mapISA_SD_SG_NSA_14EqualsComparerINSF_22Il2CppSignatureCompareEEENS0_9allocatorISE_EEE9SelectKeyESK_SM_E9set_valueEPSE_RKSE_
icj:_RaycastHit_get_point_m3350410423
Wli:_UnityEventBase_FindMethod_m2780816114
L6f:_UInt16_System_IConvertible_ToBoolean_m887616848
gV:__ZN11AudioModule22CreateAudioClipFromWWWEP10IWWWStreamPKcbbi
F$f:_StringBuilder_set_Length_m3039225444
Elh:__Z37RuntimeInvoker_AspectMode_t1166448724PFvvEPK10MethodInfoPvPS4_
nhf:_Collection_1_System_Collections_IList_Contains_m3870109702_gshared
Cfe:_Array_InternalArray__ICollection_Contains_TisRaycastResult_t21186376_m3188614988_gshared
N4d:_CultureAwareComparer_GetHashCode_m3681260951
l7c:__Z13RegisterClassIN2UI11CanvasGroupEEvv
yIg:__ZL90Application_t354826772_CustomAttributesCacheGenerator_Application_get_platform_m1727035749P21CustomAttributesCache
fHi:_U3CStartU3Ec__Iterator0__ctor_m951808111_gshared
f6b:__ZN6prcoreL11inner_clearILj4EEEvPhjjj
rf:_emscripten_glClear
ILh:_Selectable__ctor_m1440593935
ySi:__ZL25UnresolvedVirtualCall_132P12Il2CppObject17Color_t2020392075faaaPK10MethodInfo
uda:__ZNK8Playable6HandleEv
$Oj:___cxa_guard_abort
Ccg:_CustomAttributeTypedArgument_t1498197914_marshal_pinvoke_back
i8:__ZN14MessageHandler28MessageIDToMessageIdentifierEi
UGf:_HttpRequestCreator_Create_m3607509610
HTg:__ZL50GUISkin_t1436893342_CustomAttributesCacheGeneratorP21CustomAttributesCache
n6a:__ZNK11SpriteAtlas20GetRuntimeRenderDataEPK6Sprite
_9e:_List_1_Shift_m3824049528_gshared
rUf:_ArrayFixupRecord__ctor_m3659990982
pzf:_Context_get_RandomCS_m3946020109
Fog:__ZL72IntPtr_t_CustomAttributesCacheGenerator_IntPtr_op_Inequality_m3044532593P21CustomAttributesCache
FEd:_Dropdown_get_onValueChanged_m3334401942
KFj:__ZN6il2cpp2vm10WaitHandle19NewManualResetEventEb
dnf:_ReadOnlyCollection_1_System_Collections_IList_Contains_m3707723158_gshared
NSc:__ZN20TextRenderingPrivate15DynamicFontData36GetFaceForCharacterIfAvailableInFontERKNS_7FontRefERK13dynamic_arrayI4PPtrIN13TextRendering4FontEELj4EEj
LPi:_AudioExtensionManager_GetReadyToPlay_m3272224102
yz:__ZN7mecanim14ValueArrayCopyILb0EEEvPKNS_10ValueArrayEPS1_
tM:__Z51Register_UnityEngine_Animator_get_hasBoundPlayablesv
EWi:_Nullable_1_ToString_m1238126148_AdjustorThunk
hTg:__ZL87GUIStyle_t1799908754_CustomAttributesCacheGenerator_GUIStyle_get_fixedWidth_m2528231637P21CustomAttributesCache
Id:emscriptenWebGLGetUniform
yo:FUNCTION_TABLE_iiiiiiiiiii
p$a:__Z32TransferEnumWithNameForceIntSizeI14SafeBinaryRead13TextureFormatEvRT_RT0_PKc17TransferMetaFlags
F_g:__ZL86Scrollbar_t3248359358_CustomAttributesCacheGenerator_Scrollbar_ClickRepeat_m3403943364P21CustomAttributesCache
M$b:__ZL10CleanUpJobP20CullingGroupsJobData
gUd:_Char_CompareTo_m3044885427_AdjustorThunk
KOe:_FileStream_GetSecureFileName_m508045384
VVb:__Z20IsRunningNativeTestsv
G_h:_InternalEnumerator_1_System_Collections_IEnumerator_get_Current_m2035754659_AdjustorThunk
vcb:__ZN11TimeManager23VirtualRedirectTransferER17RemapPPtrTransfer
fQb:__ZN13RenderManager15BatchModeUpdateEv
aXi:_Predicate_1_EndInvoke_m973058386_gshared
jLg:__ZL52LayerMask_t3188175821_CustomAttributesCacheGeneratorP21CustomAttributesCache
v5a:__ZN14SafeBinaryRead21TransferSTLStyleArrayI13dynamic_arrayI8Vector2fLj4EEEEvRT_17TransferMetaFlags
iDa:__ZN17PersistentManager51InstanceIDToLocalSerializedObjectIdentifierInternalEiR31LocalSerializedObjectIdentifier
lHc:__ZN10ClipperLib7Clipper15SetWindingCountERNS_5TEdgeE
JQ:__ZL16FMOD_ErrorString11FMOD_RESULT_658
Qmg:_StrongNameKeyPair_System_Runtime_Serialization_IDeserializationCallback_OnDeserialization_m2330221363
Y$c:_UNITY_FT_Create_Class_cff_services
a3h:_DefaultComparer__ctor_m1661558765_gshared
ld:_glVertexAttribIPointer
L9f:_UnhandledExceptionEventHandler_EndInvoke_m2207457167
yOg:__ZL114ManagedStreamHelpers_t1667331974_CustomAttributesCacheGenerator_ManagedStreamHelpers_ManagedStreamSeek_m4230262206P21CustomAttributesCache
Xhd:_HMAC_set_HashName_m457235014
Ofc:__ZNK6Sprite10GetPaddingE20SpriteRenderDataMode
p$i:__ZN6il2cpp2vm5Class11GetPtrClassEPK10Il2CppType
Lee:_Array_InternalArray__ICollection_Contains_TisTableRange_t2011406615_m605506746_gshared
lBh:_Dictionary_2_Add_m1296007576_gshared
M3d:_Decimal_op_Explicit_m729046406
FYf:_CryptoConfig_CreateFromName_m2169102076
NGd:_Graphic_OnEnable_m2900261811
IYf:_CryptographicUnexpectedOperationException__ctor_m3552441227
RTb:__ZN14qsort_internal5QSortIP15RODataDepthPassi17ROSorterDepthPassEEvT_S4_T0_T1_
SVd:_ArrayListWrapper_Clear_m321161741
NLd:_InputField_LineDownCharacterPosition_m2690468785
aXc:_UNITY_ft_glyphslot_alloc_bitmap
kre:_Array_Sort_TisVector2_t2243707579_TisVector2_t2243707579_m2582252549_gshared
L8f:_UInt64_System_IConvertible_ToDouble_m2828923873
R2i:__ZN15dense_hashtableI10KeyWrapperIPK17Il2CppGenericInstES4_N6il2cpp8metadata21Il2CppGenericInstHashEN14dense_hash_setIS4_S7_NS4_14EqualsComparerINS6_24Il2CppGenericInstCompareEEENSt3__29allocatorIS4_EEE8IdentityESB_SE_E16reset_thresholdsEv
Y4e:_List_1_System_Collections_IList_set_Item_m1129584681_gshared
w2f:_SendOrPostCallback__ctor_m107067079
xYc:_ft_raster1_render
rrc:__Z47Register_UnityEngine_Mesh_RecalculateBoundsImplv
P0e:_List_1_set_Capacity_m491101164_gshared
LNj:__ZNKSt3__221__basic_string_commonILb1EE20__throw_length_errorEv
c0f:_StringBuilder_Insert_m1733097906
r4h:_Comparer_1__ctor_m1157133632_gshared
MDf:_SslStreamBase_get_HashStrength_m480059173
nwa:__ZN18GfxFramebufferGLES13ReadbackImageER14ImageReferenceiiiiii
Cvc:__ZN5Unity9rapidjson6WriterI16TempBufferWriterNS0_4UTF8IcEES4_13JSONAllocatorE11WriteStringEPKcj
vzh:_ValueCollection_System_Collections_Generic_ICollectionU3CTValueU3E_Clear_m3271993638_gshared
cfh:__Z35RuntimeInvoker_Position_t3781184359PFvvEPK10MethodInfoPvPS4_
v$d:_Enumerator_MoveNext_m1419609883
jQ:__ZN4FMOD7Channel19setReverbPropertiesEPK29FMOD_REVERB_CHANNELPROPERTIES
I7:__ZN13MonoBehaviour22GetScriptFullClassNameEv
hbj:_il2cpp_object_get_class
Otg:__ZL111DerivedType_t1016359113_CustomAttributesCacheGenerator_DerivedType_MakeGenericType_m742223168____typeArguments0P21CustomAttributesCache
pvi:_RangeInt_get_end_m480861812
Apf:_ReadOnlyCollection_1_Contains_m1816350632_gshared
bHf:_ServicePointManager_FindServicePoint_m3137356168
xJb:__ZN13MonoBehaviour9CallAwakeEv
emi:_UnityEvent__ctor_m3488719202
OVa:__ZN20SphericalHarmonicsL211AddWeightedERKS_f
ZWg:__ZL106PointerEventData_t1599784723_CustomAttributesCacheGenerator_PointerEventData_set_pressPosition_m2094137883P21CustomAttributesCache
nyd:_PointerInputModule_GetPointerData_m1695674453
oah:__Z90RuntimeInvoker_Void_t1841601450_RuntimeObject_RuntimeObject_RuntimeObject_SByte_t454417549PFvvEPK10MethodInfoPvPS4_
Myb:__Z19TransferField_ArrayI17RemapPPtrTransfer27Converter_SimpleNativeClassI8GUIStyleEEvRK23StaticTransferFieldInfoR31RuntimeSerializationCommandInfoRT0_
d5:__ZL22StaticInitializeShaderPv
I4d:_Convert_ToUInt64_m345450801
HWi:_Predicate_1_BeginInvoke_m2559992383_gshared
iwc:__ZN9JSONWrite8TransferI10ColorRGBAfEEvRT_PKc17TransferMetaFlags
c7e:_List_1_Find_m1270109362_gshared
hKj:_PersoController2_Update_m2114377951
c8:__Z25scripting_method_get_name18ScriptingMethodPtr
dxb:__Z19TransferField_ArrayI14SafeBinaryRead16Converter_StringEvRK23StaticTransferFieldInfoR31RuntimeSerializationCommandInfoRT0_
eNj:_rename
jEj:_GC_exit_check
AWe:_NotSupportedException__ctor_m3232764727
Ds:__ZN7mecanim9animation9DenseClip8TransferI14SafeBinaryReadEEvRT_
uGf:_TypeConverterAttribute_Equals_m2330345916
Ceh:__Z90RuntimeInvoker_Boolean_t3825574718_Int32_t2071877448_Int32U26_t455636984_Int32_t2071877448PFvvEPK10MethodInfoPvPS4_
ATi:__ZL25UnresolvedVirtualCall_188P12Il2CppObjectiPK10MethodInfo
D6:__Z20UnlockObjectCreationv
bLg:__ZL89Input_t1785128008_CustomAttributesCacheGenerator_Input_INTERNAL_CALL_GetTouch_m1374677231P21CustomAttributesCache
eZh:_InternalEnumerator_1_System_Collections_IEnumerator_get_Current_m1038263751_gshared
Egh:__Z54RuntimeInvoker_Int32_t2071877448_LayerMask_t3188175821PFvvEPK10MethodInfoPvPS4_
kOe:_MonoIO_CreateDirectory_m379525469
y3b:__ZNSt3__26vectorINS_4pairIN4core12basic_stringIcNS2_20StringStorageDefaultIcEEEES6_EE13stl_allocatorIS7_L18MemLabelIdentifier38ELi16EEE6insertENS_11__wrap_iterIPKS7_EERSD_
Xhc:__ZN8Material28ApplyMaterialPropertyDrawersEv
zE:__ZN9BlobWrite8TransferI22OffsetPtrArrayTransferI9OffsetPtrIN7mecanim12statemachine18StateMachineMemoryEEEEEvRT_PKc17TransferMetaFlags
Ufd:__ZNK14TransportProtoI12HeaderHelper15DownloadHandler13UploadHandler14ResponseHelperE13IsSynchronousEv
kVc:_UNITY_ft_smooth_renderer_class_pic_free
I7e:_List_1_System_Collections_IList_Remove_m3763718607_gshared
hf:_emscripten_glStencilOpSeparate
Srd:_String_Concat_m2000667605
A$i:__ZN24dense_hashtable_iteratorINSt3__24pairIK10KeyWrapperIPK22Il2CppGenericParameterEP11Il2CppClassEES6_N6il2cpp5utils11PointerHashIS4_EEN14dense_hash_mapIS6_S9_SE_NS6_14EqualsComparerINS0_8equal_toIS5_EEEENS0_9allocatorISA_EEE9SelectKeyESJ_SL_E30advance_past_empty_and_deletedEv
yzj:__ZN6il2cpp2vm6String8NewUtf16EPKDsi
rUg:__ZL61Tile_t429716126_CustomAttributesCacheGenerator_m_ColliderTypeP21CustomAttributesCache
swj:__ZN6il2cpp2os10ThreadImpl12QueueUserAPCEPFvPvES2_
cN:__Z32TransferEnumWithNameForceIntSizeI14SafeBinaryReadN10SampleClip17CompressionFormatEEvRT_RT0_PKc17TransferMetaFlags
Obd:__ZN22BaseUnityConnectClient10QueueEventERN11UnityEngine15CloudWebService17CloudServiceEventEPKcjb
klh:__Z71RuntimeInvoker_Bounds_t3033363703_RuntimeObject_Matrix4x4U26_t266301477PFvvEPK10MethodInfoPvPS4_
Oue:_ExecuteEvents_GetEventHandler_TisRuntimeObject_m3333041576_gshared
a5e:__ZN23InterfaceActionInvoker2IP28UICharInfoU5BU5D_t2749705857iE6InvokeEjP11Il2CppClassP12Il2CppObjectS1_i
rCi:_Vector4__ctor_m3879980823_AdjustorThunk
dmd:_SHA384Managed_unpackWord_m2501009050
AUc:_UNITY_FT_Hypot
MQd:_BitConverter_ToInt64_m1329623425
y9b:__ZN8RendererC2E12RendererType18MemLabelIdentifier18ObjectCreationMode
aBg:__ZL95ASCIIEncoding_t3022927988_CustomAttributesCacheGenerator_ASCIIEncoding_GetByteCount_m1396020051P21CustomAttributesCache
uaj:_il2cpp_class_is_abstract
Bf:_emscripten_glGetError
Jij:__ZN15dense_hashtableINSt3__24pairIK10KeyWrapperIPK14Il2CppAssemblyEPK22Il2CppMonoAssemblyNameEES6_N6il2cpp5utils11PointerHashIS4_EEN14dense_hash_mapIS6_SA_SF_NS6_14EqualsComparerINS0_8equal_toIS5_EEEENS0_9allocatorISB_EEE9SelectKeyESK_SM_E14squash_deletedEv
b3g:__Z70RuntimeInvoker_Boolean_t3825574718_RuntimeObject_UInt64U26_t1611942494PFvvEPK10MethodInfoPvPS4_
WQ:__Z14FMOD_FILE_SeekPvjS_
BQf:_MethodCall_get_Properties_m1893707917
Wog:__ZL72Enum_t2459695545_CustomAttributesCacheGenerator_Enum_ToObject_m604645223P21CustomAttributesCache
Gwh:_ShimEnumerator_get_Entry_m2387156530_gshared
lpg:__ZL82RuntimeArray_CustomAttributesCacheGenerator_Array_SetValue_m2421438042____indices1P21CustomAttributesCache
B4i:__ZN14dense_hash_mapI10KeyWrapperIN6il2cpp5utils13dynamic_arrayIPK10Il2CppTypeLj4EEEEPFvvENS1_8metadata19Il2CppSignatureHashENS8_14EqualsComparerINSB_22Il2CppSignatureCompareEEENSt3__29allocatorINSG_4pairIKS8_SA_EEEEEC2EjRKSC_RKSF_
zHg:__ZL87BigInteger_t925946153_CustomAttributesCacheGenerator_BigInteger_op_Equality_m2683055762P21CustomAttributesCache
gTi:__ZL25UnresolvedVirtualCall_168P12Il2CppObject19Vector3_t2243707580PK10MethodInfo
P0b:__ZNK13RenderTexture32CalculateNeedsInvertedProjectionEv
H5b:__ZN10systeminfo18GetOperatingSystemEv
Jf:emscriptenWebGLGet
vaa:__Z19CanReplaceComponentRN5Unity9ComponentEPKNS_4TypeEPN4core12basic_stringIcNS5_20StringStorageDefaultIcEEEE
kqg:__ZL77RuntimeArray_CustomAttributesCacheGenerator_Array_ConstrainedCopy_m1922927602P21CustomAttributesCache
Yac:__ZN12CubemapArray11InitTextureEiii13TextureFormatb
X5e:_List_1_GrowIfNeeded_m2433342921_gshared
Uhc:__Z17GetSceneBuildInfoRKN4core12basic_stringIcNS_20StringStorageDefaultIcEEEEiR14SceneBuildInfo
KJa:__ZNK15Lz4Decompressor20DecompressStreamInitEPPv
Bfj:__ZN24dense_hashtable_iteratorINSt3__24pairIK10KeyWrapperIPK10Il2CppTypeEjEES6_N6il2cpp8metadata14Il2CppTypeHashEN14dense_hash_mapIS6_jSB_NS6_14EqualsComparerINSA_26Il2CppTypeEqualityComparerEEENS0_9allocatorIS8_EEE9SelectKeyESF_SH_E30advance_past_empty_and_deletedEv
jef:_Collection_1_set_Item_m3803272710_gshared
Hlg:_MonoMethodInfo_t3646562144_marshal_pinvoke_cleanup
kKf:_X509Certificate2_get_SignatureAlgorithm_m3069898012
TGf:_HttpRequestCreator__ctor_m2513916021
TLe:_Int64_System_IConvertible_ToSingle_m1678482180
gF:__ZN7mecanim5human13HumanFixTwistEPKNS0_5HumanEPNS_8skeleton13SkeletonPoseTIN4math4trsXEEES9_iiRKf
GWb:__ZL24AssignProjectorQueuesJobP30AssignProjectorQueuesJobHeader
g4f:_TimeSpan_get_Hours_m3804628138
WFd:_FontData_set_alignByGeometry_m2819509290
Ftj:__ZN14dense_hash_mapI10KeyWrapperIP12Il2CppObjectEN6il2cpp2gc9CachedCCWENS4_5utils11PointerHashIS1_EENS3_14EqualsComparerINSt3__28equal_toIS2_EEEENSB_9allocatorINSB_4pairIKS3_S6_EEEEEC2EjRKS9_RKSE_
Ici:_Regex__ctor_m3250610064
h4i:__ZN15dense_hashtableINSt3__24pairIK10KeyWrapperIN6il2cpp5utils13dynamic_arrayIPK10Il2CppTypeLj4EEEEPFvvEEESA_NS3_8metadata19Il2CppSignatureHashEN14dense_hash_mapISA_SD_SG_NSA_14EqualsComparerINSF_22Il2CppSignatureCompareEEENS0_9allocatorISE_EEE9SelectKeyESK_SM_E4swapERSP_
Wnb:__ZN9ShaderLab20SerializedSubProgram14SetConstBufferEPKci
xFe:_ArgumentNullException__ctor_m911049464
ckg:_TargetParameterCountException__ctor_m2760108938
WRf:_SoapAttribute_SetReflectionObject_m2774156012
frf:_Comparison_1_Invoke_m345024424_gshared
s_c:_cf2_getStdVW
lof:_ReadOnlyCollection_1_System_Collections_IList_Insert_m3936197025_gshared
rce:_EventHandler_BeginInvoke_m3027583606
M1:__Z40DebugStringToFilePostprocessedStacktraceRK21DebugStringToFileData
WAc:__Z29Transfer_Blittable_ArrayFieldI8JSONReadjEvRT_R9ArrayInfoRK23StaticTransferFieldInfo
M9h:_ContextAttribute__ctor_m4006843177
g_h:_InternalEnumerator_1_get_Current_m314017974_AdjustorThunk
pg:__setLetterbox
QPe:_MemoryStream__ctor_m1043059966
RZa:__ZNSt3__26__treeINS_12__value_typeIN9ShaderLab16FastPropertyNameEfEENS_19__map_value_compareIS3_S4_NS_4lessIS3_EELb1EEENS_9allocatorIS4_EEE12__find_equalIS3_EERPNS_16__tree_node_baseIPvEENS_21__tree_const_iteratorIS4_PNS_11__tree_nodeIS4_SE_EEiEESH_RKT_
Wrg:__ZL57CollectionBase_t1101587467_CustomAttributesCacheGeneratorP21CustomAttributesCache
xRf:__ZN21InterfaceFuncInvoker3IP12Il2CppObjectP6Type_t28StreamingContext_t1417235061PS1_E6InvokeEjP11Il2CppClassS1_S3_S4_S5_
z8a:__ZNSt3__26vectorI17BlendShapeChannelNS_9allocatorIS1_EEE6assignINS_11__wrap_iterIPS1_EEEENS_9enable_ifIXaasr21__is_forward_iteratorIT_EE5valuesr16is_constructibleIS1_NS_15iterator_traitsISA_E9referenceEEE5valueEvE4typeESA_SA_
WMd:_LayoutElement_set_preferredWidth_m3072758716
XNb:__Z12SetGfxDeviceP9GfxDevice
VIf:_AsnEncodedData_ToString_m724151831
Ali:_Object_CompareBaseObjects_m1461253683
A5b:__ZN11TimeManager11GetRealtimeEv
edf:_Collection_1_System_Collections_IList_get_IsFixedSize_m2408637569_gshared
I1f:_UTF8Encoding_GetByteCount_m1469571127
IDj:_GC_print_block_list
oR:__ZN29AudioEffectInternalDefinitionC2EP26UnityAudioEffectDefinitionb
mkg:_MonoMethodInfo_GetDeclaringType_m4186531677
uSf:_SoapTypeAttribute_SetReflectionObject_m1566293812
tFh:_DefaultComparer__ctor_m418731767_gshared
nH:__ZN4PPtrI6AvatarE8TransferI18StreamedBinaryReadILb0EEEEvRT_
XNi:_Enumerator_System_Collections_IEnumerator_Reset_m2573763156_AdjustorThunk
PTf:_RemotingServices_CreateClientProxy_m1631035355
p9f:_UInt64_ToString_m2892887310
Oqa:_stbir_resize
Nyj:__ZN15dense_hashtableINSt3__24pairIK10KeyWrapperIPK19Il2CppGenericMethodEP10MethodInfoEES6_N6il2cpp8metadata23Il2CppGenericMethodHashEN14dense_hash_mapIS6_S9_SD_NS6_14EqualsComparerINSC_26Il2CppGenericMethodCompareEEENS0_9allocatorISA_EEE9SelectKeyESH_SJ_EC2ERKSM_j
jhj:__ZN15dense_hashtableINSt3__24pairIK10KeyWrapperINS1_IPK12PropertyInfoP11Il2CppClassEEEjEES9_17ReflectionMapHashIS8_EN14dense_hash_mapIS9_jSD_NS9_14EqualsComparerINS0_8equal_toIS8_EEEENS0_9allocatorISB_EEE9SelectKeyESI_SK_E5clearEv
I9a:__ZN4PPtrI4MeshE8TransferI14SafeBinaryReadEEvRT_
tKc:__ZN24b2ChainAndCapsuleContact6CreateEP9b2FixtureiS1_iP16b2BlockAllocator
MIa:__Z37ReadDirectoryInfo_UnityWebAndUnityRawR12FileAccessorRKN20ArchiveStorageHeader6HeaderERNS1_13DirectoryInfoE
Yhe:_Array_InternalArray__IEnumerable_GetEnumerator_TisInt64_t909078037_m1219751804_gshared
O4:__ZNSt3__26__treeINS_12__value_typeIPKciEENS_19__map_value_compareIS3_S4_15compare_tstringIS3_ELb1EEENS_9allocatorIS4_EEE7destroyEPNS_11__tree_nodeIS4_PvEE
Oqg:__ZL96RuntimeTypeHandle_t2330101084_CustomAttributesCacheGenerator_RuntimeTypeHandle_Equals_m452760426P21CustomAttributesCache
BEh:_Dictionary_2_ToTValue_m1381983709_gshared
sWe:_MulticastDelegate_KPM_m1592985119
aUi:__ZL25UnresolvedVirtualCall_216P12Il2CppObjectiPK10MethodInfo
scd:__ZN13dynamic_arrayIN4core12basic_stringIcNS0_20StringStorageDefaultIcEEEELj4EE6assignEPKS4_S7_
_jf:_Collection_1_ConvertItem_m3941916604_gshared
fHa:__ZN15dense_hashtableINSt3__24pairIKN4core12basic_stringIcNS2_20StringStorageDefaultIcEEEEP20ArchiveStorageReaderEES6_20StringHash32FunctionIS6_EN14dense_hash_mapIS6_S9_SC_NS0_8equal_toIS6_EE13stl_allocatorISA_L18MemLabelIdentifier55ELi16EEE9SelectKeyESF_SI_E5clearEv
X5c:__ZN2UI6Canvas26MarkAllNestedCanvasesDirtyEv
Sqj:__ZN6il2cpp2vm12ReboxIfBoxedEP14Il2CppIUnknownP11Il2CppClass
_Kb:__ZN25PathNamePersistentManagerD2Ev
w6:__ZN17PersistentManager48IntegrateObjectAndUnlockIntegrationMutexInternalEi
Vof:_ReadOnlyCollection_1_System_Collections_IList_get_IsReadOnly_m3872065502_gshared
tug:__ZL112TypeBuilder_t3308873219_CustomAttributesCacheGenerator_TypeBuilder_MakeGenericType_m4282022646____typeArguments0P21CustomAttributesCache
Pga:__ZZ29InitializeSortingGroupManagerPvEN44PostLateUpdateSortingGroupsUpdateRegistrator7ForwardEv
rp:__ZN6Object12SetHideFlagsENS_9HideFlagsE
JJc:__ZN9b2Fixture11SynchronizeEP12b2BroadPhaseRK11b2TransformS4_
wUj:_emscripten_glGetFramebufferAttachmentParameteriv__wrapper
FQb:__ZN13RendererScene15InitializeUmbraEv
HUa:__Z28CalculateGlobalMatrixInverse23TransformAccessReadOnly
Xqg:__ZL60SecurityAttribute_t2016950496_CustomAttributesCacheGeneratorP21CustomAttributesCache
iyd:_PointerEventData_ToString_m1218584363
DTd:_Char_System_IConvertible_ToChar_m1489061093_AdjustorThunk
Y0f:_UTF7Encoding_GetCharCount_m2589913583
Vbj:_AnalyticsSessionInfo_CallSessionStateChanged_m2293069762
GQe:_MemoryStream_CalculateNewCapacity_m3533542025
BIj:__ZN6il2cpp6icalls8mscorlib6System6Object7GetTypeEP12Il2CppObject
mgi:_Uri_Reduce_m2577728307
G4f:_TimeSpan_Equals_m4102942751_AdjustorThunk
uzh:_ValueCollection_System_Collections_Generic_ICollectionU3CTValueU3E_Add_m1903672223_gshared
ifd:__ZN12HeaderHelper14SetUnvalidatedERKN4core12basic_stringIcNS0_20StringStorageDefaultIcEEEES6_b
pN:__ZN4FMOD6SoundI7releaseEv
lab:__ZN14SpriteRenderer13AwakeFromLoadE17AwakeFromLoadMode
Jyd:_MouseButtonEventData__ctor_m618518000
oJa:__ZN10MemoryFile9SetLengthEy
gK:__ZN7mecanim10ValueArray8TransferI19StreamedBinaryWriteILb0EEEEvRT_
RAb:__ZN5RectTIiE8TransferI24GenerateTypeTreeTransferEEvRT_
tFc:__ZNK15b2RevoluteJoint10GetAnchorBEv
P1a:__ZN14SafeBinaryRead21TransferSTLStyleArrayI13dynamic_arrayI7Hash128Lj8EEEEvRT_17TransferMetaFlags
ZJb:__Z28scripting_class_is_interface17ScriptingClassPtr
Fh:_glTexStorage2D
NXa:__ZNK9ShaderLab10SubProgram14EnsureCompiledEv
e2g:__Z79RuntimeInvoker_Boolean_t3825574718_RuntimeObject_RuntimeObject_SByte_t454417549PFvvEPK10MethodInfoPvPS4_
lWf:_ObjectManager_RecordFixup_m3572285566
Osg:__ZL55DaylightTime_t3800227331_CustomAttributesCacheGeneratorP21CustomAttributesCache
s_d:_SortedList_InitTable_m460350503
U7:__Z18BuildScriptClassId17ScriptingClassPtr
GWh:_InternalEnumerator_1_get_Current_m4279678504_AdjustorThunk
uq:__ZNK16LevelGameManager7GetNameEv
gdf:_Collection_1_System_Collections_IList_get_Item_m2415649949_gshared
Igg:_ILTokenInfo_t149559338_marshal_pinvoke_cleanup
gIa:__ZL31DeleteLastPathNameComponentImplRKN4core12basic_stringIcNS_20StringStorageDefaultIcEEEEPKc
s7b:__Z13RegisterClassI18DelayedCallManagerEvv
acd:__ZN18UnityConnectClient15GetCloudServiceEv
_yb:__Z18Transfer_BlittableI24GenerateTypeTreeTransferLb0EiEvRK29SerializationCommandArgumentsR31RuntimeSerializationCommandInfo
M6i:__ZN6il2cpp2os19SocketHandleWrapperD2Ev
ZJc:__ZN15b2CircleContact6CreateEP9b2FixtureiS1_iP16b2BlockAllocator
TJb:__ZL28SerializationCommandGroupForRK31TransferFunctionScriptingTraits17ScriptingClassPtr17ScriptingFieldPtrRK20CoreScriptingClasses
pMa:__ZN10TagManager32RegisterDefaultTagsAndLayerMasksEv
uHi:_TweenRunner_1_StopTween_m2135918118_gshared
uAh:_ValueCollection_get_Count_m4142113966_gshared
o5i:__ZN15dense_hashtableINSt3__24pairIK10KeyWrapperIPKcEP11Il2CppClassEES5_N6il2cpp5utils11StringUtils12StringHasherIS4_EEN14dense_hash_mapIS5_S8_SE_NS5_14EqualsComparerINSB_13VmStringUtils21CaseSensitiveComparerEEENS0_9allocatorIS9_EEE9SelectKeyESJ_SL_E15insert_noresizeERKS9_
D2f:_SynchronizationLockException__ctor_m549086841
oVd:_ArrayList_InsertRange_m1478230997
ana:__ZN4gles8InitCapsEP7ApiGLESP12GraphicsCapsR16GfxDeviceLevelGL
gra:__ZN6prcore14BlitImageFloatERK14ImageReferenceRS0_NS0_8BlitModeE
hQd:_Swapper_EndInvoke_m677693941
vSa:__Z24CalculateVertexLightDataRK15SharedLightDataR14GfxVertexLight
Cji:_Color_get_black_m455352838
ni:_glEnable
mib:__ZN15dense_hashtableINSt3__24pairIKiiEEi21InstanceIDHashFunctorN14dense_hash_mapIiiS4_NS0_8equal_toIiEE13stl_allocatorIS3_L18MemLabelIdentifier1ELi16EEE9SelectKeyES7_SA_E12maybe_shrinkEv
JXa:__ZNK9ShaderLab7Program28BeginReadUnsupportedVariantsEv
oSb:__ZNK25CameraStackRenderingState21GetImageEffectTextureEb
eXf:_RuntimeMethodHandle__ctor_m2437574937_AdjustorThunk
zfb:__ZNSt3__26vectorIN30RuntimeInitializeOnLoadManager9ClassInfoE13stl_allocatorIS2_L18MemLabelIdentifier13ELi16EEE7reserveEj
fpg:__ZL72RuntimeArray_CustomAttributesCacheGenerator_Array_get_Length_m1498215565P21CustomAttributesCache
vwc:__Z35Transfer_Blittable_FixedBufferFieldI9JSONWriteiEvRK29SerializationCommandArgumentsR31RuntimeSerializationCommandInfo
a7f:_UInt16_System_IConvertible_ToInt64_m2835280558_AdjustorThunk
DVg:__ZL53g_UnityEngine_Assembly_CustomAttributesCacheGeneratorP21CustomAttributesCache
jDi:_Predicate_1_BeginInvoke_m3926587117_gshared
oL:__ZZN8Animator15InitializeClassEvEN31FunctorImpl_427kDidModifyAvatar4CallEPviR11MessageData
Emf:_ReadOnlyCollection_1_System_Collections_IList_Remove_m2779327941_gshared
uB:__ZN26AnimatorControllerPlayable17ProcessRootMotionEP35AnimationPlayableEvaluationConstantP32AnimationPlayableEvaluationInputP33AnimationPlayableEvaluationOutput
w2g:__Z94RuntimeInvoker_Boolean_t3825574718_Int32_t2071877448_SByte_t454417549_ExceptionU26_t1467204777PFvvEPK10MethodInfoPvPS4_
YDd:_DefaultControls_CreateToggle_m1568873127
u9e:_List_1__cctor_m1022807427_gshared
Krg:__ZL63KeyNotFoundException_t1722175009_CustomAttributesCacheGeneratorP21CustomAttributesCache
mEh:_Dictionary_2_InitArrays_m2270022740_gshared
X$d:_Convert_ToBoolean_m2188088811
Cad:__ZN11UnityEngine7Connect15DeviceInfoEvent16CollectExtraInfoEv
P2i:__ZN15dense_hashtableI10KeyWrapperIPK17Il2CppGenericInstES4_N6il2cpp8metadata21Il2CppGenericInstHashEN14dense_hash_setIS4_S7_NS4_14EqualsComparerINS6_24Il2CppGenericInstCompareEEENSt3__29allocatorIS4_EEE8IdentityESB_SE_EC2ERKSH_j
n0f:_UnicodeEncoding_GetChars_m3765282346
GMe:_IntPtr__ctor_m4104029105
Cyg:__ZL114BinaryFormatter_t1866979105_CustomAttributesCacheGenerator_BinaryFormatter_get_DefaultSurrogateSelector_m219714691P21CustomAttributesCache
s$h:_InternalEnumerator_1_System_Collections_IEnumerator_get_Current_m771161214_AdjustorThunk
sVe:_MonoType_get_attributes_m1493788675
jKa:__ZN20ArchiveStorageReader10InitializeER15FileSystemEntryyb
iNj:_atol
F2d:_Convert_ToDouble_m4236754739
RCf:_SslClientStream_get_PrivateKeyCertSelectionDelegate_m3715949545
j2i:__ZN15dense_hashtableINSt3__24pairIK10KeyWrapperIPKcEP11Il2CppClassEES5_N6il2cpp5utils11StringUtils12StringHasherIS4_EEN14dense_hash_mapIS5_S8_SE_NS5_14EqualsComparerINSB_13VmStringUtils21CaseSensitiveComparerEEENS0_9allocatorIS9_EEE9SelectKeyESJ_SL_EC2EjRKSE_RKSJ_RKSN_
mFd:_Dropdown_CreateItem_m2702141380
fqf:_ReadOnlyCollection_1_IndexOf_m224962127_gshared
rsg:__ZL48Stack_t1043988394_CustomAttributesCacheGeneratorP21CustomAttributesCache
Do:FUNCTION_TABLE_viifi
Nnh:__Z59RuntimeInvoker_Boolean_t3825574718_ResourceInfo_t3933049236PFvvEPK10MethodInfoPvPS4_
wkg:_MonoEvent_GetAddMethod_m4289563120
xqg:__ZL37Type_t_CustomAttributesCacheGeneratorP21CustomAttributesCache
Z1c:_UNITY_tt_face_free_hdmx
WLc:__ZNSt3__26__sortIRN18Overlap2DQueryBase29ColliderHitsByDepthComparitorEPP10Collider2DEEvT0_S7_T_
Tkj:__ZN15dense_hashtableINSt3__24pairIK10KeyWrapperINS1_IP11Il2CppClassjEEES4_EES6_N6il2cpp8metadata14ArrayClassHashEN14dense_hash_mapIS6_S4_SB_NS6_14EqualsComparerINSA_17ArrayClassCompareEEENS0_9allocatorIS8_EEE9SelectKeyESF_SH_E5clearEv
I1i:__ZNSt3__218uninitialized_copyIPNS_4pairIK10KeyWrapperIPK11Il2CppClassEPKcEESB_EET0_T_SD_SC_
rcj:__ZN6il2cpp2vm14TypeNameParser5ParseEb
fLh:_ReflectionMethodsCache__ctor_m1835220
Rrg:__ZL71SynchronizedArrayListWrapper_t3317806524_CustomAttributesCacheGeneratorP21CustomAttributesCache
zed:__ZN23UnityPurchasingSettingsC2Ev
Yae:_Double_ToString_m1864290157
JOj:__ZNSt9bad_allocD0Ev
gbh:__Z50RuntimeInvoker_Int64_t909078037_Double_t4078015681PFvvEPK10MethodInfoPvPS4_
wHj:__ZN6il2cpp2os5Mutex6UnlockEv
bOg:__ZL120NativeClassAttribute_t1576243993_CustomAttributesCacheGenerator_NativeClassAttribute_set_QualifiedNativeName_m4139686864P21CustomAttributesCache
Q0b:__ZL10RenderFaceR9GfxDeviceR18MaterialStateCacheP13RenderTextureiif
bBi:_SpriteAtlasManager__cctor_m453260161
Irj:__ZNK24NamespaceAndNamePairHashclERKNSt3__24pairIPKcS3_EE
Uqa:__ZL37stbir__resample_horizontal_downsampleP11stbir__infoiPf
wef:__ZN21InterfaceFuncInvoker1Ib18Color32_t874517518E6InvokeEjP11Il2CppClassP12Il2CppObjectS0_
Hib:__ZNK5Unity9Component38MarkGameObjectAndComponentDependenciesER27GarbageCollectorThreadState
W2:__ZL16OutOfMemoryErrorjj18MemLabelIdentifieriPKc
Cfd:__ZN20UnityWebRequestProtoI24UnityWebRequestTransport16AtomicRefCounter14RedirectHelper14ResponseHelper15DownloadHandler13UploadHandler12HeaderHelper14AsyncOperationED0Ev
SWd:_SynchronizedArrayListWrapper_Contains_m2259439339
KU:__ZNK7Texture21GetShadowSamplingModeEv
t8:__ZNK11TypeManager15ClassNameToRTTIEPKcb
f5a:__ZN13ScreenManager21OnWindowRegainedFocusEv
qHb:__Z18Transfer_BlittableI18StreamedBinaryReadILb0EELb1EdEvRK29SerializationCommandArgumentsR31RuntimeSerializationCommandInfo
WVj:_emscripten_glVertexAttrib2fv__wrapper
TKg:__ZL76Input_t1785128008_CustomAttributesCacheGenerator_Input_GetKeyInt_m2379744823P21CustomAttributesCache
vHe:_Guid__ctor_m2599802704
gPe:_FileStream_get_CanRead_m4148920720
tgd:__ZN13RuntimeStaticINSt3__26vectorIPN5physx15PxVehicleWheelsENS0_9allocatorIS4_EEEELb0EE13StaticDestroyEPv
Srh:__Z31RuntimeInvoker_Link_t2723257478PFvvEPK10MethodInfoPvPS4_
_pa:__ZN4crnd12symbol_codec32decode_receive_static_data_modelERNS_25static_huffman_data_modelE
Y5b:__ZN18ScriptingArguments8AddFloatEf
MFe:_GregorianCalendar_set_CalendarType_m2438362222
sDd:_FloatTween_get_targetValue_m2120061648_AdjustorThunk
U5g:__Z44RuntimeInvoker_RuntimeTypeHandle_t2330101084PFvvEPK10MethodInfoPvPS4_
Ofe:_Array_InternalArray__ICollection_Contains_TisVector2_t2243707579_m3625698589_gshared
sad:__ZN11UnityEngine15PlatformWrapper16GetVRRenderScaleEv
vxc:__Z18Transfer_BlittableI9JSONWriteLb0EaEvRK29SerializationCommandArgumentsR31RuntimeSerializationCommandInfo
m2g:__Z45RuntimeInvoker_SByte_t454417549_RuntimeObjectPFvvEPK10MethodInfoPvPS4_
AY:__ZN11UnityEngine15CloudWebService14DataDispatcher34OnSessionContainerArchivedAndReadyERNS0_16SessionContainerE
SDc:__ZN7b2World11CreateJointEPK10b2JointDef
qYi:_RectTransformUtility_PixelAdjustPoint_m1375786599
xGe:_NumberFormatInfo_GetFormat_m3247563525
SCg:__ZL77Convert_t2607082565_CustomAttributesCacheGenerator_Convert_ToByte_m2303223565P21CustomAttributesCache
Pwf:_CipherSuiteCollection__ctor_m2154226461
KEi:_InvokableCall_3_Find_m1268604653_gshared
uBb:__Z18Transfer_BlittableI19StreamedBinaryWriteILb0EELb0E8Vector3fEvRK29SerializationCommandArgumentsR31RuntimeSerializationCommandInfo
Kjb:__ZN14SafeBinaryRead19TransferSTLStyleMapINSt3__23mapIN4core12basic_stringIcNS3_20StringStorageDefaultIcEEEEiNS1_4lessIS7_EENS1_9allocatorINS1_4pairIKS7_iEEEEEEEEvRT_17TransferMetaFlags
Bgj:__ZN15dense_hashtableINSt3__24pairIK10KeyWrapperINS1_IPK11Il2CppImageP11Il2CppClassEEEjEES9_17ReflectionMapHashIS8_EN14dense_hash_mapIS9_jSD_NS9_14EqualsComparerINS0_8equal_toIS8_EEEENS0_9allocatorISB_EEE9SelectKeyESI_SK_ED2Ev
TVc:_gray_move_to
phd:_DSAParameters_t1872138834_marshal_pinvoke
Ufh:__Z37RuntimeInvoker_ContentType_t859870085PFvvEPK10MethodInfoPvPS4_
ujf:_Collection_1_System_Collections_IEnumerable_GetEnumerator_m4174600764_gshared
Rai:_ConstructionCall_InitDictionary_m4046452035
vhj:__ZN6il2cpp2vm10Reflection14GetEventObjectEP11Il2CppClassPK9EventInfo
gyf:_TlsStream_Write_m2271546135
Vjc:__Z30RegisterValidateMethodCallbackiPF18ScriptingMethodPtrS_17ScriptingClassPtrP6ObjectEPKc
frb:__ZN20LocalFileSystemPosixD0Ev
Sde:_CultureInfo_ConstructInternalLocaleFromCurrentLocale_m1342751405
t$f:_Latin1Encoding_GetString_m3553289597
rLh:_GetRayIntersectionAllNonAllocCallback_Invoke_m1247446986
qXc:_tt_cmap_init
NBc:__ZN8JSONRead8TransferI9BoundsIntEEvRT_PKc17TransferMetaFlagsb
Ka:invoke_viidi
Bvh:_Enumerator_get_Current_m1020413567_AdjustorThunk
f1e:_List_1_System_Collections_IList_get_IsFixedSize_m1122077912_gshared
ntj:__ZN15dense_hashtableI10KeyWrapperIP18Il2CppGenericClassES3_N6il2cpp8metadata22Il2CppGenericClassHashEN14dense_hash_setIS3_S6_NS3_14EqualsComparerINS5_25Il2CppGenericClassCompareEEENSt3__29allocatorIS3_EEE8IdentityESA_SD_E12maybe_shrinkEv
UEb:__Z29Transfer_Blittable_ArrayFieldI18StreamedBinaryReadILb1EEdEvRT_R9ArrayInfoRK23StaticTransferFieldInfo
PP:__ZN9AudioClip7CleanupEv
dhj:__ZN15dense_hashtableINSt3__24pairIK10KeyWrapperINS1_IPK12PropertyInfoP11Il2CppClassEEEjEES9_17ReflectionMapHashIS8_EN14dense_hash_mapIS9_jSD_NS9_14EqualsComparerINS0_8equal_toIS8_EEEENS0_9allocatorISB_EEE9SelectKeyESI_SK_E8min_sizeEjj
tEg:__ZL79Convert_t2607082565_CustomAttributesCacheGenerator_Convert_ToUInt64_m2215781574P21CustomAttributesCache
vCi:_Vector4_set_Item_m1525226067_AdjustorThunk
$Zj:_emscripten_glCheckFramebufferStatus__wrapper
dmj:__ZNK15dense_hashtableINSt3__24pairIK10KeyWrapperIP11Il2CppClassES4_EES5_N6il2cpp8metadata16SZArrayClassHashEN14dense_hash_mapIS5_S4_SA_NS5_14EqualsComparerINS9_19SZArrayClassCompareEEENS0_9allocatorIS7_EEE9SelectKeyESE_SG_E12test_deletedEj
oAc:__Z18Transfer_BlittableI8JSONReadLb0EdEvRK29SerializationCommandArgumentsR31RuntimeSerializationCommandInfo
fnh:__Z83RuntimeInvoker_Boolean_t3825574718_NavigationU26_t3929175072_Navigation_t1571958496PFvvEPK10MethodInfoPvPS4_
SI:__ZN7mecanim9animation21BlendTreeNodeConstant35Transfer_4_0_BackwardsCompatibilityI14SafeBinaryReadEEvRT_
y5e:_List_1_TrimExcess_m2004514756_gshared
X2f:_Thread_ClrState_m822263449
fTg:__ZL81GUIStyle_t1799908754_CustomAttributesCacheGenerator_GUIStyle_get_name_m3609546529P21CustomAttributesCache
vwe:_SimpleCollator_LastIndexOfOrdinalIgnoreCase_m550798345
d7i:__ZN6il2cpp2vm21ThreadPoolCompartment13QueueWorkItemEP17Il2CppAsyncResult
Sli:_PersistentCall_get_mode_m4087575475
Vha:__ZNK9GfxDevice13GetViewMatrixEv
Gii:_Bounds_Encapsulate_m17114941
Fhb:__ZN17RemapPPtrTransferC2E24TransferInstructionFlagsb
uI:__ZN14SafeBinaryRead21TransferSTLStyleArrayI22OffsetPtrArrayTransferIiEEEvRT_17TransferMetaFlags
v9:__ZN8TypeTree8BlobReadERPKhS1_ib
MBh:_Dictionary_2_System_Collections_Generic_ICollectionU3CSystem_Collections_Generic_KeyValuePairU3CTKeyU2CTValueU3EU3E_Remove_m3080541539_gshared
egb:__ZN18LoadSceneOperation23GetAllowSceneActivationEv
xPa:__ZN6CameraD0Ev
bKi:_GUILayoutUtility_Begin_m659595645
Wxe:_ModulusRing_Multiply_m386339435
Tea:__ZN31CanvasBatchIntermediateRenderer16StaticInitializeEPv
EHd:_GraphicRaycaster_U3CRaycastU3Em__0_m3971200721
Fmf:_ReadOnlyCollection_1_System_Collections_IList_RemoveAt_m3004588099_gshared
KA:__ZN7mecanim12AndValueMaskILb0EEEvPKNS_14ValueArrayMaskEPS1_
nfb:__ZN14SafeBinaryRead21TransferSTLStyleArrayINSt3__26vectorIi13stl_allocatorIiL18MemLabelIdentifier13ELi16EEEEEEvRT_17TransferMetaFlags
l2d:_Decimal_op_Implicit_m4246329390
zFe:_ArgumentNullException__ctor_m2252076819
Q1b:__ZN10GameObjectC2E18MemLabelIdentifier18ObjectCreationMode
B2c:_raccess_guess_apple_double
wph:__Z70RuntimeInvoker_Void_t1841601450_CustomAttributeNamedArgument_t94157543PFvvEPK10MethodInfoPvPS4_
wFf:_ListDictionary_GetEnumerator_m1511032609
weg:_TypeBuilder_get_FullName_m1626507516
JVf:_SerializationInfo__ctor_m4016423422
hua:__ZL18ProgramUniform1uivPK7ApiGLESjiihPKv
gbc:__ZN14Texture2DArray13RebuildMipMapEv
i1i:__ZN13Il2CppHashSetIPK17Il2CppGenericInstN6il2cpp8metadata21Il2CppGenericInstHashENS4_24Il2CppGenericInstCompareENSt3__29allocatorI10KeyWrapperIS2_EEEEC2EjRKS5_RKS6_
Xdf:_Collection_1_Clear_m2734620236_gshared
Kxj:__ZN6il2cpp2gc16GarbageCollector14RemoveWeakLinkEPPv
Xnb:__ZN9ShaderLab20SerializedSubProgram14AddVectorParamEPKcii15ShaderParamTypei
F7c:__ZN2UI14CanvasRenderer12CleanupClassEv
mpf:_ReadOnlyCollection_1_System_Collections_IEnumerable_GetEnumerator_m1734360860_gshared
XFh:_DefaultComparer__ctor_m1052417779_gshared
Hpd:_SystemException__ctor_m2688248668
z5h:_ResourceSet_ReadResources_m1669023823
LDe:_PKCS12_RemoveCertificate_m1590055870
Rmj:__ZN6il2cpp2vm6Thread7SetNameEP12Il2CppThreadP12Il2CppString
Wtg:__ZL117GenericTypeParameterBuilder_t1370236603_CustomAttributesCacheGenerator_GenericTypeParameterBuilder_Equals_m2498927509P21CustomAttributesCache
gMb:__ZN13ScreenManager18SetAllowCursorLockEb
UZ:__ZN11UnityEngine15CloudWebService10RestClientINS0_23WebRequestRestHeaderMapEE16SetRequestHeaderERKN4core12basic_stringIcNS4_20StringStorageDefaultIcEEEESA_
sfb:__ZN30RuntimeInitializeOnLoadManager15ClassMethodInfo8TransferI14SafeBinaryReadEEvRT_
_$g:__ZL73CanvasScaler_t2574720772_CustomAttributesCacheGenerator_m_ScreenMatchModeP21CustomAttributesCache
xW:__ZL22InitializeModule_Audiov
rsb:__ZN16MemoryFileSystem8IsLockedERK13FileEntryData
zoj:__ZN6il2cpp6icalls8mscorlib6System2IO6MonoIO5WriteEiP11Il2CppArrayiiPi
ekg:_MonoCMethod_Invoke_m931478014
W3g:__Z86RuntimeInvoker_Int32_t2071877448_Int16_t4041245914_Int32_t2071877448_Int32_t2071877448PFvvEPK10MethodInfoPvPS4_
G5h:_SatelliteContractVersionAttribute__ctor_m2605651717
Yk:_emscripten_glBindRenderbuffer
fOg:__ZL77RuntimePlatform_t1869584967_CustomAttributesCacheGenerator_OSXDashboardPlayerP21CustomAttributesCache
fud:_DecoderExceptionFallbackBuffer_GetNextChar_m1727394816
eEj:_GC_dirty_init
tPd:_Array_Copy_m1969461849
bVf:_MessageFormatter_ReadMethodResponse_m4134629501
Muj:__ZN6il2cpp2vm5Field14GetValueObjectEP9FieldInfoP12Il2CppObject
a7c:__ZNK2UI6Canvas16GetTargetDisplayEv
tri:_PKCS12_GetSymmetricAlgorithm_m3196291685
ece:_Environment_get_OSVersion_m1247315981
Kca:__ZN6Object17FindObjectsOfTypeEPKN5Unity4TypeER13dynamic_arrayIPS_Lj4EEb
Kec:__ZNSt3__26vectorINS_4pairIiiEE13stl_allocatorIS2_L18MemLabelIdentifier1ELi16EEE21__push_back_slow_pathIKS2_EEvRT_
eNf:_Capture_get_Length_m1952322390
byc:__ZN9JSONWrite8TransferI4PPtrI9Texture2DEEEvRT_PKc17TransferMetaFlags
rJb:__ZN13MonoBehaviour17RemoveFromManagerEv
hQa:__ZN12ImageFilters14AddImageFilterERK11ImageFilter
O7c:__ZL23RegisterModuleICalls_UIv
D4a:__ZL11DecodeValuePPKcS0_
fxh:_ShimEnumerator_MoveNext_m2013866013_gshared
$0:__ZN13MemoryManagerC2Ev
Exa:__ZN12SkinMeshInfo10DeallocateEPS_
zv:__ZN15SerializeTraitsI22OffsetPtrArrayTransferIN7mecanim13ValueConstantEEE8TransferI19StreamedBinaryWriteILb0EEEEvRS3_RT_
FRg:__ZL66AnimationOffsetPlayable_t1019600543_CustomAttributesCacheGeneratorP21CustomAttributesCache
DJa:__ZN20ArchiveStorageReader28AcquireAndPrefillUnusedBlockEjPNS_11CacheResultE
abc:__Z12NHxRoughnessIA4_tEvP9Texture2DPT_iiii
UQf:_MethodDictionary_get_SyncRoot_m673971424
eda:__ZN18AsyncUploadManagerD2Ev
Vpb:__ZN9Transform5ResetEv
fBb:__Z22TransferField_NonArrayI24GenerateTypeTreeTransfer16Converter_StringEvRK23StaticTransferFieldInfoR31RuntimeSerializationCommandInfoRT0_
aJg:__ZL90Camera_t189460977_CustomAttributesCacheGenerator_Camera_INTERNAL_get_pixelRect_m4124985255P21CustomAttributesCache
gXc:_UNITY_FT_CMap_New
$Lb:__Z17MainLoopKeepalivePv
rbi:_MatchCollection__ctor_m1944681790
Aid:_HMACSHA512__ctor_m1667460019
V2i:__ZN15dense_hashtableI10KeyWrapperIPK17Il2CppGenericInstES4_N6il2cpp8metadata21Il2CppGenericInstHashEN14dense_hash_setIS4_S7_NS4_14EqualsComparerINS6_24Il2CppGenericInstCompareEEENSt3__29allocatorIS4_EEE8IdentityESB_SE_E12expand_arrayEjN21dense_hash_map_traits17integral_constantIbLb0EEE
_Kj:_printf_core
xEi:_InvokableCall_1_Find_m1347741199_gshared
Wmd:_ToBase64Transform_get_OutputBlockSize_m949275583
iWe:_MonoType_ToString_m473949831
Y_b:__Z14CalcHullBoundsPK8Vector3fPKhhRK5PlaneRK10Matrix4x4fR10MinMaxAABB
$Sf:_RealProxy__ctor_m2147093603
Zhb:__ZN11PreloadData39ShouldIgnoreInGarbageDependencyTrackingEv
y7e:_List_1__ctor_m3511181530_gshared
KTb:__Z19SetupLODFadeKeywordR17ShaderPassContexti
Qmf:_ReadOnlyCollection_1_get_Count_m2180604490_gshared
VBb:__Z18Transfer_BlittableI19StreamedBinaryWriteILb0EELb0E5RectTIfEEvRK29SerializationCommandArgumentsR31RuntimeSerializationCommandInfo
KCj:_GC_set_fl_marks
hxa:__ZL25CheckCopyTextureArgumentsRK7ApiGLESP11GLESTextureS3_
Jgb:__ZN13dynamic_arrayI26EnlightenSystemInformationLj8EE6insertEPS0_PKS0_S4_
MWc:_tt_name_entry_ascii_from_utf16
uWe:_MulticastNotSupportedException__ctor_m2164514827
g5d:_DateTime_System_IConvertible_ToChar_m2489529194_AdjustorThunk
EAb:__Z29Transfer_Blittable_ArrayFieldI24GenerateTypeTreeTransferyEvRT_R9ArrayInfoRK23StaticTransferFieldInfo
AQ:__ZN4FMOD7SystemI9playSoundE17FMOD_CHANNELINDEXPNS_5SoundEbPPNS_7ChannelE
tGi:_UnityEvent_1_GetDelegate_m1805195420_gshared
Apg:__ZL74RuntimeArray_CustomAttributesCacheGenerator_Array_BinarySearch_m1368352453P21CustomAttributesCache
Kdi:_Regex_GetGroupIndex_m1686599756
OOg:__ZL68PreferBinarySerialization_t2472773525_CustomAttributesCacheGeneratorP21CustomAttributesCache
g8g:__Z66RuntimeInvoker_Int64_t909078037_Int64_t909078037_Int32_t2071877448PFvvEPK10MethodInfoPvPS4_
JA:__ZN27AnimationLayerMixerPlayable17LayerMixerProcessEP35AnimationPlayableEvaluationConstantP32AnimationPlayableEvaluationInputP33AnimationPlayableEvaluationOutputM17AnimationPlayableFvS1_S3_S5_EMS_FvS1_S3_S5_ESA_MS_FvS5_S1_S3_S5_ifE
Tbj:__ZN6il2cpp2os4File4ReadEPNS0_10FileHandleEPciPi
aP:__ZN12AudioManager23VirtualRedirectTransferER18StreamedBinaryReadILb0EE
K$e:_List_1_Remove_m2616693989_gshared
g8a:__ZN10VertexData13SwapEndianessEv
vNj:_realloc
Hqc:__Z57Register_UnityEngine_Transform_INTERNAL_get_localRotationv
BOh:_ScrollRect_SetLayoutVertical_m1225848090
Dqi:_Plane_ToString_m4267831659_AdjustorThunk
w5f:_Type_get_IsInterface_m3583817465
ffb:__ZN30RuntimeInitializeOnLoadManager23VirtualRedirectTransferER17RemapPPtrTransfer
rRj:dynCall_viif
Okg:_MonoField_get_DeclaringType_m1591666235
UTh:_InternalEnumerator_1__ctor_m2111763266_AdjustorThunk
zPf:_Enumerator_MoveNext_m4234629003
s$c:_cf2_hint_lock
kyb:__ZL26Transfer_SimpleNativeClassI17RemapPPtrTransfer8GradientLb0EEvRK29SerializationCommandArgumentsR31RuntimeSerializationCommandInfo
tC:__ZN17AnimationPlayable26DisconnectNoTopologyChangeEPS_i
opg:__ZL69RuntimeArray_CustomAttributesCacheGenerator_Array_GetValue_m518505780P21CustomAttributesCache
nch:__Z52RuntimeInvoker_UInt64_t2909196914_Single_t2076509932PFvvEPK10MethodInfoPvPS4_
QUg:__ZL105UISystemProfilerApi_t845863050_CustomAttributesCacheGenerator_UISystemProfilerApi_BeginSample_m2271080056P21CustomAttributesCache
HDg:__ZL78Convert_t2607082565_CustomAttributesCacheGenerator_Convert_ToSByte_m1880147062P21CustomAttributesCache
tVe:_MonoType_GetDefaultConstructor_m925465120
h6f:_Type_IsArrayImpl_m3073208555
C_:__ZN13UploadHandlerD2Ev
MPj:dynCall_viiiiiffi
Dc:_emscripten_glBlendFuncSeparate
Yfg:_GenericTypeParameterBuilder_IsPrimitiveImpl_m1198748291
F5:__Z20scripting_string_newPKc
_oc:__Z43Material_CUSTOM_Internal_CreateWithMaterialP12Il2CppObjectS0_
dOe:_Directory_GetCurrentDirectory_m44486537
oPg:__ZL56UnityEventBase_t828812576_CustomAttributesCacheGeneratorP21CustomAttributesCache
uSg:__ZL105AudioSource_t1135106623_CustomAttributesCacheGenerator_AudioSource_ReadExtensionPropertyValue_m4251175592P21CustomAttributesCache
Abf:_Collection_1_System_Collections_ICollection_CopyTo_m1047946700_gshared
uGi:_UnityEvent_1_GetDelegate_m4072848279_gshared
Tvc:__ZN9JSONWrite12AppendToNodeEPN5Unity9rapidjson12GenericValueINS1_4UTF8IcEE13JSONAllocatorEEPKcRS6_
MIc:__ZN16PhysicsManager2D20GetRigidBodyVelocityERK11Rigidbody2D
u3d:_Convert_ToInt64_m4057339019
aJf:_AsnEncodedData_Default_m4197142414
Clj:__ZNSt3__218uninitialized_copyIPNS_4pairIK10KeyWrapperIP11Il2CppClassES4_EES8_EET0_T_SA_S9_
Hbj:__ZN6il2cpp2os4File17GetFileAttributesERKNSt3__212basic_stringIcNS2_11char_traitsIcEENS2_9allocatorIcEEEEPi
QF:__ZNSt3__26__sortIRPFbPKN8Animator11AnimatorJobES4_EPS4_EEvT0_S9_T_
hO:__ZN17AudioCustomFilterD2Ev
ztc:__ZN11IMGUIModule26SetDeveloperConsoleVisibleEb
aqb:__ZN9Transform16ResetReplacementEv
Tva:__ZN18GfxFramebufferGLES18ReleaseFramebufferEP17RenderSurfaceBaseP14GfxContextGLES
$8h:_Context_GetDynamicPropertyCollection_m1987747444
nKf:_X509Certificate2_get_Version_m1927399907
edc:__ZN13ProduceHelperI6CameraLb0EE7ProduceE18MemLabelIdentifier18ObjectCreationMode
kJd:_Image_RadialCut_m3229543088
_$:__ZN19CloudServiceHandler34HandleSaveFileWebRequestPlayerLoopEv
eC:__ZN7mecanim21ValueArrayReverseCopyEPKNS_18ValueArrayConstantEPKNS_10ValueArrayES2_PS3_PKi
RN:__Z31GetParentSampleClipFromInstancePN11SoundHandle8InstanceE
W8b:__ZNK28RectTransformPropertyBinding13GetFloatValueERKN11UnityEngine9Animation10BoundCurveE
l1b:__ZN6Camera22StandaloneCustomRenderENS_10RenderFlagEP6ShaderRKN4core12basic_stringIcNS3_20StringStorageDefaultIcEEEEPNS_21PerformRenderFunctionE
Keb:__ZNSt3__26vectorI4PPtrI6ObjectE13stl_allocatorIS3_L18MemLabelIdentifier52ELi16EEE6assignINS_11__wrap_iterIPS3_EEEENS_9enable_ifIXaasr21__is_forward_iteratorIT_EE5valuesr16is_constructibleIS3_NS_15iterator_traitsISD_E9referenceEEE5valueEvE4typeESD_SD_
SIj:__ZN6il2cpp2os16ThreadLocalValue8GetValueEPPv
v5i:__ZN6il2cpp2vm13MetadataCache14GetGenericInstEPKPK10Il2CppTypej
Xld:_SHA384Managed_Initialize_m712692291
PUh:_InternalEnumerator_1__ctor_m2688327768_gshared
AW:__ZN13AudioListener17ReadExtensionNameEi
B7h:_ChannelInfo__ctor_m2502026239
Pb:invoke_iiidii
Zvg:__ZL60CallingConvention_t3354538265_CustomAttributesCacheGeneratorP21CustomAttributesCache
dW:__ZN9AudioClip15InitializeClassEv
hp:setThrew
Uac:__ZL21BuildEmptyCubeTexturePKci11ColorRGBA3217TextureColorSpace
mIi:_Event_get_modifiers_m3267430607
Njb:__ZN14SafeBinaryRead21TransferSTLStyleArrayINSt3__26vectorIN9ShaderLab20SerializedSubProgramENS1_9allocatorIS4_EEEEEEvRT_17TransferMetaFlags
Knh:__Z67RuntimeInvoker_Boolean_t3825574718_RefEmitPermissionSet_t2708608433PFvvEPK10MethodInfoPvPS4_
nzd:_StandaloneInputModule_set_cancelButton_m2642677329
nzc:__Z15Transfer_StringI8JSONReadLb1EEvRK29SerializationCommandArgumentsR31RuntimeSerializationCommandInfo
Csa:__ZN6prcoreL17RemapGenericFloatI17TexFormatRGBFloat15TexFormatRGHalfEEvPKNS_9InnerInfoE
aVb:__Z25DoForwardShaderRenderLoopR17RenderLoopContextR13dynamic_arrayI16RenderObjectDataLj4EERK11CullResultsbbbN6Camera10RenderFlagE
que:_GameObject_GetComponent_TisRuntimeObject_m2812611596_gshared
kWc:_sfnt_load_face
UCe:_PKCS12_GetSymmetricAlgorithm_m1812022677
m1f:_UTF8Encoding_GetByteCount_m2372933408
Y8h:_Context_get_NeedsContextSink_m1907794755
bWc:_UNITY_ft_service_list_lookup
FAi:_Transform_get_localScale_m46214814
Ctf:_ARC4Managed_GenerateKey_m716135508
dyb:__Z18Transfer_BlittableI17RemapPPtrTransferLb1E11ColorRGBA32EvRK29SerializationCommandArgumentsR31RuntimeSerializationCommandInfo
Ysc:__ZN5IMGUI21SelectReceivingWindowER8GUIStateb
Z_h:_InternalEnumerator_1_get_Current_m3179981210_gshared
A0:__ZN13BaseAllocator13TryDeallocateEPv
iDb:__Z29Transfer_Blittable_ArrayFieldI19StreamedBinaryWriteILb0EEfEvRT_R9ArrayInfoRK23StaticTransferFieldInfo
dPd:_Array_CreateInstance_m1054139389
eHi:_U3CStartU3Ec__Iterator0_Reset_m2580847683_gshared
sVh:_InternalEnumerator_1__ctor_m967618647_AdjustorThunk
$rb:__ZN16MemoryFileSystem5WriteER13FileEntryDatayPvPy
yId:_LayoutGroup_GetAlignmentOnAxis_m1783063916
GBh:_Dictionary_2_System_Collections_ICollection_get_IsSynchronized_m1738433079_gshared
pRa:__ZNSt3__26vectorIN12FlareManager10FlareEntryENS_9allocatorIS2_EEE21__push_back_slow_pathIKS2_EEvRT_
Zbg:_Default_check_arguments_with_score_m1714931543
vhd:_SHA1_Create_m4086509717
wlg:_MonoMethodInfo_GetMethodInfo_m3298558752
JO:__ZN13AudioListener17RemoveFromManagerEv
xd:_glAttachShader
qFd:_Dropdown_SetAlpha_m2769981009
ONa:__ZNK6Camera19GetProjectionMatrixEv
TWi:_Predicate_1_BeginInvoke_m1856151290_gshared
dyj:__GLOBAL__sub_I_Thread_cpp_12319
_9d:_StackTrace__ctor_m2404985356
B7:__Z38PreallocateObjectFromPersistentManagerib
u5d:_DateTime_System_IConvertible_ToSingle_m3927769066
e0a:__ZNK9Texture2D20GetUnscaledTextureIDEv
F3d:_Convert_ToSByte_m883113940
oXi:_Canvas_get_renderOrder_m2592588836
DLg:__ZL77Mesh_t1356156583_CustomAttributesCacheGenerator_Mesh_GetIndicesImpl_m50468169P21CustomAttributesCache
Ace:_Exception_get_Message_m173095527
Raf:_Queue_1_Peek_m1463479953_gshared
MZi:_Animator_ResetTriggerString_m946167554
xZg:__ZL53InputField_t1631627530_CustomAttributesCacheGeneratorP21CustomAttributesCache
FIi:_GUI_set_skin_m929513544
RAd:_ButtonClickedEvent__ctor_m938038541
jIb:__ZN18StreamedBinaryReadILb0EE21TransferSTLStyleArrayI13dynamic_arrayI4AABBLj4EEEEvRT_17TransferMetaFlags
Pah:__Z119RuntimeInvoker_Int32_t2071877448_RuntimeObject_Int32_t2071877448_Int32_t2071877448_CharU26_t1894467670_SByte_t454417549PFvvEPK10MethodInfoPvPS4_
W6f:_UInt16_System_IConvertible_ToDouble_m4100549304_AdjustorThunk
Wgb:__Z29ClearRepeatingLogMessageStatev
xqd:_Single_System_IConvertible_ToInt16_m962677079
xca:__ZN21EnlightenSceneMappingaSERKS_
Aif:_Collection_1_SetItem_m546457615_gshared
iJj:__ZNK6il2cpp8metadata21Il2CppGenericInstHashclEPK17Il2CppGenericInst
Lqd:_Single_System_IConvertible_ToUInt32_m2447833283
NBa:__ZN7ApiGLESD2Ev
JLa:__ZN9Transform47ClearTransformHierarchyAndApplyToSerializedDataEv
uZh:_InternalEnumerator_1_get_Current_m4083613828_AdjustorThunk
CAc:__ZN8JSONRead21TransferSTLStyleArrayINSt3__26vectorI8MonoPPtr13stl_allocatorIS3_L18MemLabelIdentifier1ELi16EEEEEEvRT_17TransferMetaFlags
Ejd:_RijndaelManaged_GenerateKey_m3366247933
LNe:_BinaryReader_ReadUInt64_m1893783375
DPa:__ZN6Camera23VirtualRedirectTransferER19StreamedBinaryWriteILb0EE
HRj:dynCall_fidi
Aej:__ZN15dense_hashtableINSt3__24pairIK10KeyWrapperINS1_IPK9FieldInfoP11Il2CppClassEEEjEES9_17ReflectionMapHashIS8_EN14dense_hash_mapIS9_jSD_NS9_14EqualsComparerINS0_8equal_toIS8_EEEENS0_9allocatorISB_EEE9SelectKeyESI_SK_E12resize_deltaEjj
bNh:_ScrollRect_set_movementType_m3292965850
KCg:__ZL59AttributeTargets_t1984597432_CustomAttributesCacheGeneratorP21CustomAttributesCache
e$:__ZN11UnityEngine15CloudWebService14RestDownloaderD2Ev
d4b:__Z29StdTemplateConversionFunctionIjhEbPvR14SafeBinaryRead
PSi:__ZL25UnresolvedVirtualCall_149P12Il2CppObject23SpriteState_t1353336012S1_PK10MethodInfo
FOa:__ZN15dense_hashtableINSt3__24pairIKN9ShaderLab7Program23ShaderKeywordSetAndHashEPKNS2_10SubProgramEEES4_NS3_24ShaderKeywordHashFunctorEN14dense_hash_mapIS4_S8_SA_NS0_8equal_toIS4_EE13stl_allocatorIS9_L18MemLabelIdentifier67ELi16EEE9SelectKeyESD_SG_E15insert_noresizeERKS9_
s$e:_List_1_GrowIfNeeded_m2986672263_gshared
qTh:_ArrayReadOnlyList_1_Remove_m2325516426_gshared
dZd:_Hashtable_get_Count_m830088216
qWa:__ZN13RenderTexture12SetDimensionE16TextureDimension
me:_SDL_FreeRW
jBe:_PKCS1_OS2IP_m1273945439
xld:_SHA1Internal_FillBuff_m891541953
aGg:__ZL62ResolveEventHandler_t3842432458_CustomAttributesCacheGeneratorP21CustomAttributesCache
q8c:__Z34CanvasRenderer_Get_Custom_PropCullP12Il2CppObject
USh:_ArrayReadOnlyList_1_get_IsReadOnly_m2717922212_gshared
jU:__ZN20SoundChannelInstance8getDelayE14FMOD_DELAYTYPEPjS1_
YGj:__ZNSt3__26__treeINS_12__value_typeIPvxEENS_19__map_value_compareIS2_S3_NS_4lessIS2_EELb1EEENS_9allocatorIS3_EEE12__find_equalIS2_EERPNS_16__tree_node_baseIS2_EESF_RKT_
pKd:_InputField_set_customCaretColor_m3534590098
lNh:_ScrollRect_set_viewport_m323693490
$zg:__ZL66RijndaelManagedTransform_t135163252_CustomAttributesCacheGeneratorP21CustomAttributesCache
hKe:_NumberFormatter_FormatExponential_m3975285307
oRc:__ZNSt3__26vectorIN20TextRenderingPrivate8FontImpl13CharacterInfoE13stl_allocatorIS3_L18MemLabelIdentifier1ELi16EEE8__appendEj
v:tempBigInt
ue:_emscripten_glVertexAttrib1fv
epi:_Mesh_CheckCanAccessSubmesh_m764012688
skb:__ZNSt3__26vectorIN9ShaderLab20SerializedSubProgram12UAVParameterENS_9allocatorIS3_EEE7reserveEj
GOj:__ZSt11__terminatePFvvE
$Kd:_InputField_get_selectionAnchorPosition_m466595604
jCg:__ZL99Thread_t241561612_CustomAttributesCacheGenerator_Thread_t241561612____ExecutionContext_PropertyInfoP21CustomAttributesCache
_Q:__ZN12AudioManager14systemCallbackEP11FMOD_SYSTEM24FMOD_SYSTEM_CALLBACKTYPEPvS3_
k1g:__ZL111LayoutUtility_t4076838048_CustomAttributesCacheGenerator_LayoutUtility_U3CGetPreferredHeightU3Em__5_m1524880643P21CustomAttributesCache
RMi:_EqualityComparer_1_System_Collections_IEqualityComparer_Equals_m1091252481_gshared
ggj:__ZN24dense_hashtable_iteratorINSt3__24pairIK10KeyWrapperINS1_IPK10MethodInfoP11Il2CppClassEEEjEES9_17ReflectionMapHashIS8_EN14dense_hash_mapIS9_jSD_NS9_14EqualsComparerINS0_8equal_toIS8_EEEENS0_9allocatorISB_EEE9SelectKeyESI_SK_E30advance_past_empty_and_deletedEv
HTi:__ZL25UnresolvedVirtualCall_195P12Il2CppObjectfPK10MethodInfo
GVa:__ZN16ReflectionProbes16UpdateSampleDataEv
fSg:__ZL107AudioClip_t1932558630_CustomAttributesCacheGenerator_AudioClip_InvokePCMReaderCallback_Internal_m4135619730P21CustomAttributesCache
gSg:__ZL112AudioClip_t1932558630_CustomAttributesCacheGenerator_AudioClip_InvokePCMSetPositionCallback_Internal_m1220105088P21CustomAttributesCache
XFi:_UnityEvent_1_AddListener_m4113183338_gshared
U6h:_SafeHandle_Finalize_m1839546519
N6a:__ZN14Texture2DArray5ResetEv
x1h:_InternalEnumerator_1_MoveNext_m252820768_AdjustorThunk
H9h:_Context_AllocateNamedDataSlot_m3200404053
nhh:__Z64RuntimeInvoker_Void_t1841601450_RuntimeObject_Single_t2076509932PFvvEPK10MethodInfoPvPS4_
lJf:_X509EnhancedKeyUsageExtension_Decode_m3866320499
dKe:_NumberFormatter_AppendIntegerStringWithGroupSeparator_m1401773574
i8e:_List_1_Remove_m1237648310_gshared
cwf:_CipherSuite_get_ServerHMAC_m3566778727
ysg:__ZL64DebuggerBrowsableState_t944457511_CustomAttributesCacheGeneratorP21CustomAttributesCache
Re:_JS_Sound_Play
mTi:__ZL25UnresolvedVirtualCall_174P12Il2CppObject23RaycastResult_t21186376S1_PK10MethodInfo
zbd:__Z26GetUnityConnectSettingsPtrv
zJd:_Image_IsRaycastLocationValid_m864962354
$6g:__Z181RuntimeInvoker_Void_t1841601450_RuntimeObject_Int32_t2071877448_Int32_t2071877448_RuntimeObject_Int32_t2071877448_Int32_t2071877448_RuntimeObject_Int32_t2071877448_Int32_t2071877448PFvvEPK10MethodInfoPvPS4_
ojb:__ZN9ShaderLab16SerializedShader8TransferI14SafeBinaryReadEEvRT_
GFa:__ZN5Mutex7TryLockEv
$Di:_InvokableCall_1_remove_Delegate_m3013073467_gshared
bMg:__ZL99Sprite_t309593783_CustomAttributesCacheGenerator_Sprite_get_associatedAlphaSplitTexture_m1902878088P21CustomAttributesCache
iF:__ZN7mecanim8skeleton13SkeletonAlignEPKNS0_8SkeletonERKN4math7_float4ES7_i
Mbc:__ZN19ShaderPropertySheet16SetVectorIndexedEN9ShaderLab16FastPropertyNameEifRK8Vector4fNS_8SetFlagsE
nq:__ZN14SafeBinaryRead21TransferSTLStyleArrayIN4core12basic_stringIcNS1_20StringStorageDefaultIcEEEEEEvRT_17TransferMetaFlags
vTf:_RemotingConfiguration_RegisterWellKnownServiceType_m2491506630
uKg:__ZL89Screen_t786852042_CustomAttributesCacheGenerator_Screen_t786852042____height_PropertyInfoP21CustomAttributesCache
Xwg:__ZL55_TypeBuilder_t2783404358_CustomAttributesCacheGeneratorP21CustomAttributesCache
QTi:__ZL25UnresolvedVirtualCall_204P12Il2CppObjectPK10MethodInfo
H4b:__Z29StdTemplateConversionFunctionIayEbPvR14SafeBinaryRead
INd:_LayoutRebuilder_Initialize_m2671585490
S3e:_List_1_System_Collections_IList_IndexOf_m4061554721_gshared
H$:__ZN11UnityEngine15CloudWebService14DataDispatcher4StopEv
ukb:__ZNSt3__26vectorIN9ShaderLab20SerializedSubProgram12UAVParameterENS_9allocatorIS3_EEE8__appendEj
$df:_Collection_1_GetEnumerator_m434271983_gshared
$hj:__ZNK15dense_hashtableINSt3__24pairIK10KeyWrapperINS1_IPK9EventInfoP11Il2CppClassEEEjEES9_17ReflectionMapHashIS8_EN14dense_hash_mapIS9_jSD_NS9_14EqualsComparerINS0_8equal_toIS8_EEEENS0_9allocatorISB_EEE9SelectKeyESI_SK_E12test_deletedERK24dense_hashtable_iteratorISB_S9_SD_SM_SI_SK_E
End:_X509Certificate_ToString_m1582581274
Xyh:_Enumerator_get_Current_m2986380627_gshared
TGa:__ZN17ScriptingGCHandle7AcquireE18ScriptingObjectPtr25ScriptingGCHandleWeakness
I8h:_LifetimeServices_set_LeaseTime_m1487876644
idg:_ConstructorBuilder_not_supported_m3687319507
f3c:__ZN13ProduceHelperIN20TextRenderingPrivate8TextMeshELb0EE7ProduceE18MemLabelIdentifier18ObjectCreationMode
uqg:__ZL48IList_t3321498491_CustomAttributesCacheGeneratorP21CustomAttributesCache
m6c:__ZN2UI14CanvasRenderer14AttachToCanvasER8JobFencePNS_6CanvasENS0_15InstructionTypeE
uJc:__ZN25SyncColliderTransformData3JobEPS_jPK23TransformAccessReadOnlyPKyj
Cqd:_Single_System_IConvertible_ToInt64_m3555853323_AdjustorThunk
G2h:_InternalEnumerator_1__ctor_m3901400705_AdjustorThunk
CQj:dynCall_iifiii
Cqa:__Z21HasAlphaTextureFormat13TextureFormat
PV:__ZN12AudioManager6UpdateEv
vqa:__ZN14ImageReference9BlitImageERKS_NS_8BlitModeE
llg:_MonoMethod_get_MethodHandle_m1882915015
uw:__ZN8Animator12AddToManagerEv
Wug:__ZL93ConstructorInfo_t2851816542_CustomAttributesCacheGenerator_ConstructorInfo_Invoke_m2144827141P21CustomAttributesCache
Owh:_ShimEnumerator_get_Key_m1171725158_gshared
kKb:__ZN23CachedSerializationDataD2Ev
l0b:__ZNK25CameraStackRenderingState31CalculateStereoCameraTargetTypeEv
hVa:__ZN14RenderSettings23VirtualRedirectTransferER14SafeBinaryRead
nIc:__ZNK13b2CircleShape5CloneEP16b2BlockAllocator
Awj:__ZN6il2cpp2os10ThreadImpl15CurrentThreadIdEv
gif:_Collection_1_System_Collections_IList_get_IsReadOnly_m4005091053_gshared
Afe:_Array_InternalArray__ICollection_Contains_TisColor32_t874517518_m2818328910_gshared
TSa:__ZN17GlobalGameManager8TransferI17RemapPPtrTransferEEvRT_
iFe:_AppDomainInitializer_EndInvoke_m4003801172
cqg:__ZL66RuntimeArray_CustomAttributesCacheGenerator_Array_Sort_m2544329074P21CustomAttributesCache
cPi:_AudioExtensionManager_WriteExtensionProperties_m4015275001
PUa:__ZN16LevelGameManager8TransferI18StreamedBinaryReadILb0EEEEvRT_
c2c:_UNITY_tt_face_load_fpgm
yLa:__Z17IsObjectAvailablei
Lbb:__ZN12InputManagerD0Ev
E_i:_RaycastHit2D_get_point_m2962370910
gHj:__ZN6il2cpp6icalls8mscorlib6System11Diagnostics10StackTrace9get_traceEP15Il2CppExceptionib
KDd:_DefaultControls_CreateUIObject_m2810394112
sPa:__ZNK16LightmapSettings14GetLightProbesEv
iNh:_ScrollRect_get_scrollSensitivity_m1160815603
h0f:_UnicodeEncoding_GetBytes_m1337660232
MGb:__Z18Transfer_BlittableI18StreamedBinaryReadILb0EELb1EtEvRK29SerializationCommandArgumentsR31RuntimeSerializationCommandInfo
ANj:_posix_memalign
acc:__ZN13ProduceHelperI12MeshRendererLb0EE7ProduceE18MemLabelIdentifier18ObjectCreationMode
maf:_List_1_get_Count_m1249351212_gshared
E2h:_InternalEnumerator_1_get_Current_m747506907_AdjustorThunk
Ahi:_LogCallback_Invoke_m115567905
zah:__Z38RuntimeInvoker_PaddingMode_t3032142640PFvvEPK10MethodInfoPvPS4_
Wvf:_CertificateValidationCallback2_BeginInvoke_m3996282202
PCf:_SslClientStream_get_ClientCertSelectionDelegate_m2316959461
PWd:_SynchronizedArrayListWrapper_get_SyncRoot_m1466044127
E7:__ZNK15MonoScriptCache7ReleaseEv
Y$i:__ZN6il2cpp2vm5Class13HasReferencesEP11Il2CppClass
eg:_glBindTexture
Ydf:_Collection_1_ClearItems_m3585785594_gshared
OLj:_snprintf
p0g:__ZL84HorizontalOrVerticalLayoutGroup_t1968298610_CustomAttributesCacheGenerator_m_SpacingP21CustomAttributesCache
Fbg:_Binder__ctor_m1361613966
YKd:_InputField_set_caretPosition_m888572237
zgg:_ILGenerator__cctor_m3943061018
eWd:_ArrayListWrapper_Clone_m1506311066
hYi:_CanvasRenderer_CreateUIVertexStream_m2882962535
tib:__Z36scripting_liveness_calculation_begin17ScriptingClassPtriPFvPP12Il2CppObjectiPvES3_PFvvES7_
rwf:_CipherSuite_set_Context_m4127897124
tza:__ZN16UniformCacheGLES6CreateERK20GpuProgramParameters
v1f:_UTF8Encoding_Fallback_m811555654
jJ:__ZN7mecanim12statemachine13StateConstant8TransferI24GenerateTypeTreeTransferEEvRT_
Mke:_Array_InternalArray__IndexOf_TisPlayableBinding_t2498078091_m398853908_gshared
wyi:_ScriptableObject_t1975622470_marshal_pinvoke_cleanup
Z_f:_Encoding_GetString_m1894033578
cnf:_ReadOnlyCollection_1_System_Collections_IList_Clear_m1918003010_gshared
h4g:__Z77RuntimeInvoker_Void_t1841601450_RuntimeObject_RuntimeObject_Int32_t2071877448PFvvEPK10MethodInfoPvPS4_
uUj:_emscripten_glGetProgramInfoLog__wrapper
HAi:_Transform_set_localScale_m1442831667
QK:__ZN25AnimatedPropertyEvaluator29BindCurveToScriptingObjectPtrERKN13AnimationClip10FloatCurveEj18ScriptingObjectPtrb
z1f:_UTF8Encoding_InternalGetChars_m373801468
O8:__ZN17PersistentManager23DestroyFromFileInternalEi
j8d:_Decimal_System_IConvertible_ToChar_m2425091200_AdjustorThunk
pVb:__Z19SetupMotionMatricesR6CameraR18RPDataMotionVector
Ybe:_Enum_ToString_m2112979707
vyg:__ZL55SoapServices_t3397513225_CustomAttributesCacheGeneratorP21CustomAttributesCache
hRf:_MonoMethodMessage_get_MethodName_m3580519713
xG:__ZN26AnimatorControllerPlayable18PrepareForPlaybackERN7mecanim6memory9AllocatorE
fbe:_Enum_t2459695545_marshal_pinvoke_cleanup
Nyi:_HitInfo_t1761367055_marshal_pinvoke_cleanup
Cid:_HMACSHA512__cctor_m1167457383
q1f:_UTF8Encoding_GetBytes_m4170182058
s3e:_List_1_IndexOf_m2418862432_gshared
ROa:__ZN22CreateGpuProgramOutputC2Ev
sQe:_MemoryStream_InternalConstructor_m2423667240
Oei:_CapturingGroup_set_Index_m2175936006
cSf:_SoapMethodAttribute_SetReflectionObject_m3431595769
NPh:_Slider_set_maxValue_m2951480075
Gcc:__ZN8GUILayer12CleanupClassEv
kMd:_InputField_OnSubmit_m2856515494
X$i:__ZN6il2cpp2vm5Class4InitEP11Il2CppClass
ha:invoke_vidi
_Ce:_DeriveBytes_Adjust_m105515328
D6c:__ZN2UI14CanvasRenderer17SyncDirtyElementsER8JobFence
IGb:__Z18Transfer_BlittableI18StreamedBinaryReadILb0EELb0ExEvRK29SerializationCommandArgumentsR31RuntimeSerializationCommandInfo
BCd:_ColorBlock_op_Inequality_m1517672458
$zj:__ZN6il2cpp5utils11StringUtils15StringDuplicateEPKc
G1b:__Z15CanAddComponentR10GameObjectPKN5Unity4TypeE
gOa:__ZNK9ShaderLab21ShaderRasterStateDesc16ToGfxRasterStateEPK19ShaderPropertySheetS3_R14GfxRasterState
y1:_tlsf_memalign
QYf:_CspParameters__ctor_m2480441577
ZIj:__ZN6il2cpp2os9EventImplC2Ebb
i9h:_DynamicPropertyCollection_NotifyMessage_m840388347
Yfi:_Uri_ParseUri_m5711497
cK:__ZN4PPtrI13MonoBehaviourE8TransferI19StreamedBinaryWriteILb0EEEEvRT_
fgh:__Z98RuntimeInvoker_RuntimeObject_RuntimeObject_RayU26_t3651946800_Single_t2076509932_Int32_t2071877448PFvvEPK10MethodInfoPvPS4_
Xs:__ZNSt3__26vectorIN13AnimationClip9PPtrCurveE13stl_allocatorIS2_L18MemLabelIdentifier26ELi16EEE6resizeEj
l4:__Z20IsMatrixBuiltinParamPKcPi
n_g:__ZL108MaskableGraphic_t540192618_CustomAttributesCacheGenerator_MaskableGraphic_ParentMaskStateChanged_m3643747340P21CustomAttributesCache
Xfj:__ZN15dense_hashtableINSt3__24pairIK10KeyWrapperINS1_IPK10MethodInfoP11Il2CppClassEEEjEES9_17ReflectionMapHashIS8_EN14dense_hash_mapIS9_jSD_NS9_14EqualsComparerINS0_8equal_toIS8_EEEENS0_9allocatorISB_EEE9SelectKeyESI_SK_E16reset_thresholdsEv
tbc:__ZN8Renderer19PostInitializeClassEv
jAi:_TrackedReference_t1045890189_marshal_pinvoke_back
kUh:_InternalEnumerator_1_get_Current_m1943362081_AdjustorThunk
oFj:__ZN6il2cpp6icalls8mscorlib6System8Delegate23CreateDelegate_internalEP20Il2CppReflectionTypeP12Il2CppObjectP22Il2CppReflectionMethodb
wpg:__ZL82RuntimeArray_CustomAttributesCacheGenerator_Array_GetValue_m1507415734____indices0P21CustomAttributesCache
Tbg:_Default_check_type_m2363631305
FJb:__ZN18DelayedCallManager18CancelCallDelayed2E4PPtrI6ObjectEPF15CallObjectStatePS1_PvES7_
M3e:_List_1__cctor_m911493842_gshared
MEa:__ZN25ThreadsafeLinearAllocator10ReallocateEPvji
Ntb:__Z18Transfer_BlittableI14SafeBinaryReadLb1E11QuaternionfEvRK29SerializationCommandArgumentsR31RuntimeSerializationCommandInfo
Mga:__ZN18SpriteAtlasManagerD0Ev
Oke:_Array_InternalArray__IndexOf_TisRaycastHit2D_t4063908774_m3739817942_gshared
Vlg:_MonoProperty_GetAccessors_m3704698731
REj:_GC_disable
r8a:__ZN10Matrix4x4f8TransferI14SafeBinaryReadEEvRT_
dPc:__ZN15dense_hashtableINSt3__24pairIKNS1_IPK10Collider2DS4_EEjEES5_NS2_23ColliderPairHashFunctorEN14dense_hash_mapIS5_jS8_NS0_8equal_toIS5_EE13stl_allocatorIS7_L18MemLabelIdentifier67ELi16EEE9SelectKeyESB_SE_E9copy_fromERKSH_j
JTe:_UnmanagedMemoryStream_ReadByte_m2501145010
SDh:_Dictionary_2__ctor_m406310120_gshared
lVf:_ObjectRecord_UnchainFixup_m3025030310
uG:__ZN14AvatarPlayback8StopTimeEv
Zaa:__Z6AppendRKN4core12basic_stringIcNS_20StringStorageDefaultIcEEEEPKc
Mog:__ZL60MulticastDelegate_t3201952435_CustomAttributesCacheGeneratorP21CustomAttributesCache
sib:__ZL14OnWorldStoppedv
wDb:__Z18Transfer_BlittableI18StreamedBinaryReadILb1EELb0E8Vector3fEvRK29SerializationCommandArgumentsR31RuntimeSerializationCommandInfo
egh:__Z81RuntimeInvoker_RuntimeObject_Ray_t2469606224_Single_t2076509932_Int32_t2071877448PFvvEPK10MethodInfoPvPS4_
qZg:__ZL61Image_t2042527209_CustomAttributesCacheGenerator_m_FillCenterP21CustomAttributesCache
rji:_Color_ToString_m55788918_AdjustorThunk
Una:__ZN7ApiGLES18ClearBufferSubDataEjN2gl12BufferTargetEll
fM:__ZN8Animator7SetBoolEib
clc:__Z37Camera_Get_Custom_PropAllCamerasCountv
g7a:__ZN14Texture2DArray8TransferI18StreamedBinaryReadILb0EEEEvRT_
cnj:__ZN6il2cpp6icalls8mscorlib6System5Array9GetLengthEP11Il2CppArrayi
wZb:__Z18ApplyOcclusionMaskR19ProbeOcclusionCacheRK17LightProbeContextRK10RenderNodeb
nka:__ZN13GfxDeviceGLES13AfterDrawCallEv
NPe:_FileStreamAsyncResult__ctor_m1096228032
TYc:_Split_Cubic
eb:invoke_fiiii
M7d:_DBNull_System_IConvertible_ToSByte_m1228193074
Fdf:_Collection_1__ctor_m2818834331_gshared
zeh:__Z68RuntimeInvoker_UInt16_t986882611_UInt16_t986882611_UInt16_t986882611PFvvEPK10MethodInfoPvPS4_
hFi:_UnityAction_1_Invoke_m3979091955_gshared
jgf:_Collection_1_Insert_m3041550124_gshared
nPe:_FileStream_FlushBuffer_m2594140542
Fjf:_Collection_1_System_Collections_IList_get_Item_m1995028750_gshared
OAj:__ZN6il2cpp2vm8Profiler12GCHeapResizeEx
ORj:dynCall_viiifi
vva:__ZN18GfxFramebufferGLES20ActiveContextChangedEPP17RenderSurfaceBaseS2_
iva:__Z19PluginsRenderMarkeri
yL:__ZN10HumanTrait18InitializeBoneNameEv
xNg:__ZL130DrivenRectTransformTracker_t154385424_CustomAttributesCacheGenerator_DrivenRectTransformTracker_Clear_m4190599786____revertValues0P21CustomAttributesCache
IEh:_DefaultComparer__ctor_m899694595_gshared
Ifi:__ZN23InterfaceActionInvoker1ItE6InvokeEjP11Il2CppClassP12Il2CppObjectt
M6a:__ZN14Texture2DArray21AwakeFromLoadThreadedEv
IHb:__Z29Transfer_Blittable_ArrayFieldI18StreamedBinaryReadILb0EEyEvRT_R9ArrayInfoRK23StaticTransferFieldInfo
_Gh:_EqualityComparer_1_get_Default_m875724809_gshared
Csj:__ZNSt3__214__split_bufferIN6il2cpp2vm5Image20EmbeddedResourceDataERNS_9allocatorIS4_EEEC2EjjS7_
oId:_HorizontalOrVerticalLayoutGroup_get_spacing_m2859152439
dwg:__ZL57DispIdAttribute_t607560947_CustomAttributesCacheGeneratorP21CustomAttributesCache
pO:__ZN12AudioManager17RemoveAudioSourceEP11AudioSource
HJi:_GUILayoutEntry_SetVertical_m861127195
lqg:__ZL83RuntimeArray_CustomAttributesCacheGenerator_RuntimeArray____LongLength_PropertyInfoP21CustomAttributesCache
Dah:__Z151RuntimeInvoker_Int32_t2071877448_RuntimeObject_Int32_t2071877448_Int32_t2071877448_RuntimeObject_Int32_t2071877448_DecoderFallbackBufferU26_t3597875002PFvvEPK10MethodInfoPvPS4_
OLi:_AesManaged_get_KeySize_m2773901127
Ste:_Array_InternalArray__get_Item_TisUInt64_t2909196914_m2580870875_gshared
Qkj:__ZN15dense_hashtableINSt3__24pairIK10KeyWrapperINS1_IP11Il2CppClassjEEES4_EES6_N6il2cpp8metadata14ArrayClassHashEN14dense_hash_mapIS6_S4_SB_NS6_14EqualsComparerINSA_17ArrayClassCompareEEENS0_9allocatorIS8_EEE9SelectKeyESF_SH_E4swapERSK_
P9b:__ZN13ProduceHelperI14SpriteRendererLb0EE7ProduceE18MemLabelIdentifier18ObjectCreationMode
BX:__ZN5physx14PxLightCpuTask12addReferenceEv
gLc:__Z10b2DistanceP16b2DistanceOutputP14b2SimplexCachePK15b2DistanceInput
p2a:__ZN21EnlightenSceneMapping8TransferI19StreamedBinaryWriteILb0EEEEvRT_
buj:__ZN6il2cpp2gc16GarbageCollector19InitializeFinalizerEv
gC:__ZN7mecanim8skeleton18CreateSkeletonMaskEjPKNS0_19SkeletonMaskElementERNS_6memory9AllocatorE
Upg:__ZL66RuntimeArray_CustomAttributesCacheGenerator_Array_Sort_m4096942812P21CustomAttributesCache
usc:__ZN10GUIManager10DoGUIEventER10InputEventb
Jwf:_Context_get_ClientWriteKey_m2235605337
Ezb:__Z35Transfer_Blittable_FixedBufferFieldI24GenerateTypeTreeTransferxEvRK29SerializationCommandArgumentsR31RuntimeSerializationCommandInfo
Ivh:_Enumerator__ctor_m3597047336_AdjustorThunk
h2c:_UNITY_TT_Init_Glyph_Loading
GJj:_U3CStartU3Ec__Iterator0_System_Collections_Generic_IEnumeratorU3CobjectU3E_get_Current_m3595304503
pUb:__Z20CalculateSqrDistanceRK8Vector3fRK4AABB
CS:__Z32AudioMixerDuckingProcessCallbackP21UnityAudioEffectStatePfS1_jii
Gcg:_CustomAttributeTypedArgument_GetHashCode_m999147081_AdjustorThunk
xac:__ZN26CustomRenderTextureManagerD2Ev
wPe:_FileStream_Read_m3880951166
JPi:_AudioExtensionManager_Update_m3727859914
fP:__ZN12AudioManager8TransferI24GenerateTypeTreeTransferEEvRT_
Epa:__Z25GetBytesFromTextureFormat13TextureFormat
C7a:__ZN9Texture3D19UnloadFromGfxDeviceEb
Wnj:__ZN6il2cpp6icalls8mscorlib6System9Threading6Thread20Thread_free_internalEP12Il2CppThreadi
OPj:dynCall_iiffi
Nxb:__Z18Transfer_BlittableI17RemapPPtrTransferLb0EsEvRK29SerializationCommandArgumentsR31RuntimeSerializationCommandInfo
Vre:_Dictionary_2_Do_CopyTo_TisRuntimeObject_TisRuntimeObject_m2625001464_gshared
dFg:__ZL67Math_t2022911894_CustomAttributesCacheGenerator_Math_Min_m105057611P21CustomAttributesCache
JK:__ZN16MecanimAnimation25RegisterIAnimationBindingEPKN5Unity4TypeEiP17IAnimationBinding
D8:__Z32scripting_class_get_assemblyname17ScriptingClassPtr
uad:__ZN11UnityEngine15PlatformWrapper15GetVRDeviceNameEv
kBh:_Dictionary_2_Resize_m2532139610_gshared
zoi:_Mathf_RoundToInt_m1833913145
d8e:_List_1_IndexOf_m2019441835_gshared
C4f:_TimeSpan_Equals_m2029123271_AdjustorThunk
U5i:__ZN6il2cpp2vm13MetadataCache23GetInvokerMethodPointerEPK10MethodInfoPK20Il2CppGenericContext
OAa:__ZN9GfxDevice21RegisterNativeTextureE9TextureIDi16TextureDimension
Ode:_CultureInfo__ctor_m456863818
wGj:__ZN6il2cpp6icalls8mscorlib6System10Reflection4Emit11TypeBuilder20create_generic_classEP27Il2CppReflectionTypeBuilder
H8i:__ZNSt3__26vectorIPK10MethodInfoNS_9allocatorIS3_EEE26__swap_out_circular_bufferERNS_14__split_bufferIS3_RS5_EE
g_e:_Enumerator_MoveNext_m2504790928_gshared
v$g:__ZL61Slider_t297367283_CustomAttributesCacheGenerator_m_HandleRectP21CustomAttributesCache
gX:__Z60Register_UnityEngine_AudioListener_GetNumExtensionPropertiesv
Xi:_emscripten_glUniformMatrix4fv
flj:__ZN15dense_hashtableINSt3__24pairIK10KeyWrapperINS1_IP11Il2CppClassjEEES4_EES6_N6il2cpp8metadata14ArrayClassHashEN14dense_hash_mapIS6_S4_SB_NS6_14EqualsComparerINSA_17ArrayClassCompareEEENS0_9allocatorIS8_EEE9SelectKeyESF_SH_E13set_empty_keyERKS8_
Gob:__ZN12ScriptMapperD2Ev
gWg:__ZL85AxisEventData_t1524870173_CustomAttributesCacheGenerator_U3CmoveDirU3Ek__BackingFieldP21CustomAttributesCache
fid:_KeyedHashAlgorithm_Dispose_m1864300576
Dri:_X509Certificate_PEM_m49854707
zDe:_PKCS12_get_RNG_m3620550062
oJf:_X509BasicConstraintsExtension__ctor_m3320418592
Nqi:_ExtendedKeyUsageExtension_Decode_m901297139
rlb:__Z32TransferEnumWithNameForceIntSizeI14SafeBinaryRead7FogModeEvRT_RT0_PKc17TransferMetaFlags
Xpc:__Z52Register_UnityEngine_RenderTexture_Internal_GetWidthv
rrg:__ZL89SafeWaitHandle_t481461830_CustomAttributesCacheGenerator_SafeWaitHandle__ctor_m1710231470P21CustomAttributesCache
BDj:_GC_check_leaked
Ymb:__ZN9ShaderLab20SerializedSubProgram16TextureParameter8TransferI19StreamedBinaryWriteILb0EEEEvRT_
Aoe:_Array_InternalArray__Insert_TisVector4_t2243707581_m1643342708_gshared
VDa:__ZNK7Hash12812PackToUInt32Ev
mJh:_Mask_OnSiblingGraphicEnabledDisabled_m865494155
dGf:_KeysCollection_System_Collections_ICollection_get_SyncRoot_m2289369147
rhj:__ZNSt3__218uninitialized_fillIPNS_4pairIK10KeyWrapperINS1_IPK12PropertyInfoP11Il2CppClassEEEjEESB_EEvT_SD_RKT0_
d3c:__ZZN20TextRenderingPrivate8TextMesh15InitializeClassEvEN31FunctorImpl_299kDidAddComponent4CallEPviR11MessageData
saa:__ZNSt3__227__insertion_sort_incompleteIRNS_6__lessI14ObjectLoadDataS2_EEPS2_EEbT0_S6_T_
P$:__ZN11UnityEngine15CloudWebService16SessionContainer8AddEventEPNS0_14CloudEventInfoE
vza:__Z4TrimRKN4core12basic_stringIcNS_20StringStorageDefaultIcEEEES5_
VQh:_Text_set_resizeTextMaxSize_m4034967714
Yqg:__ZL55GuidAttribute_t222072359_CustomAttributesCacheGeneratorP21CustomAttributesCache
rcg:_CustomAttributeNamedArgument_Equals_m2691468532
_ng:__ZL74String_t_CustomAttributesCacheGenerator_String_Concat_m3881798623____args0P21CustomAttributesCache
mzg:__ZL103CryptoConfig_t896479599_CustomAttributesCacheGenerator_CryptoConfig_CreateFromName_m2169102076____args1P21CustomAttributesCache
F5a:__ZN10VertexData8TransferI14SafeBinaryReadEEvRT_
uQ:__ZN4FMOD8ChannelI8setDelayE14FMOD_DELAYTYPEjj
f$d:_Stack__ctor_m2410583781
vEj:_GC_malloc_atomic
Rbg:_Default_GetBetterMethod_m4255740863
tdg:_ConstructorBuilder_GetILGenerator_m1731893569
Esj:__ZNSt3__214__split_bufferIN6il2cpp2vm5Image20EmbeddedResourceDataERNS_9allocatorIS4_EEED2Ev
E6:__ZL20SortItemByInstanceIDRKN18AwakeFromLoadQueue4ItemES2_
xig:_TypeBuilder_create_runtime_class_m2719530260
Bkd:_RNGCryptoServiceProvider_RngClose_m2921734810
sC:__ZNK34AnimationStateMachineMixerPlayable26GetInterruptedPosePlayableEv
qdd:__ZN20UnityConnectSettings8TransferI24GenerateTypeTreeTransferEEvRT_
LE:__ZN34BlobWriteTransferSTLStyleArrayImplI22OffsetPtrArrayTransferIbEEclERS1_17TransferMetaFlagsR9BlobWrite
kIg:__ZL199U3CCreateWhereIteratorU3Ec__Iterator1D_1_t2523986802_CustomAttributesCacheGenerator_U3CCreateWhereIteratorU3Ec__Iterator1D_1_System_Collections_Generic_IEnumeratorU3CTSourceU3E_get_Current_m517722874P21CustomAttributesCache
Jve:_SimpleCollator_IsHalfKana_m4255579023
VDf:_InternalAsyncResult_get_Count_m1291942796
Dbf:_Collection_1_System_Collections_IList_Contains_m3365884450_gshared
Zyj:__ZNK15dense_hashtableINSt3__24pairIK10KeyWrapperIPK19Il2CppGenericMethodEP10MethodInfoEES6_N6il2cpp8metadata23Il2CppGenericMethodHashEN14dense_hash_mapIS6_S9_SD_NS6_14EqualsComparerINSC_26Il2CppGenericMethodCompareEEENS0_9allocatorISA_EEE9SelectKeyESH_SJ_E10test_emptyERK30dense_hashtable_const_iteratorISA_S6_SD_SL_SH_SJ_E
bIa:__Z16FlaggedAsSkippedIN4core12basic_stringIcNS0_20StringStorageDefaultIcEEEEEbRK13FileEntryInfoRKT_19FileEnumerationFlag
zif:_Collection_1_set_Item_m3440986310_gshared
mca:__ZL31InitializeRendererUpdateManagerPv
JAd:_BaseMeshEffect__ctor_m2843647600
Wsf:_ASN1__ctor_m3688855288
Sch:__Z106RuntimeInvoker_RuntimeObject_Int16_t4041245914_RuntimeObject_BooleanU26_t3168250738_BooleanU26_t3168250738PFvvEPK10MethodInfoPvPS4_
eLg:__ZL89Input_t1785128008_CustomAttributesCacheGenerator_Input_get_imeCompositionMode_m1132899721P21CustomAttributesCache
nW:__ZN13AudioListener12CleanupClassEv
Ayf:_ClientSessionInfo_Dispose_m2571428025
uNd:_LayoutGroup_DelayedSetDirty_m4276695617
MBf:_RecordProtocol_decryptRecordFragment_m2510859489
kEi:_InvokableCall_1__ctor_m975753341_gshared
uvd:_BaseRaycaster_get_sortOrderPriority_m3340181311
Bcb:__ZN11TimeManager8TransferI19StreamedBinaryWriteILb0EEEEvRT_
cQe:_DelegatePInvokeWrapper_ReadDelegate_t3184826381
eIg:__ZL91HashSet_1_t2624254809_CustomAttributesCacheGenerator_HashSet_1_OnDeserialization_m627602129P21CustomAttributesCache
OZc:_compare_uni_maps
Mhf:_Collection_1_get_Count_m804306016_gshared
fbd:__ZN11UnityEngine15PlatformWrapper27GetGraphicsCapsSupportFlagsEv
E4c:__ZNSt3__218__insertion_sort_3IRPFbPN2UI6CanvasES3_EPS3_EEvT0_S8_T_
qog:__ZL80Decimal_t724701077_CustomAttributesCacheGenerator_Decimal_op_Explicit_m714968249P21CustomAttributesCache
a9d:_Decimal_Equals_m1115043331
fDb:__ZN12NativeBufferI16Converter_StringE15SetupForWritingER9ArrayInfo
tzd:_StandaloneInputModule_DeactivateModule_m2952848884
xTj:___cxa_end_catch__wrapper
jAh:_ValueCollection_System_Collections_Generic_ICollectionU3CTValueU3E_Clear_m231380274_gshared
vwd:_Entry__ctor_m1176697586
KNe:_BinaryReader_ReadUInt32_m1363572147
mEg:__ZL79Convert_t2607082565_CustomAttributesCacheGenerator_Convert_ToUInt32_m3391339025P21CustomAttributesCache
nKb:__ZN13MonoBehaviour22DoScriptRebuildWarningEv
elc:__Z38Camera_CUSTOM_INTERNAL_CALL_RaycastTryP12Il2CppObjectRK3Rayfi
cRh:_Text_get_verticalOverflow_m3134063496
Ymj:__ZN6il2cpp6icalls8mscorlib6System5Array13ClearInternalEP11Il2CppArrayii
n6h:_GCHandle_get_Target_m2327042781
FJf:_PublicKey_get_EncodedKeyValue_m3051963850
rbh:__Z50RuntimeInvoker_Char_t3454481338_Single_t2076509932PFvvEPK10MethodInfoPvPS4_
hgf:_Collection_1_GetEnumerator_m1417525918_gshared
nPj:_llvm_cttz_i32
JJf:_PublicKey_DecodeDSA_m1169363495
xtc:__ZN11IMGUIModule25GetGUIStyleScriptingClassEv
G0c:_tt_get_interface
Nqe:_Array_Sort_TisRuntimeObject_m143182644_gshared
yYf:_AsymmetricKeyExchangeFormatter__ctor_m3362140205
Hnj:__ZN6il2cpp5utils9PathUtils7CombineIcEENSt3__212basic_stringIT_NS3_11char_traitsIS5_EENS3_9allocatorIS5_EEEERKSA_SC_
WFf:_NameObjectCollectionBase_BaseGet_m667273025
M9g:__Z104RuntimeInvoker_RuntimeObject_Byte_t3683104436_RuntimeObject_SByte_t454417549_RuntimeObject_RuntimeObjectPFvvEPK10MethodInfoPvPS4_
czc:__ZN9JSONWrite8TransferI13dynamic_arrayIiLj4EEEEvRT_PKc17TransferMetaFlags
SLg:__ZL82Material_t193706927_CustomAttributesCacheGenerator_Material_SetIntImpl_m1039479734P21CustomAttributesCache
iec:__ZN13PlayableGraph21InvalidateMultithreadEv
lO:__ZL16FMOD_ErrorString11FMOD_RESULT_361
I5:__Z18ConvertUTF16toUTF8PPKtS0_PPhS2_15ConversionFlags
AKi:_GUIStyleState__ctor_m3673085649
S5f:_TypeLoadException__ctor_m1903359728
HYi:__ZL16my_g_bit_nth_msfj
hyh:_Transform_1_BeginInvoke_m3014766640_gshared
ehd:_KeySizes__ctor_m3526899007
ulj:__ZN15dense_hashtableINSt3__24pairIK10KeyWrapperIP11Il2CppClassES4_EES5_N6il2cpp8metadata16SZArrayClassHashEN14dense_hash_mapIS5_S4_SA_NS5_14EqualsComparerINS9_19SZArrayClassCompareEEENS0_9allocatorIS7_EEE9SelectKeyESE_SG_E12expand_arrayEjN21dense_hash_map_traits17integral_constantIbLb0EEE
AIe:_Int16_System_IConvertible_ToInt32_m191782913_AdjustorThunk
aPg:__ZL69ArgumentCache_t4810721_CustomAttributesCacheGenerator_m_FloatArgumentP21CustomAttributesCache
Ccf:_Collection_1_CopyTo_m1578267616_gshared
SZf:_EncoderReplacementFallback__ctor_m2208438262
ASb:__Z23SetupStereoFlareElementP11FlareVertexRK8Vector2fS3_S3_RK11ColorRGBA32RK10Matrix4x4fRK8Vector3fb
deh:__Z91RuntimeInvoker_X509ChainStatusFlags_t480677120_RuntimeObject_RuntimeObject_SByte_t454417549PFvvEPK10MethodInfoPvPS4_
j0i:__ZN6il2cpp2vm5Class15GetInstanceSizeEPK11Il2CppClass
xmh:__Z37RuntimeInvoker_Enumerator_t3806193287PFvvEPK10MethodInfoPvPS4_
hii:_UnmarshalledAttribute__ctor_m2832569902
ta:invoke_iiiifiiii
oxi:_RectTransform_set_anchoredPosition_m4223859262
qEh:_Dictionary_2_CopyTo_m1495142643_gshared
HGi:_EventFunction_1_BeginInvoke_m3064802067_gshared
WEg:__ZL67IndexOutOfRangeException_t3527622107_CustomAttributesCacheGeneratorP21CustomAttributesCache
blj:__ZNK15dense_hashtableINSt3__24pairIK10KeyWrapperINS1_IP11Il2CppClassjEEES4_EES6_N6il2cpp8metadata14ArrayClassHashEN14dense_hash_mapIS6_S4_SB_NS6_14EqualsComparerINSA_17ArrayClassCompareEEENS0_9allocatorIS8_EEE9SelectKeyESF_SH_E12test_deletedERK30dense_hashtable_const_iteratorIS8_S6_SB_SJ_SF_SH_E
oOe:_Directory_GetFiles_m4036267478
ube:_Enum_System_IConvertible_ToType_m2669300536
_Fe:_NumberFormatInfo_get_CurrencyNegativePattern_m3972163809
Zva:__ZL19BlitFramebufferImplRN4gles23BlitFramebufferDrawQuadER9GfxDevice9TextureIDRK8Vector4f
pxb:__Z18Transfer_BlittableI17RemapPPtrTransferLb0EhEvRK29SerializationCommandArgumentsR31RuntimeSerializationCommandInfo
afj:__ZN15dense_hashtableINSt3__24pairIK10KeyWrapperIPK10Il2CppTypeEjEES6_N6il2cpp8metadata14Il2CppTypeHashEN14dense_hash_mapIS6_jSB_NS6_14EqualsComparerINSA_26Il2CppTypeEqualityComparerEEENS0_9allocatorIS8_EEE9SelectKeyESF_SH_E4findERS7_
Qgh:__Z83RuntimeInvoker_Void_t1841601450_QuaternionU26_t4187826802_QuaternionU26_t4187826802PFvvEPK10MethodInfoPvPS4_
rzi:_StackTraceUtility_ExtractStringFromExceptionInternal_m234524721
tlf:_ReadOnlyCollection_1_System_Collections_IList_Add_m2333231354_gshared
fTc:_UNITY_FT_List_Add
Shg:_OpCodes__cctor_m939885911
Wac:__ZN14Texture2DArray11InitTextureEiii13TextureFormatb
uki:_CustomYieldInstruction__ctor_m1440815618
Duf:_PKCS1_RSASP1_m1748738009
S_a:__ZN12CubemapArray21AwakeFromLoadThreadedEv
vLg:__ZL92AnimationCurve_t3306541151_CustomAttributesCacheGenerator_AnimationCurve_Cleanup_m3596170191P21CustomAttributesCache
ehi:_UriParser_InitializeAndValidate_m251943319
Omd:_SymmetricAlgorithm_set_Padding_m3081984460
Tjj:__ZN15dense_hashtableINSt3__24pairIK10KeyWrapperINS1_IPK11Il2CppImageP11Il2CppClassEEEjEES9_17ReflectionMapHashIS8_EN14dense_hash_mapIS9_jSD_NS9_14EqualsComparerINS0_8equal_toIS8_EEEENS0_9allocatorISB_EEE9SelectKeyESI_SK_E14squash_deletedEv
kcb:__ZN9InputAxis8TransferI18StreamedBinaryReadILb0EEEEvRT_
FWb:__ZNK6Camera26GetStereoSingleCullEnabledEv
OWf:_StreamingContext_t1417235061_marshal_pinvoke_back
Dfb:__Z14resize_trimmedINSt3__26vectorIN4core12basic_stringIcNS2_20StringStorageDefaultIcEEEE13stl_allocatorIS6_L18MemLabelIdentifier13ELi16EEEEEvRT_j
rVd:_ArrayList_RemoveAt_m2578928333
vub:__Z18Transfer_BlittableI14SafeBinaryReadLb0EaEvRK29SerializationCommandArgumentsR31RuntimeSerializationCommandInfo
IEi:_InvokableCall_3__ctor_m4270240248_gshared
zkf:_ReadOnlyCollection_1_System_Collections_IList_set_Item_m1233322304_gshared
Uqi:_GeneralNames_get_DNSNames_m2721668874
dbh:__Z76RuntimeInvoker_Boolean_t3825574718_TimeSpan_t3430258949_TimeSpan_t3430258949PFvvEPK10MethodInfoPvPS4_
kbe:_Enum_System_IConvertible_ToByte_m38374586
hkf:_ReadOnlyCollection_1_System_Collections_Generic_IListU3CTU3E_RemoveAt_m1592158292_gshared
Bag:_PlatformNotSupportedException__ctor_m3301654967
ISj:_emscripten_glFrustum__wrapper
cCf:_ReceiveRecordAsyncResult_get_CompletedWithError_m2670396551
Xsh:__Z37RuntimeInvoker_Enumerator_t2983962278PFvvEPK10MethodInfoPvPS4_
N8d:_Decimal_Equals_m1798565377
OSa:__ZN17GlobalGameManager8TransferI24GenerateTypeTreeTransferEEvRT_
Lkh:__Z38RuntimeInvoker_ContentType_t1028629049PFvvEPK10MethodInfoPvPS4_
wJg:__ZL95Component_t3819376471_CustomAttributesCacheGenerator_Component_GetComponentInParent_m1617315419P21CustomAttributesCache
LZg:__ZL66InputField_t1631627530_CustomAttributesCacheGenerator_m_CaretColorP21CustomAttributesCache
emb:__ZN15SerializeTraitsINSt3__26vectorIN9ShaderLab20SerializedSubProgram15MatrixParameterENS0_9allocatorIS4_EEEEE8TransferI24GenerateTypeTreeTransferEEvRS7_RT_
Feg:_TypeBuilder_check_created_m2929267877
Ev:__ZN19StreamedBinaryWriteILb0EE8TransferIKN4math7_float3EEEvRT_PKc17TransferMetaFlags
MQb:__Z20SyncFenceCullResultsR11CullResults
jya:__ZN15TextureTFMethod20IsBoneCountSupportedEi
gVa:__ZN14RenderSettings23VirtualRedirectTransferER24GenerateTypeTreeTransfer
t5d:_DateTime_System_IConvertible_ToSByte_m2575078084_AdjustorThunk
Pyb:__Z22TransferField_NonArrayI17RemapPPtrTransfer27Converter_SimpleNativeClassI8GUIStyleEEvRK23StaticTransferFieldInfoR31RuntimeSerializationCommandInfoRT0_
o9b:__ZNK17AnimationCurveTplIfE20EvaluateWithoutCacheEfRf
syj:__ZN6il2cpp2os6Thread12QueueUserAPCEPFvPvES2_
xVa:__ZN19ShaderPropertySheet10SetTextureERK23FastTexturePropertyNameP7Texture
Jhe:_Array_InternalArray__IEnumerable_GetEnumerator_TisDictionaryEntry_t3048875398_m3498834924_gshared
lef:_Collection_1_IsValidItem_m1304951912_gshared
igc:__ZN4Mesh10SetNormalsEPK8Vector3fj
Llg:_PropertyInfo__ctor_m1808219471
KPc:__Z66Register_UnityEngine_Physics2D_INTERNAL_CALL_GetRayIntersectionAllv
H1d:_Convert_ToDateTime_m4161927553
Leg:_TypeBuilder_GetConstructors_m774120094
Szj:__ZNSt3__212basic_stringIDsNS_11char_traitsIDsEENS_9allocatorIDsEEE9__grow_byEjjjjjj
et:__ZN17AnimationCurveTplIfE8TransferI14SafeBinaryReadEEvRT_
j8g:__Z75RuntimeInvoker_Boolean_t3825574718_RuntimeObject_MonoIOErrorU26_t1029615899PFvvEPK10MethodInfoPvPS4_
zfi:_RegularExpression_set_GroupCount_m2991393456
P3b:__Z29StdTemplateConversionFunctionIybEbPvR14SafeBinaryRead
e4a:__ZNSt3__26vectorIN15QualitySettings14QualitySettingENS_9allocatorIS2_EEE6assignIPS2_EENS_9enable_ifIXaasr21__is_forward_iteratorIT_EE5valuesr16is_constructibleIS2_NS_15iterator_traitsIS9_E9referenceEEE5valueEvE4typeES9_S9_
FDa:__ZNK5Unity9Component10GetEnabledEv
pRb:__ZNK19ShaderPropertySheet11HasPropertyERKN9ShaderLab16FastPropertyNameE
e5d:_DateTime_System_IConvertible_ToByte_m2670443498_AdjustorThunk
Kzh:_ValueCollection_System_Collections_Generic_ICollectionU3CTValueU3E_Contains_m3650367146_gshared
Baj:_il2cpp_class_get_image
Y9:__Z16AsyncReadRequestP16AsyncReadCommand
qHg:__ZL81BigInteger_t925946153_CustomAttributesCacheGenerator_BigInteger__ctor_m4013661868P21CustomAttributesCache
y$i:__ZNK15dense_hashtableINSt3__24pairIK10KeyWrapperIPK22Il2CppGenericParameterEP11Il2CppClassEES6_N6il2cpp5utils11PointerHashIS4_EEN14dense_hash_mapIS6_S9_SE_NS6_14EqualsComparerINS0_8equal_toIS5_EEEENS0_9allocatorISA_EEE9SelectKeyESJ_SL_E12test_deletedEj
usf:_BigInteger_op_Addition_m1734797151
t6a:__ZN15dense_hashtableINSt3__24pairIKN4core12basic_stringIcNS2_20StringStorageDefaultIcEEEE13dynamic_arrayI4PPtrI6SpriteELj4EEEES6_20StringHash32FunctionIS6_EN14dense_hash_mapIS6_SC_SF_NS0_8equal_toIS6_EE13stl_allocatorISD_L18MemLabelIdentifier81ELi16EEE9SelectKeyESI_SL_E4findERS7_
idf:_Collection_1_System_Collections_IList_set_Item_m3488446830_gshared
efg:_EnumBuilder_CreateNotSupportedException_m62763134
afd:__ZNK12HeaderHelper3GetERKN4core12basic_stringIcNS0_20StringStorageDefaultIcEEEE
TKf:_X509Chain_CheckRevocation_m2480313486
eUe:_Math_Log_m3371716878
bcb:__ZN9InputAxis8TransferI14SafeBinaryReadEEvRT_
T6:__ZNK21ExecutionOrderManager30GetCustomAwakeFromLoadQueueForEPKN5Unity4TypeE
Ced:__Z27RegisterModule_UnityConnectv
XYd:_Hashtable__ctor_m4280223555
tmg:_ParameterInfo_get_IsRetval_m1881464570
WSf:_RealProxy__ctor_m3041043303
xJe:_NumberFormatter_Init_m2654758994
pid:_HMACSHA1__ctor_m1168389339
NNc:__ZNK17Physics2DSettings22GetTypeVirtualInternalEv
hVj:_glBindRenderbuffer__wrapper
OR:__ZN10ObjectPoolIN4FMOD12ChannelGroupENS0_13ChannelGroupIEE7SetSizeEi
Cye:_PrimalityTest_BeginInvoke_m966469054
Bii:_Bounds_get_max_m1939845278_AdjustorThunk
wnf:_ReadOnlyCollection_1_System_Collections_Generic_ICollectionU3CTU3E_Clear_m1785953911_gshared
O8f:_UInt64_System_IConvertible_ToInt16_m2797150165_AdjustorThunk
Cte:_Array_InternalArray__get_Item_TisLabelData_t3712112744_m863115768_gshared
lLe:_Int32_Parse_m753946802
Tu:__ZN18StreamedBinaryReadILb0EE21TransferSTLStyleArrayI22OffsetPtrArrayTransferIN7mecanim9animation10ValueDeltaEEEEvRT_17TransferMetaFlags
eUg:__ZL113GUITargetAttribute_t863467180_CustomAttributesCacheGenerator_GUITargetAttribute_GetGUITargetAttrValue_m3706077059P21CustomAttributesCache
O6b:__ZN9Polygon2D7SetPathEiRK13dynamic_arrayI8Vector2fLj4EE
r1:__Z22ValidateTlsfAllocationPvjiS_
QPi:_AudioConfigurationChangeHandler_Invoke_m653824108
k8e:_List_1_RemoveAt_m2331128844_gshared
Zjj:__ZN14dense_hash_mapI10KeyWrapperINSt3__24pairIPK9EventInfoP11Il2CppClassEEEj17ReflectionMapHashIS8_ENS9_14EqualsComparerINS1_8equal_toIS8_EEEENS1_9allocatorINS2_IKS9_jEEEEE15set_deleted_keyERSH_
Vig:_UnmanagedMarshal_ToMarshalAsAttribute_m3695569337
fwb:__Z14resize_trimmedINSt3__26vectorI17AnimationCurveTplIfE13stl_allocatorIS3_L18MemLabelIdentifier1ELi16EEEEEvRT_j
j0b:__ZN25CameraStackRenderingState19SetupLastEyeCamerasERK11CameraStack
cKa:__Z12GUIDToStringRK9UnityGUID
TMd:_LayoutElement_get_minHeight_m2070403283
ON:__ZN11SoundHandleC2ERKS_
iB:__ZN17AnimationPlayableC2E18DirectorPlayerType
wuf:_RSASslSignatureFormatter__ctor_m2530528184
c5i:__ZNK6il2cpp5utils11collections13ArrayValueMapIPK10Il2CppType17Il2CppInteropData26InteropDataToTypeConverterNS_8metadata14Il2CppTypeLessENS8_26Il2CppTypeEqualityComparerEE10find_firstERKS5_
$Sa:__ZN15SerializeTraitsI12fixed_bitsetILi24EjEE8TransferI18StreamedBinaryReadILb0EEEEvRS1_RT_
hye:_BigInteger_op_Addition_m1196561843
h4b:__Z29StdTemplateConversionFunctionItxEbPvR14SafeBinaryRead
RXi:_CanvasRenderer_INTERNAL_CALL_GetColor_m3192682614
O8h:_FormatterData__ctor_m3974986124
stg:__ZL64FileNotFoundException_t4200667904_CustomAttributesCacheGeneratorP21CustomAttributesCache
Njd:_RijndaelManagedTransform_get_CanReuseTransform_m3735256596
WJg:__ZL97GameObject_t1756533147_CustomAttributesCacheGenerator_GameObject_GetComponentInParent_m1178052983P21CustomAttributesCache
tYd:_Comparer__cctor_m1327316974
jOe:_MonoIO_ExistsFile_m1421941572
S6d:_DateTime_op_GreaterThanOrEqual_m3818963848
jz:__ZN17AnimationPlayable18DeallocateBindingsEv
S1b:__ZN6Camera25StandaloneRenderToCubemapEP7TextureiPFvPK9SceneNodePK4AABBR9IndexListPvESA_j
NDd:_DefaultControls_SetDefaultTextValues_m1707718380
Ozd:_TouchInputModule_UseFakeInput_m2112019004
Nvd:_EventSystem_get_baseEventDataCache_m4294741599
lVa:__ZN14RenderSettings18TransferDeprecatedI14SafeBinaryReadEEvRT_
Vvi:_Rect_get_center_m2903917731_AdjustorThunk
V2:__ZN12TLSAllocatorI14StackAllocatorE8AllocateEji
T7:__ZN16ScriptingManager18GetMonoScriptCacheEi
z5g:__Z62RuntimeInvoker_Void_t1841601450_RuntimeObject_Int64_t909078037PFvvEPK10MethodInfoPvPS4_
DNg:__ZL104RectTransform_t3349966182_CustomAttributesCacheGenerator_RectTransform_INTERNAL_get_anchorMax_m190830848P21CustomAttributesCache
r1i:__ZN15dense_hashtableINSt3__24pairIK10KeyWrapperIPK11Il2CppClassEPKcEES6_N6il2cpp5utils11PointerHashIS3_EEN14dense_hash_mapIS6_S9_SE_NS6_14EqualsComparerINS0_8equal_toIS5_EEEENS0_9allocatorISA_EEE9SelectKeyESJ_SL_E15set_deleted_keyERKSA_
UHd:_GridLayoutGroup_CalculateLayoutInputHorizontal_m2355123124
cIg:__ZL84Locale_t4255929017_CustomAttributesCacheGenerator_Locale_GetText_m512920887____args1P21CustomAttributesCache
Cub:__Z18Transfer_BlittableI14SafeBinaryReadLb1EyEvRK29SerializationCommandArgumentsR31RuntimeSerializationCommandInfo
lQg:__ZL89U3CInvokeMessageIdSubscribersU3Ec__AnonStorey0_t1899782350_CustomAttributesCacheGeneratorP21CustomAttributesCache
_vc:__ZN8JSONRead8TransferIfEEvRT_PKc17TransferMetaFlagsb
uJ:__ZN25RuntimeAnimatorController8TransferI17RemapPPtrTransferEEvRT_
oof:_ReadOnlyCollection_1_System_Collections_ICollection_get_IsSynchronized_m4063596282_gshared
Jnb:__ZN9ShaderLab7Program22ComputeSupportsShadowsEv
_Nj:__ZNSt3__212basic_stringIcNS_11char_traitsIcEENS_9allocatorIcEEE6appendEPKcj
nug:__ZL54TypeBuilder_t3308873219_CustomAttributesCacheGeneratorP21CustomAttributesCache
Rsa:__ZN6prcoreL17RemapGenericFloatI18TexFormatARGBFloat17TexFormatRGBAHalfEEvPKNS_9InnerInfoE
_ef:_Collection_1_CheckWritable_m691269733_gshared
kT:__ZN11AudioSource21ApplyCachedParametersE12SoundChannel
Tsh:__Z54RuntimeInvoker_Void_t1841601450_IntPtr_t_RuntimeObjectPFvvEPK10MethodInfoPvPS4_
Ifg:_GenericTypeParameterBuilder_GetAttributeFlagsImpl_m3338182267
ZX:__ZN13Simd4iFactoryIN6detail9FourTupleEEC2Eiiii
BSe:_SynchronizedReader__ctor_m1408327515
Zti:_X509Store_LoadCrl_m1146720614
Coh:__Z59RuntimeInvoker_Int32_t2071877448_KeyValuePair_2_t3749587448PFvvEPK10MethodInfoPvPS4_
opf:_ReadOnlyCollection_1_System_Collections_IList_Clear_m1858417639_gshared
_Zd:_Slot_t2022531261_marshal_pinvoke_cleanup
BFi:_UnityAction_3_Invoke_m1025098032_gshared
T1a:__ZN15SerializeTraitsI33EnlightenTerrainChunksInformationE8TransferI14SafeBinaryReadEEvRS0_RT_
vJc:__ZN6b2Body12SetTransformERK6b2Vec2f
Jbc:__ZNK32RendererMaterialAnimationBinding9BindValueER6ObjectRKN11UnityEngine9Animation14GenericBindingERNS3_10BoundCurveE
s_a:__Z13GetIAnimationv
_qa:__ZL18stbir__support_onef
_1e:_List_1_System_Collections_IList_Remove_m2040310137_gshared
Fii:_Bounds_SetMinMax_m2094075031_AdjustorThunk
qbi:_Match_get_Regex_m3526002767
Dtg:__ZL49Stream_t3255436806_CustomAttributesCacheGeneratorP21CustomAttributesCache
W1g:__Z48RuntimeInvoker_Boolean_t3825574718_RuntimeObjectPFvvEPK10MethodInfoPvPS4_
Lxc:__Z26Transfer_UnityEngineObjectI9JSONWriteLb0EEvRK29SerializationCommandArgumentsR31RuntimeSerializationCommandInfo
OYa:__ZNSt3__26vectorIN4core12basic_stringIcNS1_20StringStorageDefaultIcEEEE13stl_allocatorIS5_L18MemLabelIdentifier1ELi16EEE6assignINS_11__wrap_iterIPS5_EEEENS_9enable_ifIXaasr21__is_forward_iteratorIT_EE5valuesr16is_constructibleIS5_NS_15iterator_traitsISF_E9referenceEEE5valueEvE4typeESF_SF_
V7f:_UInt32_System_IConvertible_ToInt16_m2251335934_AdjustorThunk
M5c:__ZNSt3__27__sort5IRNS_6__lessIN2UI14DepthSortEntryES3_EEPS3_EEjT0_S7_S7_S7_S7_T_
SQd:_Boolean_System_IConvertible_ToType_m3990189691
Lgj:__ZNSt3__218uninitialized_copyIPNS_4pairIK10KeyWrapperINS1_IPK11Il2CppImageP11Il2CppClassEEEjEESC_EET0_T_SE_SD_
Ca:invoke_vdd
Ufa:__ZN14dense_hash_mapIN4core12basic_stringIcNS0_20StringStorageDefaultIcEEEE13dynamic_arrayI4PPtrI6SpriteELj4EE20StringHash32FunctionIS4_ENSt3__28equal_toIS4_EE13stl_allocatorINSC_4pairIKS4_S9_EEL18MemLabelIdentifier81ELi16EEE15set_deleted_keyERSH_
R_h:_InternalEnumerator_1_Dispose_m3838127340_AdjustorThunk
Kae:_Double_System_IConvertible_ToUInt32_m624993430
CWg:__ZL89PointerEventData_t1599784723_CustomAttributesCacheGenerator_U3CdraggingU3Ek__BackingFieldP21CustomAttributesCache
_9b:__ZNK30SpriteRendererAnimationBinding12GetPPtrValueERKN11UnityEngine9Animation10BoundCurveE
l3c:__ZZ29InitializeTextRenderingModulevEN27cleanupAfterLoadRegistrator7ForwardEv
y3f:_Scheduler_Add_m376749205
IA:__ZN27AnimationLayerMixerPlayable24ProcessAnimationLayerMixEP33AnimationPlayableEvaluationOutputP35AnimationPlayableEvaluationConstantP32AnimationPlayableEvaluationInputS1_if
W$b:__Z29PluginsIssueRenderingExtEvent26UnityRenderingExtEventTypePv
X6i:_WebRequestUtils_RedirectTo_m675215376
J0h:_InternalEnumerator_1_Dispose_m3464626239_AdjustorThunk
Kac:__Z14RandomRotationP9Texture2DPhiiii
DXe:_OutOfMemoryException__ctor_m1932883273
tZh:_InternalEnumerator_1_MoveNext_m1594563423_AdjustorThunk
Sve:_SimpleCollator_IsIgnorable_m2485013022
N5e:_List_1_System_Collections_IList_Insert_m2036969360_gshared
uLd:_InputField_GetUnclampedCharacterLineFromPosition_m1912794077
DPe:_ReadDelegate__ctor_m885671467
$Zh:_InternalEnumerator_1_System_Collections_IEnumerator_Reset_m4085710193_AdjustorThunk
o7d:_DateTimeOffset_ToString_m2121173678_AdjustorThunk
NHg:__ZL50X509Crl_t1699034837_CustomAttributesCacheGeneratorP21CustomAttributesCache
rdh:__Z74RuntimeInvoker_RuntimeObject_RuntimeObject_Int16_t4041245914_RuntimeObjectPFvvEPK10MethodInfoPvPS4_
jj:_JS_WebRequest_SetResponseHandler
MYj:_glDeleteProgram__wrapper
llc:__Z50Register_UnityEngine_Camera_INTERNAL_get_pixelRectv
hsa:__ZN6prcoreL18BlitFloatToIntegerERK14ImageReferenceRS0_
aEe:_X509CertificateCollection_get_Item_m410866272
sMi:_EqualityComparer_1_System_Collections_IEqualityComparer_Equals_m1705945391_gshared
MMc:__ZN7b2Timer5ResetEv
i$:__ZN11UnityEngine15CloudWebService14RestDownloader17OnCompleteContentEv
mId:_LayoutGroup_SetChildAlongAxis_m1615929339
vdh:__Z75RuntimeInvoker_RuntimeObject_RuntimeObject_Double_t4078015681_RuntimeObjectPFvvEPK10MethodInfoPvPS4_
Jch:__Z200RuntimeInvoker_Boolean_t3825574718_RuntimeObject_RuntimeObject_RuntimeObject_Int32_t2071877448_DateTimeU26_t3448131235_SByte_t454417549_BooleanU26_t3168250738_SByte_t454417549_ExceptionU26_t1467204777PFvvEPK10MethodInfoPvPS4_
Sa:invoke_viffi
EC:__ZN17AnimationPlayable28UpdateInternalStateRecursiveILi1ELb0EEEvPK35AnimationPlayableEvaluationConstant
ouj:__ZN6il2cpp2gcL10CleanupCCWEPvS1_
Va:invoke_vifff
TTh:_InternalEnumerator_1__ctor_m2111763266_gshared
Enc:__Z53Register_UnityEngine_Input_INTERNAL_get_mousePositionv
yXj:_glGetVertexAttribiv__wrapper
Qe:_emscripten_request_fullscreen
YTi:__ZL25UnresolvedVirtualCall_212P12Il2CppObjecti40CustomAttributeTypedArgument_t1498197914PK10MethodInfo
jLb:__ZN20LocalFileSystemWebGL6DeleteER13FileEntryDatab
z8d:_Decimal_System_IConvertible_ToUInt16_m1621568250
Se:_emscripten_glDisableVertexAttribArray
Wm:FUNCTION_TABLE_iiiifiiii
s4f:_TimeSpan_get_TotalMinutes_m1645177229_AdjustorThunk
nc:invoke_fifffi
Zyh:_Enumerator__ctor_m3539306986_gshared
Doa:__ZN4gles23ClearCurrentFramebufferEP7ApiGLESbbbRK10ColorRGBAffi
cB:__ZN7mecanim12statemachine20CreateStateWorkspaceEjjjRNS_6memory9AllocatorE
qze:__ZN21InterfaceFuncInvoker3IP22ByteU5BU5D_t3397334013S1_iiE6InvokeEjP11Il2CppClassP12Il2CppObjectS1_ii
SUh:_InternalEnumerator_1_System_Collections_IEnumerator_get_Current_m3680087284_gshared
bf:_emscripten_glDeleteObjectARB
Yf:_IMG_Load
rTe:_UnexceptionalStreamReader_Read_m3839775235
yni:_Input_get_compositionCursorPos_m1028058884
xta:__ZN6prcoreL27StretchGenericFloatBilinearI18TexFormatARGBFloatEEvPKNS_9InnerInfoE
Ypc:__Z53Register_UnityEngine_RenderTexture_Internal_GetHeightv
wue:_Dropdown_GetOrAddComponent_TisRuntimeObject_m2875934266_gshared
iTf:_RealProxy_SetTargetDomain_m3940877656
ita:__ZN6prcoreL17RemapGenericFloatI17TexFormatRGBAHalf18TexFormatARGBFloatEEvPKNS_9InnerInfoE
qbe:_Enum_System_IConvertible_ToInt32_m2459904362
ydh:__Z61RuntimeInvoker_RuntimeObject_Double_t4078015681_RuntimeObjectPFvvEPK10MethodInfoPvPS4_
YLc:__ZNSt3__27__sort4IRN18Overlap2DQueryBase29ColliderHitsByDepthComparitorEPP10Collider2DEEjT0_S7_S7_S7_T_
ntc:__Z14GetBuiltinSkini
tvf:_ContentInfo__ctor_m3871771681
Jud:_BaseInput_set_compositionCursorPos_m2632248731
WNi:_Enumerator_System_Collections_IEnumerator_Reset_m2573763156_gshared
lqh:__Z74RuntimeInvoker_Void_t1841601450_Int32_t2071877448_MonoResource_t3127387157PFvvEPK10MethodInfoPvPS4_
ZNe:_DirectoryInfo_Initialize_m2216118894
qpd:_WindowsIdentity_Dispose_m2649088337
rpb:__ZN2UI13RectTransform23VirtualRedirectTransferER14SafeBinaryRead
Jfb:__ZN24GenerateTypeTreeTransfer8TransferINSt3__26vectorIN4core12basic_stringIcNS3_20StringStorageDefaultIcEEEE13stl_allocatorIS7_L18MemLabelIdentifier13ELi16EEEEEEvRT_PKc17TransferMetaFlags
Zcf:_Collection_1_System_Collections_IList_Contains_m323652826_gshared
m$e:_List_1_System_Collections_ICollection_get_SyncRoot_m3733894943_gshared
x4e:_List_1_Reverse_m302978607_gshared
Dlb:__ZNSt3__26vectorIN9ShaderLab20SerializedSubProgramENS_9allocatorIS2_EEE6assignIPS2_EENS_9enable_ifIXaasr21__is_forward_iteratorIT_EE5valuesr16is_constructibleIS2_NS_15iterator_traitsIS9_E9referenceEEE5valueEvE4typeES9_S9_
Xzc:__Z18Transfer_BlittableI8JSONReadLb0E8BitFieldEvRK29SerializationCommandArgumentsR31RuntimeSerializationCommandInfo
cUf:_SoapServices_RegisterInteropXmlType_m2949236705
Cfj:__ZNK15dense_hashtableINSt3__24pairIK10KeyWrapperIPK10Il2CppTypeEjEES6_N6il2cpp8metadata14Il2CppTypeHashEN14dense_hash_mapIS6_jSB_NS6_14EqualsComparerINSA_26Il2CppTypeEqualityComparerEEENS0_9allocatorIS8_EEE9SelectKeyESF_SH_E10test_emptyERK24dense_hashtable_iteratorIS8_S6_SB_SJ_SF_SH_E
zEb:__ZL17Transfer_GUIStyleI18StreamedBinaryReadILb1EELb0EEvRK29SerializationCommandArgumentsR31RuntimeSerializationCommandInfo
utd:_String_CharCopy_m2550399897
Cfh:__Z234RuntimeInvoker_RuntimeObject_Int16_t4041245914_RuntimeObject_Int32_t2071877448_Int32_t2071877448_Int32_t2071877448_SByte_t454417549_SByte_t454417549_SByte_t454417549_SByte_t454417549_Int16_t4041245914_SByte_t454417549_SByte_t454417549PFvvEPK10MethodInfoPvPS4_
Jjb:__ZN9ShaderLab14SerializedPass8TransferI14SafeBinaryReadEEvRT_
fuc:__Z71Register_UnityEngine_GUILayoutUtility_INTERNAL_CALL_Internal_MoveWindowv
TV:__ZN12AudioManager16SetListenerPauseEb
vGc:__ZNSt3__26__sortIRN10ClipperLib12LocMinSorterEPNS1_12LocalMinimumEEEvT0_S6_T_
Hoj:__ZN6il2cpp2vm9Exception25RaiseOutOfMemoryExceptionERKNS_5utils10StringViewIDsEE
Adf:_Collection_1_IsValidItem_m2254106115_gshared
Ueg:_TypeBuilder_GetEvent_m3876348075
jQh:_Slider_OnMove_m641164662
ea:invoke_viiiiiiiiiii
zKj:___syscall_ret
B3f:_Scheduler__ctor_m3716265742
fBe:_MACAlgorithm_Final_m4076939925
T6b:__ZN14qsort_internal30FindAndMovePivotToLastPositionIP8Vector2fi26PointDistanceSortPredicateEEvT_S4_T0_T1_
eBf:_TlsServerKeyExchange_ProcessAsSsl3_m462106368
j6a:__ZN11ChannelInfo8TransferI19StreamedBinaryWriteILb0EEEEvRT_
yUh:_InternalEnumerator_1_System_Collections_IEnumerator_get_Current_m3583252352_gshared
uqi:_Object_op_Implicit_m1757773010
veg:_EnumBuilder_get_FullName_m2818393911
Asf:_BigInteger_op_RightShift_m852685747
ARe:_StreamAsyncResult_get_Done_m2858832609
smc:__Z34Register_UnityEngine_Gradient_Initv
ZHi:_ObjectPool_1_set_countAll_m1742773675_gshared
AWf:_SerializationEntry_get_Value_m1628109884_AdjustorThunk
kvd:_BaseInputModule_GetAxisEventData_m3903709281
Tte:_Array_InternalArray__get_Item_TisUriScheme_t1876590943_m1821482697_gshared
xrf:_BigInteger__ctor_m3239748086
e5a:__ZN13ScreenManager23SetIsOrientationEnabledE18EnabledOrientationb
dRi:__ZL24UnresolvedVirtualCall_57P12Il2CppObjectiPK10MethodInfo
Iyi:_HitInfo_SendMessage_m3395411273
ODg:__ZL79Convert_t2607082565_CustomAttributesCacheGenerator_Convert_ToUInt16_m1043031438P21CustomAttributesCache
OA:__ZN7mecanim5human25HumanPoseAddOverrideLayerERNS0_9HumanPoseERKS1_fRKNS_6bitsetILj70EEE
i9b:__ZN13ProduceHelperI9TransformLb0EE7ProduceE18MemLabelIdentifier18ObjectCreationMode
oUi:__ZL25UnresolvedVirtualCall_230P12Il2CppObject19Vector3_t2243707580PK10MethodInfo
rfh:__Z42RuntimeInvoker_AlertDescription_t844791462PFvvEPK10MethodInfoPvPS4_
Vdi:_Alternation_get_Alternatives_m1445219249
VEh:_DefaultComparer_GetHashCode_m2506382068_gshared
BIh:_EqualityComparer_1_System_Collections_IEqualityComparer_GetHashCode_m1012273405_gshared
fme:_Array_InternalArray__ICollection_Add_TisHitInfo_t1761367055_m2956071622_gshared
l$h:_InternalEnumerator_1_MoveNext_m470170271_AdjustorThunk
fLa:__ZN10GameObject23VirtualRedirectTransferER18StreamedBinaryReadILb0EE
XYe:_Enumerator_get_Current_m2577424081_gshared
r2h:_InternalEnumerator_1_Dispose_m2270401482_AdjustorThunk
tg:_glFrontFace
$Vf:_ObjectRecord_get_IsUnsolvedObjectReference_m2202692850
uNf:_FactoryCache_Cleanup_m4130035987
s9h:__ZN23InterfaceActionInvoker1IP18Context_t502196753E6InvokeEjP11Il2CppClassP12Il2CppObjectS1_
Lxi:_Vector2_op_Addition_m4229571528
Q4i:__ZNK15dense_hashtableINSt3__24pairIK10KeyWrapperIPK19Il2CppGenericMethodEPK26Il2CppGenericMethodIndicesEES6_N6il2cpp8metadata23Il2CppGenericMethodHashEN14dense_hash_mapIS6_SA_SE_NS6_14EqualsComparerINSD_26Il2CppGenericMethodCompareEEENS0_9allocatorISB_EEE9SelectKeyESI_SK_E12test_deletedEj
h8b:__ZN13ProduceHelperI19LowerResBlitTextureLb0EE7ProduceE18MemLabelIdentifier18ObjectCreationMode
qYb:__ZNSt3__26vectorI16ShadowCasterData13stl_allocatorIS1_L18MemLabelIdentifier2ELi16EEE21__push_back_slow_pathIKS1_EEvRT_
x8f:_UInt32_ToString_m1783596809
j9e:_List_1_Sort_m269561757_gshared
uVj:_glUniform1i__wrapper
U3c:__Z51Register_UnityEngine_TextGenerator_GetLinesInternalv
pOi:_HashSet_1_Init_m1258286688_gshared
zlf:_ReadOnlyCollection_1_System_Collections_IList_RemoveAt_m525136953_gshared
wje:__ZN21InterfaceFuncInvoker1Ii19Vector4_t2243707581E6InvokeEjP11Il2CppClassP12Il2CppObjectS0_
zsa:__ZN6prcoreL17RemapGenericFloatI17TexFormatRGBFloat18TexFormatRGBAFloatEEvPKNS_9InnerInfoE
zTi:__ZL25UnresolvedVirtualCall_187P12Il2CppObject20TimeSpan_t3430258949S1_PK10MethodInfo
C8f:_UInt64_System_IConvertible_ToBoolean_m3012279573_AdjustorThunk
r6f:_Type_get_IsGenericTypeDefinition_m2147901038
ued:__ZN20UnityConnectSettings10InitializeEv
P9h:_ContextAttribute_Freeze_m4133346275
JFe:_GregorianCalendar__ctor_m3794576475
s8f:_UInt32_TryParse_m4283512434
nAi:_TrackedReference_GetHashCode_m1278837032
RIc:__ZN16PhysicsManager2D12BeginContactEP9b2Contact
Tsj:__ZN15dense_hashtableI10KeyWrapperIP18Il2CppGenericClassES3_N6il2cpp8metadata22Il2CppGenericClassHashEN14dense_hash_setIS3_S6_NS3_14EqualsComparerINS5_25Il2CppGenericClassCompareEEENSt3__29allocatorIS3_EEE8IdentityESA_SD_E8min_sizeEjj
FN:__ZN9AudioClip11CreateSoundEv
Fwh:_ShimEnumerator_MoveNext_m3313047792_gshared
Wmb:__ZN9ShaderLab20SerializedSubProgram15VectorParameter8TransferI19StreamedBinaryWriteILb0EEEEvRT_
Z4f:_TimeSpan_op_Inequality_m257547441
lkj:__ZN14dense_hash_mapI10KeyWrapperINSt3__24pairIPK9FieldInfoP11Il2CppClassEEEj17ReflectionMapHashIS8_ENS9_14EqualsComparerINS1_8equal_toIS8_EEEENS1_9allocatorINS2_IKS9_jEEEEEC2EjRKSB_RKSF_
Nfj:__ZNK15dense_hashtableINSt3__24pairIK10KeyWrapperINS1_IPK10MethodInfoP11Il2CppClassEEEjEES9_17ReflectionMapHashIS8_EN14dense_hash_mapIS9_jSD_NS9_14EqualsComparerINS0_8equal_toIS8_EEEENS0_9allocatorISB_EEE9SelectKeyESI_SK_E13find_positionERSA_
neg:_EnumBuilder_get_Assembly_m4285228003
$ka:__ZN13GfxDeviceGLES20CreateComputeProgramEPKhj
z1d:_DateTimeFormatInfo_get_RoundtripPattern_m562440017
Pdd:__ZN11UnityEngine7Connect16PersistentValues13RestoreValuesER8JSONRead
bHi:_U3CStartU3Ec__Iterator0_System_Collections_Generic_IEnumeratorU3CobjectU3E_get_Current_m1702093362_gshared
xIa:__ZN20ArchiveStorageReader31TryToReadDirectoryFromBlockDataEyPKvj
UFh:_DefaultComparer__ctor_m3947565964_gshared
pae:_Double_System_IConvertible_ToByte_m3004284950_AdjustorThunk
gUf:_TypeEntry_get_AssemblyName_m1762285107
Noh:__Z55RuntimeInvoker_Int32_t2071877448_LabelFixup_t4090909514PFvvEPK10MethodInfoPvPS4_
Xqj:__ZN6il2cpp2vmL11GetIdentityEP14Il2CppIUnknown
kDj:_GC_push_gc_structures
ROi:_PCMReaderCallback_BeginInvoke_m2451387560
vAd:_AspectRatioFitter_get_aspectRatio_m3023618874
c9i:__ZN6il2cpp6icalls8mscorlib6SystemL8IsPublicEPK9EventInfo
sPf:_Enumerator__ctor_m3782962052
Lij:__ZN15dense_hashtableINSt3__24pairIK10KeyWrapperIPK14Il2CppAssemblyEPK22Il2CppMonoAssemblyNameEES6_N6il2cpp5utils11PointerHashIS4_EEN14dense_hash_mapIS6_SA_SF_NS6_14EqualsComparerINS0_8equal_toIS5_EEEENS0_9allocatorISB_EEE9SelectKeyESK_SM_E4swapERSP_
$_d:_Enumerator_get_Current_m1271212567
wAj:__ZThn4_N6il2cpp2vm13ComObjectBase18ReleaseMarshalDataEP13Il2CppIStream
yza:__Z22GetShaderCachePathGLESv
bch:__Z51RuntimeInvoker_UInt16_t986882611_Double_t4078015681PFvvEPK10MethodInfoPvPS4_
lt:__ZNSt3__26vectorIN13AnimationClip10FloatCurveE13stl_allocatorIS2_L18MemLabelIdentifier26ELi16EEE6resizeEj
FPc:__Z41Rigidbody2D_CUSTOM_INTERNAL_CALL_AddForceP12Il2CppObjectRK13Vector2fIcallN11Rigidbody2D9ForceModeE
nHf:_IPAddress_ParseIPV6_m2209709575
PMh:_U3CClickRepeatU3Ec__Iterator0_MoveNext_m1747924386
jrf:_Comparison_1_Invoke_m1670081898_gshared
ERh:_Toggle_set_group_m3833595685
ONd:_LayoutRebuilder_ForceRebuildLayoutImmediate_m566681977
C6a:__ZNSt3__213__stable_sortIRNS_4lessI4PPtrI11SpriteAtlasEEENS_11__wrap_iterIPS4_EEEEvT0_SA_T_NS_15iterator_traitsISA_E15difference_typeEPNSD_10value_typeEi
kza:__ZNSt3__26vectorIPN19ConstantBuffersGLES11ConstBufferENS_9allocatorIS3_EEE21__push_back_slow_pathIKS3_EEvRT_
ome:_Array_InternalArray__ICollection_Add_TisVector4_t2243707581_m698578249_gshared
Zui:_PropertyName_ToString_m1129982609_AdjustorThunk
L3:__ZN8keywords6CreateEPKc
S:Math_imul
Gab:__ZN14SpriteRenderer15SetupPropertiesEv
s4a:__ZN11PlayerPrefs6GetIntERKN4core12basic_stringIcNS0_20StringStorageDefaultIcEEEEi
P3i:__ZN6il2cpp5utils13dynamic_arrayIPK10Il2CppTypeLj4EEC2ERKS5_
Tpd:_SecurityFrame_t1002202659_marshal_pinvoke_back
C3c:__Z45TextGenerator_CUSTOM_INTERNAL_get_rectExtentsP12Il2CppObjectP5RectTIfE
Rvf:_CertificateValidationCallback_Invoke_m2500463874
khe:_SetPropertyUtility_SetStruct_TisChar_t3454481338_m2333420724_gshared
Ddf:_Collection_1_IsSynchronized_m2601980439_gshared
wZd:_Hashtable_ContainsKey_m2716576664
NGa:__Z18ReadStringFromFilePN4core17string_with_labelILi1EEERKNS_12basic_stringIcNS_20StringStorageDefaultIcEEEE
Tbi:_PatternCompiler_EmitCategory_m1696942454
K8d:_Decimal_decimalFloorAndTrunc_m3655683429
Ime:_Array_InternalArray__ICollection_CopyTo_TisInt32_t2071877448_m984622488_gshared
x5:__ZN18ScriptingArguments9AddObjectE18ScriptingObjectPtr
T7c:__Z39CanvasGroup_Get_Custom_PropInteractableP12Il2CppObject
uY:__ZN11UnityEngine15CloudWebService16SessionContainerD2Ev
_dd:__ZL38InitializeUnityConnectScriptingClassesv
F0b:__ZN13ProbeRenderer8ConvolveEbijjb
Toa:__ZN17GenericDynamicVBOC2ER9GfxDevice13GfxBufferModejj
m9h:_Context_get_HasDynamicSinks_m1998518649
kMc:__Z28GetPhysics2DScriptingClassesv
osc:__ZZN10GUIManager14InitGUIManagerEvEN41PreUpdateIMGUISendQueuedEventsRegistrator7ForwardEv
dFi:_UnityAction_1_Invoke_m2903588655_gshared
NZ:__ZN11UnityEngine15CloudWebService17SessionEventQueue10PurgeItemsEj
oud:_AbstractEventData_get_used_m4208553917
k1b:__ZN6Camera16StandaloneRenderENS_10RenderFlagEP6ShaderRKN4core12basic_stringIcNS3_20StringStorageDefaultIcEEEE
gOd:_Array_System_Collections_IList_get_Item_m2088124007
AOd:_Array_GetLength_m2083296647
iLi:_SymmetricTransform_OFB_m397918932
SAg:__ZL58SecurityElement_t2325568386_CustomAttributesCacheGeneratorP21CustomAttributesCache
f$a:__ZNK12CubemapArray13GetIsReadableEv
gXd:_SynchronizedArrayListWrapper_ToArray_m1522185111
TDb:__Z18Transfer_BlittableI18StreamedBinaryReadILb1EELb1EtEvRK29SerializationCommandArgumentsR31RuntimeSerializationCommandInfo
vpd:_SecurityContext_get_FlowSuppressed_m420202521
I7g:__Z55RuntimeInvoker_DayOfWeek_t721777893_DateTime_t693205669PFvvEPK10MethodInfoPvPS4_
ija:__ZN9GfxDevice20DeallocRenderSurfaceEP17RenderSurfaceBase
V9f:_ValueType_ToString_m3796301715
Sua:__ZN20GpuProgramParameters36UpdatePrepareValuesMaximumBufferSizeEv
mtj:__ZNK15dense_hashtableI10KeyWrapperIP18Il2CppGenericClassES3_N6il2cpp8metadata22Il2CppGenericClassHashEN14dense_hash_setIS3_S6_NS3_14EqualsComparerINS5_25Il2CppGenericClassCompareEEENSt3__29allocatorIS3_EEE8IdentityESA_SD_E12test_deletedEj
Vnc:__Z53Register_UnityEngine_Quaternion_INTERNAL_CALL_Inversev
Vpe:_Array_qsort_TisUICharInfo_t3056636800_m2607408901_gshared
syi:_Screen_get_height_m3831644396
VMa:__ZN12BaseRenderer23RendererBecameInvisibleEv
wRc:__ZN20TextRenderingPrivate8FontImpl13CharacterInfo8TransferI18StreamedBinaryReadILb0EEEEvRT_
gBb:__Z29Transfer_Blittable_ArrayFieldI24GenerateTypeTreeTransferfEvRT_R9ArrayInfoRK23StaticTransferFieldInfo
sba:__ZNSt3__26__treeINS_12__value_typeIN4core12basic_stringIcNS2_20StringStorageDefaultIcEEEES6_EENS_19__map_value_compareIS6_S7_NS_4lessIS6_EELb1EEE13stl_allocatorIS7_L18MemLabelIdentifier13ELi16EEE7destroyEPNS_11__tree_nodeIS7_PvEE
V5g:__Z76RuntimeInvoker_RuntimeObject_RuntimeObject_SByte_t454417549_SByte_t454417549PFvvEPK10MethodInfoPvPS4_
z2b:__ZN19CustomRenderTexture9AddParentE4PPtrIS_E
pVh:_InternalEnumerator_1_MoveNext_m930150026_AdjustorThunk
g3a:__ZN8Gradient8TransferI14SafeBinaryReadEEvRT_
vGi:_UnityEvent_1_Invoke_m1533100983_gshared
NYa:__ZNSt3__26vectorIN4core12basic_stringIcNS1_20StringStorageDefaultIcEEEE13stl_allocatorIS5_L18MemLabelIdentifier1ELi16EEE7reserveEj
HGf:_FileWebRequest__ctor_m4003648606
E$g:__ZL71SpriteState_t1353336012_CustomAttributesCacheGenerator_m_DisabledSpriteP21CustomAttributesCache
sbe:_Enum_System_IConvertible_ToSByte_m3488526280
Lig:_TypeBuilder_ToString_m1952363535
Hhb:__ZN18IDCollectorFunctorD0Ev
U4i:__ZNK15dense_hashtableI10KeyWrapperIPK19Il2CppGenericMethodES4_N6il2cpp8metadata23Il2CppGenericMethodHashEN14dense_hash_setIS4_S7_NS4_14EqualsComparerINS6_26Il2CppGenericMethodCompareEEENSt3__29allocatorIS4_EEE8IdentityESB_SE_E4findERKS4_
vrb:__ZNK20LocalFileSystemPosix9IsSymLinkERK13FileEntryData
eCj:_GC_new_free_list_inner
HEh:_DefaultComparer_Equals_m85211180_gshared
Fgf:_Collection_1_System_Collections_IList_IndexOf_m1950953062_gshared
AVe:_MonoType_InternalGetEvent_m532443236
yff:_Collection_1_IndexOf_m2700825189_gshared
U3h:_Comparer_1_get_Default_m2605397692_gshared
YCi:_MathfInternal__cctor_m2774058555
oxb:__Z35Transfer_Blittable_FixedBufferFieldI17RemapPPtrTransferiEvRK29SerializationCommandArgumentsR31RuntimeSerializationCommandInfo
YH:__ZN25RuntimeAnimatorController8TransferI14SafeBinaryReadEEvRT_
LAc:__ZN8JSONRead8TransferI10RectOffsetEEvRT_PKc17TransferMetaFlagsb
Erj:__ZNK15dense_hashtableINSt3__24pairIK10KeyWrapperINS1_IPKcS4_EEEiEES6_24NamespaceAndNamePairHashN14dense_hash_mapIS6_iS9_NS6_14EqualsComparerI26NamespaceAndNamePairEqualsEENS0_9allocatorIS8_EEE9SelectKeyESD_SF_E12test_deletedERK24dense_hashtable_iteratorIS8_S6_S9_SH_SD_SF_E
vZ:__ZN9JSONWrite8TransferIN11UnityEngine15CloudWebService14DataErrorEvent15FileErrorDetailEEEvRT_PKc17TransferMetaFlags
Vtd:_Decoder__ctor_m2623573910
iSa:__Z21ClearFenceWithoutSyncR8JobFence
IQ:__ZN12SoundManager20RegisterModifiedClipEP10SampleClip
Lki:_Logger__ctor_m1903664092
dT:__ZN11AudioSource4PlayEd
fvj:__ZN6il2cpp2vm6Object16GetVirtualMethodEP12Il2CppObjectPK10MethodInfo
xOi:_HashSet_1_Add_m199171953_gshared
L2i:__ZN15dense_hashtableI10KeyWrapperIPK17Il2CppGenericInstES4_N6il2cpp8metadata21Il2CppGenericInstHashEN14dense_hash_setIS4_S7_NS4_14EqualsComparerINS6_24Il2CppGenericInstCompareEEENSt3__29allocatorIS4_EEE8IdentityESB_SE_E13set_empty_keyERKS4_
urb:__ZNK20LocalFileSystemPosix8IsHiddenERK13FileEntryData
BHh:_EqualityComparer_1_System_Collections_IEqualityComparer_Equals_m3589836321_gshared
SAe:_SmallXmlParser_IsNameChar_m1561000202
msi:_X501__cctor_m2610532554
pwg:__ZL95SafeHandle_t2733794115_CustomAttributesCacheGenerator_SafeHandle_DangerousGetHandle_m1328172664P21CustomAttributesCache
Boh:__Z48RuntimeInvoker_Int32_t2071877448_Link_t865133271PFvvEPK10MethodInfoPvPS4_
Lvh:_Enumerator_VerifyState_m3173176371_gshared
wtd:_StringComparer__ctor_m2275216983
odj:__ZNSt3__214__split_bufferINS_12basic_stringIcNS_11char_traitsIcEENS_9allocatorIcEEEERNS4_IS6_EEED2Ev
h8e:_List_1_CheckCollection_m2220107869_gshared
$$a:__ZN7Cubemap23VirtualRedirectTransferER18StreamedBinaryReadILb0EE
eyf:_RecordProtocol_EncodeRecord_m3884270352
Kld:_SHA256_Create_m896954069
k1c:_Read_CVT
s4d:_Convert_ToUInt32_m776714429
KIa:__ZN12FileAccessor4SeekEx10FileOrigin
aqh:__Z66RuntimeInvoker_Void_t1841601450_Int32_t2071877448_Slot_t2022531261PFvvEPK10MethodInfoPvPS4_
Wzb:__ZL26Transfer_SimpleNativeClassI24GenerateTypeTreeTransfer17AnimationCurveTplIfELb0EEvRK29SerializationCommandArgumentsR31RuntimeSerializationCommandInfo
LBc:__ZN8JSONRead21TransferSTLStyleArrayI13dynamic_arrayI9BoundsIntLj4EEEEvRT_17TransferMetaFlags
b2a:__ZN24GenerateTypeTreeTransfer8TransferI13dynamic_arrayI33EnlightenTerrainChunksInformationLj4EEEEvRT_PKc17TransferMetaFlags
Vji:_Coroutine_t2299508840_marshal_pinvoke
vca:__ZN16LightmapSettings20DidChangeActiveSceneEP10UnitySceneS1_
wBb:__Z18Transfer_BlittableI19StreamedBinaryWriteILb0EELb0EN4math12int3_storageEEvRK29SerializationCommandArgumentsR31RuntimeSerializationCommandInfo
G1g:__ZL59g_AssemblyU2DCSharp_Assembly_CustomAttributesCacheGeneratorP21CustomAttributesCache
q9i:__ZN6il2cpp5utils9PathUtils8BasenameIcEENSt3__212basic_stringIT_NS3_11char_traitsIS5_EENS3_9allocatorIS5_EEEERKSA_
Ttc:__Z35Register_UnityEngine_Event_get_typev
FBe:_PrivateKeyInfo_DecodeRSA_m1427048948
Toj:__ZN6il2cpp2vm9Exception23GetInvalidCastExceptionERKNS_5utils10StringViewIDsEE
Esf:_BigInteger_op_GreaterThanOrEqual_m2643115413
Zag:_Assembly_FillName_m1934025015
aNe:_IntPtr_op_Explicit_m1073656736
psd:_String_IndexOf_m2126171214
BMe:_Int64_ToString_m1544341651_AdjustorThunk
FC:__ZN8Animator28BuildControllerPlayableCacheEv
sHe:_Guid_CheckNull_m2903986431
UFg:__ZL62CrossContextDelegate_t754146990_CustomAttributesCacheGeneratorP21CustomAttributesCache
I6:__Z63ThreadAndSerializationSafeCheckGetMonoBehaviourBeingTransferredv
QEj:_GC_enable
$zf:_TlsClientCertificateVerify_ProcessAsSsl3_m3377063356
Fyj:__GLOBAL__sub_I_GenericMethod_cpp
vhi:_Application_Quit_m3096163801
fzd:_StandaloneInputModule_set_repeatDelay_m2820945738
COe:_EndOfStreamException__ctor_m4268387737
C7f:_UInt16_ToString_m4213290405
znc:__Z37Register_UnityEngine_Input_GetAxisRawv
X9e:_List_1_GetIndex_m433539411_gshared
Zyg:__ZL59StreamingContext_t1417235061_CustomAttributesCacheGeneratorP21CustomAttributesCache
UH:__ZNK18AnimatorController28HasMultiThreadedStateMachineEv
zbe:_Enum_GetName_m1226611481
ZVi:_Func_2_Invoke_m4121137703_gshared
RS:__ZN11AudioSource5ResetEv
OSb:__ZN12ImageFilters27SetSurfaceUseResolvedBufferEP13RenderTextureb
Msh:__Z74RuntimeInvoker_DictionaryEntry_t3048875398_RuntimeObject_Int32_t2071877448PFvvEPK10MethodInfoPvPS4_
xbh:__Z53RuntimeInvoker_DateTime_t693205669_Single_t2076509932PFvvEPK10MethodInfoPvPS4_
R6a:__ZN14Texture2DArray23VirtualRedirectTransferER18StreamedBinaryReadILb0EE
uei:_Literal_CompileLiteral_m276843152
ipb:__ZN2UI13RectTransform13AwakeFromLoadE17AwakeFromLoadMode
qei:_Reference__ctor_m4110013284
PXb:__ZN14qsort_internal30FindAndMovePivotToLastPositionIP20ShadowCasterSortDatai26ShadowCasterSortDataSorterEEvT_S4_T0_T1_
p3i:__ZNK15dense_hashtableI10KeyWrapperIPK19Il2CppGenericMethodES4_N6il2cpp8metadata23Il2CppGenericMethodHashEN14dense_hash_setIS4_S7_NS4_14EqualsComparerINS6_26Il2CppGenericMethodCompareEEENSt3__29allocatorIS4_EEE8IdentityESB_SE_E3endEv
utb:__Z18Transfer_BlittableI14SafeBinaryReadLb1EiEvRK29SerializationCommandArgumentsR31RuntimeSerializationCommandInfo
XTi:__ZL25UnresolvedVirtualCall_211P12Il2CppObject38CustomAttributeNamedArgument_t94157543PK10MethodInfo
Thb:__ZN17PersistentManager13GetAllFileIDsERKN4core12basic_stringIcNS0_20StringStorageDefaultIcEEEER13dynamic_arrayIxLj8EE
Omf:_ReadOnlyCollection_1_GetEnumerator_m713393110_gshared
bTf:_ProxyAttribute_GetPropertiesForNewContext_m3587421540
Bqh:__Z66RuntimeInvoker_Void_t1841601450_Int32_t2071877448_Touch_t407273883PFvvEPK10MethodInfoPvPS4_
APd:_Array_LastIndexOf_m4096535198
hVd:_ArrayList_Add_m1719188324
Fae:_Double_System_IConvertible_ToSByte_m1653690240_AdjustorThunk
Afh:__Z59RuntimeInvoker_RuntimeObject_Byte_t3683104436_RuntimeObjectPFvvEPK10MethodInfoPvPS4_
sii:_Bounds_get_size_m3951110137
Dk:_glGetStringi
xKi:_GUIStyleState_t3801000545_marshal_pinvoke
_sj:__ZNK15dense_hashtableI10KeyWrapperIP18Il2CppGenericClassES3_N6il2cpp8metadata22Il2CppGenericClassHashEN14dense_hash_setIS3_S6_NS3_14EqualsComparerINS5_25Il2CppGenericClassCompareEEENSt3__29allocatorIS3_EEE8IdentityESA_SD_E10test_emptyERK30dense_hashtable_const_iteratorIS3_S3_S6_SF_SA_SD_E
gee:_CultureInfo_set_NumberFormat_m1618950525
M7a:__ZN18StreamedBinaryReadILb0EE21TransferSTLStyleArrayI13dynamic_arrayI8Vector4fLj4EEEEvRT_17TransferMetaFlags
cLf:_X509Store__ctor_m1573680316
rLf:_X509Chain_get_CertificateCollection_m324631835
OHh:_EqualityComparer_1__cctor_m1011898363_gshared
eAd:_AnimationTriggers__ctor_m2623627182
Uje:_Array_InternalArray__IndexOf_TisClientCertificateType_t4001384466_m1168139450_gshared
mE:__ZN8Animator9WriteStepEy
vfg:_FieldBuilder_get_Name_m2243491233
h_:__ZN11UnityEngine15CloudWebService20WebRequestRestClient18GetResponseHeadersEv
xec:__ZN16PropertyAccessorC2Ev
B4a:__ZNSt3__23mapIN4core12basic_stringIcNS1_20StringStorageDefaultIcEEEE9PrefValueNS_4lessIS5_EENS_9allocatorINS_4pairIKS5_S6_EEEEEixERSB_
pEb:__Z35Transfer_Blittable_FixedBufferFieldI18StreamedBinaryReadILb1EEaEvRK29SerializationCommandArgumentsR31RuntimeSerializationCommandInfo
$dc:__ZN15DirectorManager22ConstructPlayableGraphEv
T4a:__ZN13ScreenManager16SetScreenTimeoutEi
xyb:__Z18Transfer_BlittableI17RemapPPtrTransferLb0EdEvRK29SerializationCommandArgumentsR31RuntimeSerializationCommandInfo
Hmd:_SymmetricAlgorithm_set_IV_m4262655606
EQh:_StencilMaterial__cctor_m2963056855
xMi:_EqualityComparer_1_System_Collections_IEqualityComparer_Equals_m315020809_gshared
Acg:_CustomAttributeNamedArgument_GetHashCode_m3715408876_AdjustorThunk
J3c:__Z38Register_UnityEngine_Font_HasCharacterv
wKf:_X509Certificate2_AppendBuffer_m3517242299
O$b:__Z35IntersectSpherePlaneBoundsOptimizedRKN4math7_float4EPS1_i
cee:_CultureInfo_get_IsNeutralCulture_m3874876470
y9d:_Delegate_CreateDelegate_m3813023227
jSi:__ZL25UnresolvedVirtualCall_117P12Il2CppObjecthS0_PK10MethodInfo
Fgi:_Uri_get_AbsoluteUri_m2120317928
Mvj:__ZN6il2cpp2os5posix15PosixWaitObject13InterruptWaitEv
eDd:_ColorTween_TweenValue_m3279916815
Tv:__ZN7mecanim6memory16ChainedAllocator10DeallocateEPv
rvd:_BaseInputModule_IsModuleSupported_m4272494372
Wba:__Z22CleanupLODGroupManagerPv
hme:_Array_InternalArray__ICollection_Add_TisContentType_t1028629049_m2984242302_gshared
Ptc:__Z21Event_CUSTOM_PopEventP12Il2CppObject
nl:_glUniform3fv
WHj:__ZNK6il2cpp8metadata24Il2CppGenericInstCompareclERK10KeyWrapperIPK17Il2CppGenericInstES8_
Eeb:__ZNSt3__218__insertion_sort_3IRN15ResourceManager10Dependency6SorterEPS2_EEvT0_S6_T_
I_e:_Enumerator_System_Collections_IEnumerator_Reset_m3796537546_AdjustorThunk
q2c:_UNITY_FT_Init_Class_tt_service_gx_multi_masters
Gdh:__Z53RuntimeInvoker_Int32_t2071877448_TimeSpan_t3430258949PFvvEPK10MethodInfoPvPS4_
N_h:_InternalEnumerator_1_System_Collections_IEnumerator_Reset_m3249248421_AdjustorThunk
X3g:__Z64RuntimeInvoker_RuntimeObject_Int32_t2071877448_Int16_t4041245914PFvvEPK10MethodInfoPvPS4_
jVe:_IntComparer_Compare_m3057931085
xWb:__ZNK16LightmapSettings31GetRealtimeLightmapDecodeValuesEv
ZR:__ZN5audio5mixer12SetSuspendedERNS0_16AudioMixerMemoryEb
Oib:__ZN17PersistentManager21UnloadNonDirtyStreamsEv
k7g:__Z63RuntimeInvoker_DSAParameters_t1872138834_BooleanU26_t3168250738PFvvEPK10MethodInfoPvPS4_
Wnh:__Z62RuntimeInvoker_Boolean_t3825574718_PlayableBinding_t2498078091PFvvEPK10MethodInfoPvPS4_
Ipj:__ZN6il2cpp2vm13LivenessStateC2EP11Il2CppClassjPFvPP12Il2CppObjectiPvES7_PFvvESB_
Mue:_Array_ConvertAll_TisRuntimeObject_TisRuntimeObject_m2423585546_gshared
rRb:__ZN12ImageFilters4BlitER17ShaderPassContextP7TextureP13RenderTextureiPK18SharedMaterialDataPKcP6ShaderiNS_9BlitFlagsE11CubemapFaceRK8Vector2fSH_
MIf:_Oid__ctor_m1936781897
XZ:__ZN11UnityEngine15CloudWebService10RestClientINS0_23WebRequestRestHeaderMapEED2Ev
r5h:_ResourceSet__ctor_m1222864106
Mbf:_Collection_1_System_Collections_IList_get_Item_m3376056117_gshared
Jl:_emscripten_glDepthMask
ywd:__ZN23InterfaceActionInvoker1IP28PointerEventData_t1599784723E6InvokeEjP11Il2CppClassP12Il2CppObjectS1_
Gng:__ZL76UInt16_t986882611_CustomAttributesCacheGenerator_UInt16_TryParse_m1818885113P21CustomAttributesCache
H_e:_Enumerator_VerifyState_m3639069574_gshared
cqa:__ZN4crnd25static_huffman_data_model22prepare_decoder_tablesEv
kbf:_Enumerator_MoveNext_m689054299_gshared
bsf:_ModulusRing_Difference_m662924064
o_h:_InternalEnumerator_1_MoveNext_m1869236997_gshared
IBd:_CanvasUpdateRegistry_ObjectValidForUpdate_m855695984
xKd:_InputField_set_onValueChanged_m2406388125
Osc:__Z23GUIStatePopDisplayIndexv
vkf:_ReadOnlyCollection_1_System_Collections_ICollection_get_SyncRoot_m2702046016_gshared
O2:__ZL22CleanupUnityWebStreamsPv
zGb:__Z18Transfer_BlittableI18StreamedBinaryReadILb0EELb0E10ColorRGBAfEvRK29SerializationCommandArgumentsR31RuntimeSerializationCommandInfo
zFf:_ListDictionary_Add_m4276262662
Aca:__Znaj
nkd:_RIPEMD160Managed_GGG_m1639995340
kZj:_emscripten_glEnableClientState__wrapper
F4:__ZN17MessageIdentifierC2EPKcNS_7OptionsEPKN5Unity4TypeES1_
tyh:_Enumerator_System_Collections_IEnumerator_get_Current_m1648049763_gshared
oHj:__ZN6il2cpp6icalls8mscorlib4Mono8Security12Cryptography18KeyPairPersistence15_ProtectMachineEP12Il2CppString
DPj:dynCall_viiifiii
V7g:__Z31RuntimeInvoker_Char_t3454481338PFvvEPK10MethodInfoPvPS4_
PMa:__ZN11GameManager15ThreadedCleanupEv
B6e:_List_1__ctor_m1337392449_gshared
nX:__Z55Register_UnityEngine_AudioSource_get_spatializeInternalv
y6a:__ZN15dense_hashtableINSt3__24pairIKN4core12basic_stringIcNS2_20StringStorageDefaultIcEEEE13dynamic_arrayI4PPtrI6SpriteELj4EEEES6_20StringHash32FunctionIS6_EN14dense_hash_mapIS6_SC_SF_NS0_8equal_toIS6_EE13stl_allocatorISD_L18MemLabelIdentifier81ELi16EEE9SelectKeyESI_SL_E12resize_deltaEjj
cSe:_TextWriter__ctor_m2225796097
u8h:__ZN21InterfaceFuncInvoker0IP24StringU5BU5D_t1642385972E6InvokeEjP11Il2CppClassP12Il2CppObject
hFa:__ZN14SafeBinaryRead8TransferI14ConstantStringEEvRT_PKc17TransferMetaFlags
wma:__ZNK6Camera16GetStereoEnabledEv
at:__ZN13AnimationClip9PPtrCurveaSERKS0_
kbc:__ZN12LightManager15InitializeClassEv
pOa:__ZN9ShaderLab11shaderprops16GetComputeBufferEPK19ShaderPropertySheetS3_NS_16FastPropertyNameE
aQg:__ZL86Logger_t3328995178_CustomAttributesCacheGenerator_Logger_set_filterLogType_m3982626604P21CustomAttributesCache
L5:__ZN18ScriptingArgumentsC2Ev
f5f:_TimeZone_IsDaylightSavingTime_m875882154
FTh:_ArrayReadOnlyList_1_Insert_m503707439_gshared
HUj:_emscripten_glBlendFuncSeparate__wrapper
Swf:_CipherSuiteCollection_System_Collections_IList_set_Item_m750275607
dna:__Z17HasSampledTexture14GraphicsFormat13formatSupport
pSb:__ZNK25CameraStackRenderingState27GetStereoImageEffectTextureEb
pld:_SHA1CryptoServiceProvider__ctor_m3127563759
xp:__ZN8Vector3f8TransferI14SafeBinaryReadEEvRT_
O6i:__ZN6il2cpp6icalls6System6System3Net7Sockets6Socket7ReceiveEiP11Il2CppArrayiiNS4_11SocketFlagsEPi
lhc:__ZN13BuildSettings13GetSceneIndexERKN4core12basic_stringIcNS0_20StringStorageDefaultIcEEEE
u1g:__ZL103BaseVertexEffect_t2504093552_CustomAttributesCacheGenerator_BaseVertexEffect_ModifyVertices_m3446986347P21CustomAttributesCache
Bo:FUNCTION_TABLE_ii
qzh:_Enumerator_MoveNext_m335649778_AdjustorThunk
JMa:__ZN10TagManager8TransferI18StreamedBinaryReadILb0EEEEvRT_
g2g:__Z45RuntimeInvoker_Char_t3454481338_RuntimeObjectPFvvEPK10MethodInfoPvPS4_
dUc:__ZN20TextRenderingPrivate8TextMesh13AwakeFromLoadE17AwakeFromLoadMode
w8f:_UInt32_ToString_m3894907091_AdjustorThunk
xie:_Array_InternalArray__IEnumerable_GetEnumerator_TisPlayableBinding_t2498078091_m2095426925_gshared
Joi:_Matrix4x4__ctor_m828876617_AdjustorThunk
lDi:_Predicate_1__ctor_m2863314033_gshared
Yde:_CultureInfo_get_TextInfo_m1582311326
ile:_Array_ForEach_TisRuntimeObject_m1849351808_gshared
Vwh:_ShimEnumerator_get_Key_m616785465_gshared
FMg:__ZL76Object_t1021602117_CustomAttributesCacheGenerator_Object_Destroy_m3959286051P21CustomAttributesCache
wAe:_SmallXmlParser_Error_m1832158746
qOf:_RepeatContext_get_IsLazy_m1620488045
Ck:_glDeleteVertexArrays
hKa:__Z24CreateDirectoryRecursiveRKN4core12basic_stringIcNS_20StringStorageDefaultIcEEEE
ZSj:b41
zmb:__ZN9ShaderLab20SerializedSubProgram8TransferI18StreamedBinaryReadILb0EEEEvRT_
ERe:_StreamAsyncResult_get_AsyncWaitHandle_m4218169359
YSj:b40
u_b:__Z9EndJobSetR8JobFence11JobPriority
Vte:_Array_InternalArray__get_Item_TisContactPoint2D_t3659330976_m825151777_gshared
o4c:__ZN2UI13CanvasManager9AddCanvasEPNS_6CanvasE
J7a:__ZN9Texture3D8TransferI19StreamedBinaryWriteILb0EEEEvRT_
TSb:__ZNK6Camera22CalculateRenderingPathEv
Fyc:__ZN9JSONWrite8TransferI5RectTIfEEEvRT_PKc17TransferMetaFlags
WF:__ZN11UnityEngine9Animation37SetGenericRootTransformPropertyValuesERKNS0_30AnimatorGenericBindingConstantERKN7mecanim10ValueArrayER9Transformbb
swa:__Z13ConvertMipmap14GraphicsFormatPKvS_Pviiii
wvf:_ContentInfo_get_Content_m1802070908
NEi:_InvokableCall_4_Find_m2012236736_gshared
Hs:__ZN15SerializeTraitsIKN4math7_float4EE8TransferI14SafeBinaryReadEEvRS2_RT_
$ld:_SHA384Managed_processBlock_m3232296629
UDe:_X509Certificate_get_PublicKey_m714501701
Feh:__Z70RuntimeInvoker_Boolean_t3825574718_UInt16_t986882611_Int32_t2071877448PFvvEPK10MethodInfoPvPS4_
EMd:_U3CMouseDragOutsideRectU3Ec__Iterator1_System_Collections_IEnumerator_get_Current_m561728752
Vhi:_AsyncOperation_InternalDestroy_m2067452588
XWc:_tt_sbit_decoder_load_image
Esd:_String_LastIndexOf_m290475879
ZFc:__ZN15b2DistanceJointD0Ev
lje:__ZN21InterfaceFuncInvoker1Ii22UILineInfo_t3621277874E6InvokeEjP11Il2CppClassP12Il2CppObjectS0_
PMg:__ZL113PlayableHandle_t213697122_CustomAttributesCacheGenerator_PlayableHandle_INTERNAL_CALL_IsValidInternal_m3649184361P21CustomAttributesCache
yJd:_Image_get_layoutPriority_m2151045813
Flj:__ZN15dense_hashtableINSt3__24pairIK10KeyWrapperIP11Il2CppClassES4_EES5_N6il2cpp8metadata16SZArrayClassHashEN14dense_hash_mapIS5_S4_SA_NS5_14EqualsComparerINS9_19SZArrayClassCompareEEENS0_9allocatorIS7_EEE9SelectKeyESE_SG_EC2EjRKSA_RKSE_RKSI_
Eqe:_Array_Sort_TisInt32_t2071877448_m1860415737_gshared
USe:_TextReader_Read_m975794707
Isc:__ZNSt3__24listIN10GUIManager12SortedScriptE11memory_poolIS2_EE6__sortI13OldSortScriptEENS_15__list_iteratorIS2_PvEESA_SA_jRT_
G8f:_UInt64_System_IConvertible_ToChar_m1930853313_AdjustorThunk
Wzf:_TlsClientCertificate_SendCertificates_m1096074091
cAd:_UIBehaviour_OnCanvasHierarchyChanged_m762109874
g_d:_SyncHashtable_get_Item_m408601391
tzg:__ZL45DSA_t903174880_CustomAttributesCacheGeneratorP21CustomAttributesCache
qbf:_Stack_1_System_Collections_ICollection_CopyTo_m2104527616_gshared
$$f:_StringBuilder_AppendFormat_m1666670800
cjh:__Z97RuntimeInvoker_Boolean_t3825574718_RuntimeObject_TextGenerationSettings_t2543476768_RuntimeObjectPFvvEPK10MethodInfoPvPS4_
_bd:__ZN18UnityConnectClient12CloseServiceEv
Du:__ZN13AnimationClip8TransferI17RemapPPtrTransferEEvRT_
fyb:__Z18Transfer_BlittableI17RemapPPtrTransferLb1E8BitFieldEvRK29SerializationCommandArgumentsR31RuntimeSerializationCommandInfo
Vnj:__ZN6il2cpp6icalls8mscorlib6System9ThreadingL11ThreadStartEPv
tea:__ZN15DirectorManager12OnSampleTimeEv
mof:_ReadOnlyCollection_1_System_Collections_IList_Remove_m3878418841_gshared
CKd:_InputField_EnforceContentType_m1902926812
a3a:__ZN15dense_hashtableINSt3__24pairIKiiEEi21InstanceIDHashFunctorN14dense_hash_mapIiiS4_NS0_8equal_toIiEE13stl_allocatorIS3_L18MemLabelIdentifier67ELi16EEE9SelectKeyES7_SA_E12resize_deltaEjj
YCa:__ZN12CachedReader10Align4ReadEv
eJc:__ZN15b2WorldManifold10InitializeEPK10b2ManifoldRK11b2TransformfS5_f
Mjf:_Collection_1_CopyTo_m42272870_gshared
ct:__Z14resize_trimmedINSt3__26vectorIN13AnimationClip10FloatCurveE13stl_allocatorIS3_L18MemLabelIdentifier26ELi16EEEEEvRT_j
O6:__ZN15dense_hashtableINSt3__24pairIKiP6ObjectEEi21InstanceIDHashFunctorN14dense_hash_mapIiS4_S6_NS0_8equal_toIiEE13stl_allocatorIS5_L18MemLabelIdentifier67ELi16EEE9SelectKeyES9_SC_E12maybe_shrinkEv
F_i:_RaycastHit2D_get_point_m2962370910_AdjustorThunk
JDa:__ZNK9Behaviour22GetTypeVirtualInternalEv
hBd:_CanvasScaler_set_referencePixelsPerUnit_m1188599784
Wof:_ReadOnlyCollection_1_System_Collections_IList_get_Item_m887129009_gshared
$qf:_Comparison_1_EndInvoke_m179917407_gshared
I8b:__ZNK28MonoBehaviourPropertyBinding12SetPPtrValueERKN11UnityEngine9Animation10BoundCurveEi
z0b:__Z21GetScriptingArraySize17ScriptingArrayPtr
VQc:__ZN20TextRenderingPrivate8FontImpl8TransferI14SafeBinaryReadEEvRT_
_di:__ZN23InterfaceActionInvoker1IP19LinkRef_t2090853131E6InvokeEjP11Il2CppClassP12Il2CppObjectS1_
ytc:__ZN11IMGUIModule21ClearDeveloperConsoleEv
O2g:__Z110RuntimeInvoker_Boolean_t3825574718_RuntimeObject_SByte_t454417549_Int64U26_t763825331_ExceptionU26_t1467204777PFvvEPK10MethodInfoPvPS4_
eka:__ZN9GfxDevice17ImmediateTexCoordEifff
Qci:_Parser_ParseRegularExpression_m2390577313
CYc:_ft_black_new
_Gc:__ZN10ClipperLib7Clipper13AppendPolygonEPNS_5TEdgeES2_
ZPd:_Array_double_swapper_m1175307080
Xdi:_Alternation_AddAlternative_m623421443
TLf:_X509CertificateEnumerator_System_Collections_IEnumerator_Reset_m327358896
pfh:__Z65RuntimeInvoker_Void_t1841601450_Byte_t3683104436_Byte_t3683104436PFvvEPK10MethodInfoPvPS4_
Pod:_Hash__ctor_m2554411450
UJe:_NumberFormatter_AppendDigits_m1308372770
Iga:__ZN30dense_hashtable_const_iteratorINSt3__24pairIKN4core12basic_stringIcNS2_20StringStorageDefaultIcEEEE10vector_setI4PPtrI11SpriteAtlasENS0_4lessISB_EE13stl_allocatorISB_L18MemLabelIdentifier81ELi16EEEEES6_20StringHash32FunctionIS6_EN14dense_hash_mapIS6_SH_SK_NS0_8equal_toIS6_EESE_ISI_LSF_81ELi16EEE9SelectKeyESN_SO_EC2EPK15dense_hashtableISI_S6_SK_SQ_SN_SO_EPKSI_SX_b
sqd:_Single_System_IConvertible_ToDateTime_m2510003459_AdjustorThunk
H9d:_Delegate_RemoveImpl_m3666700529
ASj:_emscripten_glUniform4f__wrapper
SFf:_NameObjectCollectionBase_OnDeserialization_m3478980442
cL:__ZN25RuntimeAnimatorControllerC2E18MemLabelIdentifier18ObjectCreationMode
wki:_CustomYieldInstruction_MoveNext_m3850519634
oKd:_InputField_set_caretColor_m2252440840
pH:__ZN8Animator8TransferI19StreamedBinaryWriteILb0EEEEvRT_
oNa:__ZNK6Camera16GetProjectionFarEv
Oq:__Z24InverseTransformRotationRK23TransformAccessReadOnlyRKN4math7_float4E
mUe:_MissingFieldException__ctor_m1161042282
fke:_Array_InternalArray__IndexOf_TisSlot_t2267560602_m1912863273_gshared
vpi:_Mesh_get_uv3_m1531319041
A_a:__ZNK14PlayableOutput11DerivesFromE17ScriptingClassPtr
O$a:__ZN7Texture34CreateFileTextureUploadInstructionE18TextureUploadFlagsj
Uja:__ZN9GfxDevice21ResetDynamicResourcesEv
Ixa:__ZN13ComputeShader14SetBufferParamEjRKN9ShaderLab16FastPropertyNameE15ComputeBufferID
uUa:__ZThn280_N31CanvasBatchIntermediateRenderer20OnAssetBoundsChangedEv
trf:_Comparison_1_EndInvoke_m4174686984_gshared
QWf:_StreamingContext__ctor_m3063421596_AdjustorThunk
$nf:_ReadOnlyCollection_1_System_Collections_Generic_IListU3CTU3E_Insert_m3054305464_gshared
m8b:__ZN19LowerResBlitTexture13ApplySettingsEv
Gog:__ZL70IntPtr_t_CustomAttributesCacheGenerator_IntPtr_op_Explicit_m3896766622P21CustomAttributesCache
gH:__ZN8Animator8TransferI14SafeBinaryReadEEvRT_
plj:__ZN15dense_hashtableINSt3__24pairIK10KeyWrapperIP11Il2CppClassES4_EES5_N6il2cpp8metadata16SZArrayClassHashEN14dense_hash_mapIS5_S4_SA_NS5_14EqualsComparerINS9_19SZArrayClassCompareEEENS0_9allocatorIS7_EEE9SelectKeyESE_SG_E4swapERSJ_
TKa:__ZN17GlobalGameManager23VirtualRedirectTransferER18StreamedBinaryReadILb0EE
yke:_Array_InternalArray__IndexOf_TisTypeTag_t141209596_m2882894956_gshared
QPh:_Slider_get_value_m4182660424
iDc:__ZNK14b2CapsuleShape5CloneEP16b2BlockAllocator
tx:__ZN17AnimationPlayable34CollectAnimatorControllerPlayablesER13dynamic_arrayIP26AnimatorControllerPlayableLj4EE
LV:__ZN16BaseVideoTexture19UpdateVideoTexturesEv
DTa:__Z28BuildSingleStreamChannelInfo17ShaderChannelMaskRK20VertexChannelsLayoutS_S2_P11ChannelInfo
vPa:__ZNK16LightmapSettings23HasLightProbeTetrahedraEv
hzf:_Context_get_WriteSequenceNumber_m243492531
l5a:__ZN6Sprite23VirtualRedirectTransferER19StreamedBinaryWriteILb0EE
zug:__ZL51Assembly_t4268412390_CustomAttributesCacheGeneratorP21CustomAttributesCache
wsd:_String_LastIndexOfAny_m1473637802
kqc:__Z38Transform_CUSTOM_INTERNAL_set_positionP12Il2CppObjectRK8Vector3f
$pi:_PlayerEditorConnectionEvents_InvokeMessageIdSubscribers_m795891627
R2e:_List_1_System_Collections_ICollection_CopyTo_m3062449209_gshared
Qej:__ZNK15dense_hashtableINSt3__24pairIK10KeyWrapperINS1_IPK9FieldInfoP11Il2CppClassEEEjEES9_17ReflectionMapHashIS8_EN14dense_hash_mapIS9_jSD_NS9_14EqualsComparerINS0_8equal_toIS8_EEEENS0_9allocatorISB_EEE9SelectKeyESI_SK_E5beginEv
RXa:__ZNK9ShaderLab7Program19HasMatchingVariantsERK13dynamic_arrayI16ShaderKeywordSetLj4EE
Upe:_Array_qsort_TisUICharInfo_t3056636800_TisUICharInfo_t3056636800_m1253367821_gshared
Ona:__ZN14DataBufferGLES11CopySubDataEPKS_jjj
ie:_emscripten_glVertexPointer
SBa:__ZNSt3__26__treeI20DeviceDepthStateGLES11memcmp_lessIS1_S1_ENS_9allocatorIS1_EEE7destroyEPNS_11__tree_nodeIS1_PvEE
jGd:_Graphic__ctor_m821539719
$1e:_List_1_System_Collections_Generic_ICollectionU3CTU3E_get_IsReadOnly_m1614481629_gshared
D9i:__ZN6il2cpp2vm7Runtime47RaiseExecutionEngineExceptionIfMethodIsNotFoundEPK10MethodInfo
tYb:__Z17GetFrustumPortionPK8Vector3fffPS_
E9f:_UnauthorizedAccessException__ctor_m259001183
tqj:__ZN15dense_hashtableINSt3__24pairIK10KeyWrapperIP14Il2CppIUnknownEjEES5_N6il2cpp5utils11PointerHashIS3_EEN14dense_hash_mapIS5_jSB_NS5_14EqualsComparerINS0_8equal_toIS4_EEEENS0_9allocatorIS7_EEE9SelectKeyESG_SI_E14squash_deletedEv
_bi:_PatternCompiler_EmitClose_m2394480040
fEd:_DefaultControls_CreateDropdown_m1384069408
Zxd:_PointerEventData_get_clickCount_m4064532478
wmf:_ReadOnlyCollection_1_System_Collections_Generic_ICollectionU3CTU3E_get_IsReadOnly_m3508872969_gshared
oce:_EventArgs__cctor_m1350395667
gEi:_InvokableCall_1_remove_Delegate_m1748003978_gshared
aia:__ZNK9GfxDevice27GetPlatformAdjustedViewportEv
$ti:_X509Stores_Open_m2057354563
Rce:_CCGregorianCalendar_is_leap_year_m567513478
rJf:_Oid_get_Value_m2271181078
yQd:_Attribute_IsDefined_m2118467641
aBi:_SpriteAtlasManager_Register_m447878083
EBe:_PrivateKeyInfo_Normalize_m3959595934
pnh:__Z68RuntimeInvoker_Void_t1841601450_Int32_t2071877448_Color32_t874517518PFvvEPK10MethodInfoPvPS4_
IUh:_InternalEnumerator_1_System_Collections_IEnumerator_get_Current_m3125080595_gshared
mhf:_Collection_1_System_Collections_IList_Add_m2091889616_gshared
Bec:__ZN16StreamedResource8TransferI24GenerateTypeTreeTransferEEvRT_
cFc:__ZN11b2GearJoint4DumpEv
BFd:_DropdownItem_OnPointerEnter_m761897861
Gya:__ZN10Matrix3x3f15InvertTransposeEv
_fe:_Array_InternalArray__ICollection_Remove_TisKeyValuePair_2_t1174980068_m2768765894_gshared
dQb:__Z11IsBatchmodev
Wef:_Collection_1_set_Item_m2199807215_gshared
cxb:__Z29Transfer_Blittable_ArrayFieldI14SafeBinaryRead8Vector3fEvRT_R9ArrayInfoRK23StaticTransferFieldInfo
PSg:__ZL75Event_t3028476042_CustomAttributesCacheGenerator_Event_PopEvent_m4241312794P21CustomAttributesCache
I7f:_UInt32_System_IConvertible_ToBoolean_m91295134
m2f:_Monitor_Monitor_test_synchronised_m1542589500
oOg:__ZL68RuntimePlatform_t1869584967_CustomAttributesCacheGenerator_WP8PlayerP21CustomAttributesCache
KRc:__ZN20TextRenderingPrivate8FontImpl18ResetCachedTextureEv
$ng:__ZL75String_t_CustomAttributesCacheGenerator_String_Concat_m626692867____values0P21CustomAttributesCache
rCe:_SymmetricTransform_TransformFinalBlock_m4192185386
fHe:_TextInfo__ctor_m1263401274
bag:_Version_get_Major_m3385239713
EHi:_ListPool_1_Release_m3047738410_gshared
OCj:_GC_print_finalization_stats
Xyf:_Context_get_SecurityProtocolFlags_m3295551796
hAh:_ValueCollection__ctor_m927733289_gshared
sEa:__ZN11NamedObject15ThreadedCleanupEv
SEc:__ZNK12b2WheelJoint10GetAnchorBEv
W_h:_InternalEnumerator_1__ctor_m2981879621_AdjustorThunk
Qkc:__Z53Register_UnityEngine_Behaviour_get_isActiveAndEnabledv
EHf:_IPAddress_ToString_m267966740
fMi:_EqualityComparer_1__ctor_m3971803374_gshared
lq:__ZNSt3__26vectorIN4core12basic_stringIcNS1_20StringStorageDefaultIcEEEENS_9allocatorIS5_EEE8__appendEj
Cmh:__Z64RuntimeInvoker_Boolean_t3825574718_IntPtr_t_ObjectU26_t597476745PFvvEPK10MethodInfoPvPS4_
Udb:__ZN26PlayerSettingsSplashScreen8TransferI17RemapPPtrTransferEEvRT_
tYh:_InternalEnumerator_1_get_Current_m3922357178_gshared
m8i:__ZN6il2cpp6icalls8mscorlib6SystemL17CollectTypeFieldsINS_5utils10functional10TrueFilterEEEvP11Il2CppClassPKS7_iRNSt3__26vectorIP9FieldInfoNSB_9allocatorISE_EEEERKT_
hYg:__ZL72ColorBlock_t2652774230_CustomAttributesCacheGenerator_m_HighlightedColorP21CustomAttributesCache
x5f:_Type_get_IsValueType_m1733572463
x6b:__Z13GetTagManagerv
HVh:_InternalEnumerator_1_Dispose_m1748410190_AdjustorThunk
yOc:__ZN14PhysicsQuery2D7RaycastERK8Vector2fS2_fRKN10Collider2D13ContactFilterEPKS3_bP12RaycastHit2Di
Cge:_Array_InternalArray__ICollection_Remove_TisUInt16_t986882611_m65494986_gshared
Pmf:_ReadOnlyCollection_1_IndexOf_m3054637117_gshared
MYi:__ZL10roundUp128PyS_
eY:__ZN11UnityEngine15CloudWebService17CloudJobSchedulerD0Ev
rrd:_String_System_IConvertible_ToBoolean_m2696751322
hgb:__ZN18LoadSceneOperation7PerformEv
O4c:__ZNK2UI11CanvasGroup22GetTypeVirtualInternalEv
Qoi:_Matrix4x4_MultiplyPoint3x4_m1436516889
zsd:_String_LastIndexOfAny_m4281325295
YGc:__ZN10ClipperLib7Clipper14IntersectEdgesEPNS_5TEdgeES2_RNS_8IntPointE
Nlh:__Z163RuntimeInvoker_Void_t1841601450_RuntimeObject_Int32_t2071877448_SByte_t454417549_SByte_t454417549_SingleU26_t4173844468_SingleU26_t4173844468_SingleU26_t4173844468PFvvEPK10MethodInfoPvPS4_
atc:__Z21CleanupGlobalGUIStatev
a4f:_TimeSpan__ctor_m1888018443_AdjustorThunk
xsh:__Z74RuntimeInvoker_Int32_t2071877448_UIVertex_t1204258818_UIVertex_t1204258818PFvvEPK10MethodInfoPvPS4_
xv:__ZN19StreamedBinaryWriteILb0EE21TransferSTLStyleArrayI22OffsetPtrArrayTransferIN7mecanim9animation10ValueDeltaEEEEvRT_17TransferMetaFlags
b_d:_SyncHashtable_get_Count_m3694444082
sGb:__Z18Transfer_BlittableI18StreamedBinaryReadILb0EELb1EN4math12int3_storageEEvRK29SerializationCommandArgumentsR31RuntimeSerializationCommandInfo
cdj:__ZNSt3__26vectorINS_12basic_stringIcNS_11char_traitsIcEENS_9allocatorIcEEEENS4_IS6_EEE8allocateEj
c2g:__Z56RuntimeInvoker_RuntimeObject_RuntimeObject_RuntimeObjectPFvvEPK10MethodInfoPvPS4_
oAa:__ZN22VertexDeclarationCache5ClearEv
_ib:__ZN15CacheWriterBase18GetAddressOfMemoryEv
Zz:__Z27ProcessRootMotionEmptyMixerP35AnimationPlayableEvaluationConstantP32AnimationPlayableEvaluationInputP33AnimationPlayableEvaluationOutput
ZZb:__ZN6Camera24PrepareCullingParametersERK23CameraCullingParameters13RenderingPathR11CullResults
Zgc:__Z12SetIUISystemP9IUISystem
ugb:__ZN19RuntimeSceneManager22EndIntegrateMainThreadEP10UnitySceneNS_11LoadingModeE
yAg:__ZL84Evidence_t1407710183_CustomAttributesCacheGenerator_Evidence_GetHashCode_m1260371757P21CustomAttributesCache
Gmf:_ReadOnlyCollection_1_System_Collections_ICollection_get_IsSynchronized_m2344337514_gshared
Eyb:__Z26Transfer_UnityEngineObjectI17RemapPPtrTransferLb0EEvRK29SerializationCommandArgumentsR31RuntimeSerializationCommandInfo
Jlh:__Z34RuntimeInvoker_FitMode_t4030874534PFvvEPK10MethodInfoPvPS4_
Gsd:_String_IsNullOrEmpty_m2802126737
jTd:_Byte_Parse_m1442736478
Kla:__ZN13GfxDeviceGLES15OnDeviceCreatedEb
jMe:_Int64_Parse_m3258022240
qsd:_String_IndexOfOrdinal_m3591623977
JYf:_CryptoConfig_EncodeLongNumber_m2352037787
$5f:_Type_GetMethod_m475234662
_qd:_Single_GetHashCode_m3102305584
hYe:_KeyValuePair_2__ctor_m1877755778_AdjustorThunk
e7h:_ActivationServices_get_ConstructionActivator_m1726426854
ZAb:__Z29Transfer_Blittable_ArrayFieldI24GenerateTypeTreeTransfer4AABBEvRT_R9ArrayInfoRK23StaticTransferFieldInfo
ZCg:__ZL76Convert_t2607082565_CustomAttributesCacheGenerator_Convert_ToChar_m245844937P21CustomAttributesCache
tCg:__ZL52Activator_t1850728717_CustomAttributesCacheGeneratorP21CustomAttributesCache
QDj:_GC_adj_bytes_allocd
tQh:_SpriteState_t1353336012_marshal_pinvoke_cleanup
bme:_Array_InternalArray__ICollection_Add_TisKeyframe_t1449471340_m887263954_gshared
Kne:_Array_InternalArray__Insert_TisDateTime_t693205669_m1484996356_gshared
X2e:_List_1_System_Collections_IList_Remove_m3933652540_gshared
QBh:_Dictionary_2_System_Collections_IDictionary_GetEnumerator_m1484720898_gshared
QQe:_MonoIO_get_ConsoleInput_m2976499023
Ohg:_OpCode_get_Size_m481593949_AdjustorThunk
AXd:_BitArrayEnumerator_checkVersion_m3839504595
OOd:_Array_GetUpperBound_m1352329707
pFc:__ZN13b2PulleyJoint24SolveVelocityConstraintsERK12b2SolverData
dqj:__ZN6il2cpp6icalls8mscorlib6System10Reflection10MonoMethod19get_base_definitionEP22Il2CppReflectionMethod
Da:invoke_fiiifii
Exf:_RecordProtocol__ctor_m168945279
e7d:_DateTimeOffset_Equals_m3728302791_AdjustorThunk
yKi:_GUIStyleState_t3801000545_marshal_pinvoke_back
QVa:__ZN20SphericalHarmonicsL219AddDirectionalLightERKN4math7_float3ERKNS0_7_float4E
Y4f:_TimeSpan_op_GreaterThanOrEqual_m3997050520
QDg:__ZL77Convert_t2607082565_CustomAttributesCacheGenerator_Convert_ToUInt16_m36213644P21CustomAttributesCache
kea:__Z26ScheduleJobForEachInternalR8JobFencePFvPvjES1_iPFvS1_E11JobPriority
CJf:_OidEnumerator_MoveNext_m1889267785
hob:__ZNSt3__26vectorIN9ShaderLab20SerializedSubProgram15VectorParameterENS_9allocatorIS3_EEE21__push_back_slow_pathIKS3_EEvRT_
QPb:__ZZ23InitPlayerLoopCallbacksvEN41PostLateUpdateProfilerEndFrameRegistrator7ForwardEv
whc:__ZN9Scripting18RaiseMonoExceptionEPKcz
V0a:__ZN9Texture2D8TransferI19StreamedBinaryWriteILb0EEEEvRT_
EFd:_OptionData__ctor_m3070653720
tHi:_TweenRunner_1_StartTween_m3792842064_gshared
Kbc:__ZN9ShaderLab16FastPropertyName15InitBy28BitHashEj
Aqd:_Single_System_IConvertible_ToInt32_m3269519527_AdjustorThunk
yPc:__ZN14PhysicsQuery2D8LinecastERK8Vector2fS2_RKN10Collider2D13ContactFilterEPKS3_bP12RaycastHit2Di
vld:_SHA1Internal_ProcessBlock_m4070037334
cMa:__ZN17PersistentManager17IsObjectAvailableEi
B6h:_Marshal_copy_from_unmanaged_m98320635
Soe:_Array_InternalArray__set_Item_TisDouble_t4078015681_m24756265_gshared
$ki:_Display_RelativeMouseAtImpl_m700362000
JBi:_Vector2_get_right_m4262310679
R8b:__ZN13ProduceHelperIN2UI13RectTransformELb0EE7ProduceE18MemLabelIdentifier18ObjectCreationMode
n8a:__ZN17PackedFloatVector12UnpackFloatsEPfiiii
mUi:__ZL25UnresolvedVirtualCall_228P12Il2CppObjectiPK10MethodInfo
gBg:__ZL113EncoderReplacementFallback_t4228544112_CustomAttributesCacheGenerator_EncoderReplacementFallback__ctor_m517300448P21CustomAttributesCache
Gkf:_ReadOnlyCollection_1__ctor_m3671019970_gshared
bD:__ZN17AnimationPlayable28UpdateInternalStateRecursiveILi3ELb0EEEvPK35AnimationPlayableEvaluationConstant
ala:__ZN13GfxDeviceGLES21DestroyComputeProgramER12ObjectHandleI18ComputeProgram_TagPvE
Z1d:_Convert_ToDecimal_m2007036836
inj:__ZN6il2cpp6icalls8mscorlib6System5Array12SetValueImplEP11Il2CppArrayP12Il2CppObjecti
_ba:__ZN17UniqueIDGenerator16DestroyPureIndexEj
E8:__ZL21AppendNestedClassName17ScriptingClassPtrRN4core17string_with_labelILi1EEE
jkb:__ZN14SafeBinaryRead21TransferSTLStyleArrayINSt3__26vectorIN9ShaderLab20SerializedSubProgram12UAVParameterENS1_9allocatorIS5_EEEEEEvRT_17TransferMetaFlags
l9h:_Context_NotifyDynamicSinks_m1367144344
Muh:_Enumerator__ctor_m1897170543_AdjustorThunk
D0:__ZNK13BaseAllocator10IsAssignedEv
nZ:__ZN24TextDOMTransferWriteBaseI9JSONWriteE12PushMetaFlagEi
Osi:_X509Certificate_GetSubjectName_m1189079906
zzc:__Z18Transfer_BlittableI8JSONReadLb1E10ColorRGBAfEvRK29SerializationCommandArgumentsR31RuntimeSerializationCommandInfo
xLg:__ZL79Mesh_t1356156583_CustomAttributesCacheGenerator_Mesh_Internal_Create_m384282753P21CustomAttributesCache
Kxf:_TlsClientCertificateVerify__ctor_m110646389
Bta:__ZN6prcoreL26RemapGenericIntegerToFloatI17TexFormatARGB888815TexFormatRFloatEEvPKNS_9InnerInfoE
ccj:_UpdatedEventHandler__ctor_m2169897603
S0:__ZN5Mutex6UnlockEv
yTi:__ZL25UnresolvedVirtualCall_186P12Il2CppObject6Guid_tS1_PK10MethodInfo
u9h:_Context_GetServerContextSinkChain_m390126977
Rcj:__ZN6il2cpp2vm17TypeNameParseInfoD2Ev
gQ:__ZN4FMOD7Channel7setModeEj
xSe:_StringReader_Read_m513112775
I2a:__ZNK8Renderer8GetLayerEv
Gbf:_Collection_1_System_Collections_IList_Insert_m266942173_gshared
YRa:__ZN12FlareManager11DeleteFlareEi
jdf:_Collection_1_Add_m2613548553_gshared
bC:__ZN7mecanim9animation22DestroyBlendTreeOutputEPNS0_15BlendTreeOutputERNS_6memory9AllocatorE
BUb:__ZNK6Camera20GetReplacementShaderEv
iUj:_glProgramBinary__wrapper
Y7d:_Decimal__ctor_m569480123_AdjustorThunk
ZGf:_HttpWebRequest__cctor_m3013631978
SGj:__ZNSt3__26__treeINS_12__value_typeINS_12basic_stringIcNS_11char_traitsIcEENS_9allocatorIcEEEEPFvvEEENS_19__map_value_compareIS7_SA_NS_4lessIS7_EELb1EEENS5_ISA_EEE4findIS7_EENS_15__tree_iteratorISA_PNS_11__tree_nodeISA_PvEEiEERKT_
xkb:__ZNSt3__26vectorIN9ShaderLab20SerializedSubProgram14ConstantBufferENS_9allocatorIS3_EEE7reserveEj
Qqa:__ZL23stbir__calculate_memoryP11stbir__info
bah:__Z83RuntimeInvoker_Void_t1841601450_Int64_t909078037_Int32_t2071877448_Int64_t909078037PFvvEPK10MethodInfoPvPS4_
igj:__ZNK15dense_hashtableINSt3__24pairIK10KeyWrapperINS1_IPK10MethodInfoP11Il2CppClassEEEjEES9_17ReflectionMapHashIS8_EN14dense_hash_mapIS9_jSD_NS9_14EqualsComparerINS0_8equal_toIS8_EEEENS0_9allocatorISB_EEE9SelectKeyESI_SK_E12test_deletedERK24dense_hashtable_iteratorISB_S9_SD_SM_SI_SK_E
ftg:__ZL90BinaryReader_t2491843768_CustomAttributesCacheGenerator_BinaryReader_ReadSByte_m1712621355P21CustomAttributesCache
gNg:__ZL101Transform_t3275118058_CustomAttributesCacheGenerator_Transform_INTERNAL_set_localPosition_m2606735056P21CustomAttributesCache
GMh:_Scrollbar_FindSelectableOnRight_m3219495255
Qni:_Logger_IsLogTypeAllowed_m243840823
gHh:_EqualityComparer_1_System_Collections_IEqualityComparer_GetHashCode_m487741360_gshared
F4c:__ZNSt3__227__insertion_sort_incompleteIRPFbPN2UI6CanvasES3_EPS3_EEbT0_S8_T_
fwi:_Rect_set_width_m2294291744_AdjustorThunk
ERb:__ZNK6Camera18GetRenderRectangleEv
y4i:__ZN6il2cpp5utils13dynamic_arrayIPK10Il2CppTypeLj4EE7reserveEj
agj:__ZNK15dense_hashtableINSt3__24pairIK10KeyWrapperINS1_IPK10MethodInfoP11Il2CppClassEEEjEES9_17ReflectionMapHashIS8_EN14dense_hash_mapIS9_jSD_NS9_14EqualsComparerINS0_8equal_toIS8_EEEENS0_9allocatorISB_EEE9SelectKeyESI_SK_E3endEv
w6a:__ZN13sorted_vectorIN4core12basic_stringIcNS0_20StringStorageDefaultIcEEEENSt3__24lessIS4_EE13stl_allocatorIS4_L18MemLabelIdentifier81ELi16EEE4findIS4_EENS5_11__wrap_iterIPS4_EERKT_
tne:_Array_InternalArray__ICollection_CopyTo_TisVector3_t2243707580_m509487340_gshared
QHd:_GridLayoutGroup_get_constraint_m1351424857
eAc:__ZL26Transfer_SimpleNativeClassI8JSONRead10RectOffsetLb1EEvRK29SerializationCommandArgumentsR31RuntimeSerializationCommandInfo
$7c:__Z44CanvasRenderer_CUSTOM_INTERNAL_CALL_SetColorP12Il2CppObjectRK10ColorRGBAf
pCj:_GC_should_collect
s7h:_UrlAttribute_Equals_m1587451932
$wj:__ZNSt3__26__treeINS_12basic_stringIcNS_11char_traitsIcEENS_9allocatorIcEEEENS_4lessIS6_EENS4_IS6_EEE12__find_equalIS6_EERPNS_16__tree_node_baseIPvEESG_RKT_
Vwc:__Z18Transfer_BlittableI9JSONWriteLb1EsEvRK29SerializationCommandArgumentsR31RuntimeSerializationCommandInfo
QGc:__ZN10ClipperLib8JoinHorzEPNS_5OutPtES1_S1_S1_NS_8IntPointEb
zKe:_Int16_ToString_m4099416068_AdjustorThunk
rhd:_DSAParameters_t1872138834_marshal_pinvoke_cleanup
uDa:__ZN6ObjectD2Ev
gic:__ZN9Transform16SetLocalRotationERK11Quaternionf
yQb:__ZN13RenderManager37RenderCamerasWithScriptableRenderLoopEi
Uye:_ASN1_Element_m2600236165
gXi:_Canvas_get_renderMode_m3398547532
$3:__ZN23InstancedPropInfoStaticL16RegisterCallbackEPv
Ntj:__ZN15dense_hashtableINSt3__24pairIK10KeyWrapperIP12Il2CppObjectEN6il2cpp2gc9CachedCCWEEES5_NS7_5utils11PointerHashIS3_EEN14dense_hash_mapIS5_S9_SD_NS5_14EqualsComparerINS0_8equal_toIS4_EEEENS0_9allocatorISA_EEE9SelectKeyESI_SK_E16reset_thresholdsEv
jF:__ZN7mecanim8skeleton25SkeletonPoseComputeLocalQEPKNS0_8SkeletonEPKNS0_13SkeletonPoseTIN4math4trsXEEEPS7_ii
yuj:__ZN6il2cpp2os19ReleaseSocketHandleEj
vAg:__ZL59ApplicationTrust_t3968282840_CustomAttributesCacheGeneratorP21CustomAttributesCache
qrg:__ZL128SafeHandleZeroOrMinusOneIsInvalid_t1177681199_CustomAttributesCacheGenerator_SafeHandleZeroOrMinusOneIsInvalid__ctor_m3340306667P21CustomAttributesCache
$U:__ZN11AudioModule16GetDSPSampleRateEv
Ryj:__ZN15dense_hashtableINSt3__24pairIK10KeyWrapperIPK19Il2CppGenericMethodEP10MethodInfoEES6_N6il2cpp8metadata23Il2CppGenericMethodHashEN14dense_hash_mapIS6_S9_SD_NS6_14EqualsComparerINSC_26Il2CppGenericMethodCompareEEENS0_9allocatorISA_EEE9SelectKeyESH_SJ_E5clearEv
yec:__ZN16PropertyAccessor5ClearEv
Edg:_TypeBuilder_get_next_table_index_m1415870184
bPj:___cxa_can_catch
Osf:_SequentialSearchPrimeGeneratorBase_GenerateNewPrime_m296245934
oUd:_Char_GetUnicodeCategory_m4273361321
UUb:__ZN6Camera28DefaultPerformRenderFunctionD0Ev
aUe:_Math_Round_m565516458
c9h:_Identity_get_ClientDynamicProperties_m767245959
GUh:_InternalEnumerator_1__ctor_m675130983_AdjustorThunk
mBh:_Dictionary_2_Clear_m899854001_gshared
Fvj:__ZN6il2cpp2os5posix15PosixWaitObjectC2ENS2_4TypeE
NSb:__ZN6Camera21PostMultiCustomRenderENS_10RenderFlagEb
tig:_TypeBuilder_create_generic_class_m986834171
IQi:__ZL24UnresolvedVirtualCall_34P12Il2CppObjectS0_PK10MethodInfo
oxa:__ZN12_GLOBAL__N_112UploadImagesEP7ApiGLESjji14GraphicsFormatPKhjS2_iiii16TextureUsageModePh
CNb:__ZN23ShaderVariantCollection13WarmupShadersEv
Wyf:_Context_set_ProtocolNegotiated_m1177527245
M7f:_UInt32_System_IConvertible_ToChar_m1056040486
j8:__Z25GetCommonScriptingClassesv
DEf:_TlsStream_get_Length_m1562309511
Ygb:__Z27scripting_gc_collect_unsafei
eV:__ZN11AudioModule20SuspendVideoTexturesEv
DXd:_CaseInsensitiveComparer__ctor_m1125492797
eX:__Z59Register_UnityEngine_AudioExtensionManager_GetAudioListenerv
fbc:__ZN12CubemapArrayC2E18MemLabelIdentifier18ObjectCreationMode
Jsh:__Z73RuntimeInvoker_DictionaryEntry_t3048875398_RuntimeObject_SByte_t454417549PFvvEPK10MethodInfoPvPS4_
l0d:_Convert_ToByte_m395020137
qAb:__Z26Transfer_UnityEngineObjectI24GenerateTypeTreeTransferLb0EEvRK29SerializationCommandArgumentsR31RuntimeSerializationCommandInfo
G_i:_RaycastHit2D_get_normal_m1680752829
KUc:_UNITY_FT_GlyphLoader_CheckPoints
I5e:_List_1_System_Collections_ICollection_CopyTo_m1995866425_gshared
cKc:__ZN16b2PolygonContact7DestroyEP9b2ContactP16b2BlockAllocator
kTe:_TextWriter_WriteLine_m1754475888
URa:__ZN15SharedLightData7PrecalcEv
hNa:__ZN10Matrix4x4fmLERKS_
Fq:__ZN4PPtrI9TransformE8TransferI18StreamedBinaryReadILb0EEEEvRT_
ute:_Array_InternalArray__get_Item_TisDouble_t4078015681_m2215331088_gshared
eNg:__ZL95Transform_t3275118058_CustomAttributesCacheGenerator_Transform_INTERNAL_set_position_m502085109P21CustomAttributesCache
EAg:__ZL57PrincipalPolicy_t289802916_CustomAttributesCacheGeneratorP21CustomAttributesCache
ODb:__Z35Transfer_Blittable_FixedBufferFieldI18StreamedBinaryReadILb1EEsEvRK29SerializationCommandArgumentsR31RuntimeSerializationCommandInfo
egf:_Collection_1_ClearItems_m3446813399_gshared
eBh:_Dictionary_2_Init_m3666073812_gshared
_6e:_List_1_AsReadOnly_m1681105545_gshared
jIa:__ZN15ArchiveReadFileD0Ev
kCe:_SymmetricTransform_TransformBlock_m1524716432
JKi:_GUIUtility_TakeCapture_m1786193394
bje:_Array_compare_TisColor32_t874517518_m3842009370_gshared
Rjh:__Z105RuntimeInvoker_Boolean_t3825574718_RuntimeObject_Vector2_t2243707579_RuntimeObject_Vector2U26_t3911752445PFvvEPK10MethodInfoPvPS4_
lbd:__ZN11UnityEngine15PlatformWrapper18GetOperatingSystemEv
cha:__ZNSt3__26vectorIP14DataBufferGLESNS_9allocatorIS2_EEE21__push_back_slow_pathIKS2_EEvRT_
q1h:_InternalEnumerator_1__ctor_m2458691472_AdjustorThunk
gpf:_ReadOnlyCollection_1_System_Collections_Generic_ICollectionU3CTU3E_Remove_m974176789_gshared
v9d:_Delegate_return_type_match_m4278947849
cMd:_InputField_GenerateHightlight_m1346735465
q_i:_Physics2D_Raycast_m1275014335
Ap:__ZN15SerializeTraitsI13dynamic_arrayIiLj4EEE19ResizeSTLStyleArrayERS1_i
smi:_UnityEventBase_ToString_m2323130098
egi:_Uri_ParseNoExceptions_m1151989845
E$d:_GC_SuppressFinalize_m953228702
zUc:_FT_MSB
xDf:_InternalAsyncResult_get_ProceedAfterHandshake_m552962842
Xlj:__ZN15dense_hashtableINSt3__24pairIK10KeyWrapperINS1_IP11Il2CppClassjEEES4_EES6_N6il2cpp8metadata14ArrayClassHashEN14dense_hash_mapIS6_S4_SB_NS6_14EqualsComparerINSA_17ArrayClassCompareEEENS0_9allocatorIS8_EEE9SelectKeyESF_SH_E3endEv
bUf:_SoapServices_PreLoad_m490411755
Owi:_RectOffset__ctor_m2517237351
t7g:__Z63RuntimeInvoker_RuntimeObject_Int32_t2071877448_SByte_t454417549PFvvEPK10MethodInfoPvPS4_
mHj:__ZN6il2cpp6icalls8mscorlib4Mono8Security12Cryptography18KeyPairPersistence10_CanSecureEP12Il2CppString
uSh:_Action_1_Invoke_m4180501989_gshared
yPh:_Slider__ctor_m3124136916
j3h:_DefaultComparer__ctor_m3180706193_gshared
B7e:_List_1_System_Collections_Generic_IEnumerableU3CTU3E_GetEnumerator_m3625278020_gshared
vha:__ZN13GfxDeviceGLES14SetRasterStateEPK17DeviceRasterState
Ibh:__Z51RuntimeInvoker_Int16_t4041245914_Single_t2076509932PFvvEPK10MethodInfoPvPS4_
Lub:__Z30TransferField_LinearCollectionI14SafeBinaryReadEvRK29SerializationCommandArgumentsR31RuntimeSerializationCommandInfo
UKd:_InputField_set_caretPositionInternal_m231166704
qyf:_TlsServerHello__ctor_m3032108168
mCa:__ZN14SafeBinaryRead11EndTransferEv
aug:__ZL98ILGenerator_t99948092_CustomAttributesCacheGenerator_ILGenerator_Mono_GetCurrentOffset_m3553856682P21CustomAttributesCache
dvb:__ZN14SafeBinaryRead8TransferI8MonoPPtrEEvRT_PKc17TransferMetaFlags
dEh:_Dictionary_2_System_Collections_Generic_ICollectionU3CSystem_Collections_Generic_KeyValuePairU3CTKeyU2CTValueU3EU3E_Remove_m1705959559_gshared
Qyi:_SerializeField__ctor_m2670658200
Q0h:_InternalEnumerator_1_System_Collections_IEnumerator_get_Current_m1533037706_gshared
oya:__ZN21UniformBufferTFMethod13MapBoneBufferEj
gCf:_RecordProtocol_SendChangeCipherSpec_m3542001341
Fpe:_Array_InternalArray__set_Item_TisVector3_t2243707580_m1390667454_gshared
jsc:__ZN12GUIClipState10BeginOnGUIER10InputEvent
xnj:__ZNSt3__26vectorIcNS_9allocatorIcEEEC2Ej
ync:__Z40Register_UnityEngine_Input_GetKeyDownIntv
hAe:_KeyPairPersistence_CanSecure_m2251009700
PA:__ZN7mecanim5human14HumanPoseClearERNS0_9HumanPoseERKNS_6bitsetILj70EEE
UKb:__ZN9TextAsset15ThreadedCleanupEv
IRf:_ReturnMessage_get_Properties_m531965085
Ffg:_GenericTypeParameterBuilder_IsSubclassOf_m563999142
Dce:_Exception_ToString_m627574695
$ig:_AddEventAdapter_Invoke_m3970567975
lea:__Z21CompleteFenceInternalR8JobFence
Jtc:__Z30Event_Get_Custom_PropModifiersP12Il2CppObject
Tej:__ZN30dense_hashtable_const_iteratorINSt3__24pairIK10KeyWrapperINS1_IPK9FieldInfoP11Il2CppClassEEEjEES9_17ReflectionMapHashIS8_EN14dense_hash_mapIS9_jSD_NS9_14EqualsComparerINS0_8equal_toIS8_EEEENS0_9allocatorISB_EEE9SelectKeyESI_SK_E30advance_past_empty_and_deletedEv
vEh:_Dictionary_2_ContainsValue_m2375979648_gshared
Kx:__ZN7mecanim9animation16CreateClipOutputEPKNS0_4ClipERNS_6memory9AllocatorE
Lne:_Array_InternalArray__Insert_TisDecimal_t724701077_m1429254816_gshared
PHi:_ListPool_1_Get_m2998644518_gshared
Nah:__Z191RuntimeInvoker_Int32_t2071877448_RuntimeObject_Int32_t2071877448_Int32_t2071877448_RuntimeObject_Int32_t2071877448_SByte_t454417549_Int32U26_t455636984_BooleanU26_t3168250738_SByte_t454417549PFvvEPK10MethodInfoPvPS4_
e4f:_TimeSpan_get_Days_m1002111510
CIb:__ZNSt3__218__stable_sort_moveIRN10vector_mapI17ScriptingClassPtrPKN5Unity4TypeENS_4lessIS2_EENS_9allocatorINS_4pairIS2_S6_EEEEE13value_compareENS_11__wrap_iterIPSB_EEEEvT0_SJ_T_NS_15iterator_traitsISJ_E15difference_typeEPNSM_10value_typeE
djb:__ZN6Shader21AwakeFromLoadThreadedEv
Dsa:__ZN6prcoreL17RemapGenericFloatI17TexFormatRGBFloat17TexFormatRGBAHalfEEvPKNS_9InnerInfoE
HZg:__ZL70InputField_t1631627530_CustomAttributesCacheGenerator_m_CharacterLimitP21CustomAttributesCache
q8e:_List_1_get_Capacity_m2443158653_gshared
wgd:__ZN13RuntimeStaticINSt3__26vectorIjNS0_9allocatorIjEEEELb0EE16StaticInitializeEPv
M_:__ZN13UploadHandler10OnSentDataEj
vIj:__ZN6il2cpp2os9SemaphoreC2Eii
EUh:_InternalEnumerator_1_get_Current_m2960188445_AdjustorThunk
dfh:__Z56RuntimeInvoker_UriHostNameType_t2148127109_RuntimeObjectPFvvEPK10MethodInfoPvPS4_
fvb:__ZNSt3__26vectorI8MonoPPtr13stl_allocatorIS1_L18MemLabelIdentifier1ELi16EEE8__appendEj
ZQh:_Text_set_alignByGeometry_m1514652028
rTb:__ZN14qsort_internal30FindAndMovePivotToLastPositionIP17RODataReplacementi19ROSorterReplacementEEvT_S4_T0_T1_
zya:__ZN15UniformTFMethod20IsBoneCountSupportedEi
pPe:_FileStream_get_Position_m465478322
d3i:__ZN14dense_hash_setI10KeyWrapperIPK19Il2CppGenericMethodEN6il2cpp8metadata23Il2CppGenericMethodHashENS4_14EqualsComparerINS6_26Il2CppGenericMethodCompareEEENSt3__29allocatorIS4_EEEC2EjRKS7_RKSA_
lQj:dynCall_viidi
Pne:_Array_InternalArray__Insert_TisInt64_t909078037_m3039874636_gshared
yRd:_Convert_ToInt16_m1787678274
JRh:_ToggleGroup_NotifyToggleOn_m997426227
ix:__ZN8Playable18OnApplicationPauseEb
qCf:_RSASslSignatureDeformatter_SetKey_m1150106904
X5:__ZN24ScriptingMethodFiltering17FilterOnSignatureENS_18MethodSearchFilterE
Xcg:_TypeBuilder_get_Module_m1668298460
qMh:_Scrollbar_ClickRepeat_m3403943364
XIc:__ZThn4_N16PhysicsManager2D12BeginContactEP9b2Contact
Y2b:__ZN18ScreenManagerWebGL13SetLockCursorE14CursorLockMode
e$c:_cf2_arrstack_finalize
GVe:_MonoType_GetMethodsByName_m1854415088
_uh:_Enumerator_get_CurrentValue_m3147984131_gshared
Ndg:_DerivedType_GetMethods_m165266904
RBe:_RSAManaged_EncryptValue_m4089823119
C8b:__ZN13MonoBehaviour19HandleNotificationsEPviR11MessageData
Mji:_Component_get_gameObject_m2159020946
$Ij:__ZN6il2cpp2os9EventImpl5ResetEv
z5i:__ZN6il2cpp2vm13MetadataCache23GetMethodGenericContextEPK10MethodInfo
lFh:_DefaultComparer_GetHashCode_m926363525_gshared
pIi:_Event_get_keyCode_m4176847855
qNh:_ScrollRect_get_verticalScrollbar_m2455612493
dQe:_ReadDelegate_Invoke_m2091885836
Weg:_TypeBuilder_GetField_m2112455315
ITj:b58
JTj:b59
CQb:__ZN25CameraStackRenderingState18EndStereoRenderingEv
qTj:b52
rTj:b53
Yxj:__ZN6il2cpp2vm12AssemblyName20AssemblyNameToStringERK18Il2CppAssemblyName
pTj:b51
GTj:b56
HTj:b57
sTj:b54
DTj:b55
Nxe:_Kernel_Multiply_m3585610531
Pvf:_CertificateSelectionCallback_EndInvoke_m3525317639
IS:__ZN4PPtrI15AudioMixerGroupE8TransferI18StreamedBinaryReadILb0EEEEvRT_
_4d:_DateTime__ctor_m3604679583_AdjustorThunk
B_i:_RaycastHit2D_t4063908774_marshal_pinvoke
dQd:_SimpleEnumerator_Reset_m1341779532
mdj:__ZNSt3__214__split_bufferINS_12basic_stringIcNS_11char_traitsIcEENS_9allocatorIcEEEERNS4_IS6_EEEC2EjjS8_
eBe:_MACAlgorithm_Core_m2390605245
K$h:_InternalEnumerator_1_System_Collections_IEnumerator_get_Current_m30488070_gshared
adc:__ZN10GameObject12CleanupClassEv
hYh:_InternalEnumerator_1_System_Collections_IEnumerator_Reset_m2624612805_AdjustorThunk
nqg:__ZL108ArrayReadOnlyList_1_t3367196019_CustomAttributesCacheGenerator_ArrayReadOnlyList_1_GetEnumerator_m3031680693P21CustomAttributesCache
jia:__ZN9GfxDevice25SetShaderPropertiesSharedERK19ShaderPropertySheet
NGi:_IndexedSet_1_GetEnumerator_m3646001838_gshared
F5g:__Z96RuntimeInvoker_Int32_t2071877448_RuntimeObject_Int32_t2071877448_Int32_t2071877448_RuntimeObjectPFvvEPK10MethodInfoPvPS4_
EKb:__ZN10MonoScript17MainThreadCleanupEv
qpa:__ZN18AsyncUploadManager19AsyncResourceUploadER9GfxDeviceii9TextureID
DKh:_VertexHelper_AddUIVertexTriangleStream_m4009409241
R3h:_Comparer_1__ctor_m844571340_gshared
scc:__ZL25InitializeDefaultMaterialv
z8c:__Z53Register_UnityEngine_CanvasRenderer_get_materialCountv
p2:__GLOBAL__sub_I_runtime_graphics_lod_0_cpp
TIa:__ZN19FileAccessorHandlerD2Ev
xKg:__ZL84RectOffset_t3387826427_CustomAttributesCacheGenerator_RectOffset_Cleanup_m3560058379P21CustomAttributesCache
lSh:_VertexHelper_AddVert_m3290455716
eAg:__ZL56SHA256Managed_t2029745292_CustomAttributesCacheGeneratorP21CustomAttributesCache
Ytg:__ZL126GenericTypeParameterBuilder_t1370236603_CustomAttributesCacheGenerator_GenericTypeParameterBuilder_MakeGenericType_m2955814622P21CustomAttributesCache
pGa:__ZN17PersistentManager12UnloadStreamERKN4core12basic_stringIcNS0_20StringStorageDefaultIcEEEEb
nK:__ZN15SerializeTraitsI9OffsetPtrIN7mecanim9animation17BlendTreeConstantEEE8TransferI19StreamedBinaryWriteILb0EEEEvRS4_RT_
E6b:__ZN14dense_hash_mapIN4core12basic_stringIcNS0_20StringStorageDefaultIcEEEE10vector_setI4PPtrI11SpriteAtlasENSt3__24lessIS8_EE13stl_allocatorIS8_L18MemLabelIdentifier81ELi16EEE20StringHash32FunctionIS4_ENS9_8equal_toIS4_EESC_INS9_4pairIKS4_SF_EELSD_81ELi16EEEixERSL_
G4a:__ZN13ScreenManager17RequestResolutionEiibi
eZf:_DESTransform__ctor_m4096028381
Zaj:_il2cpp_unity_liveness_calculation_from_statics
Yre:_Dictionary_2_Do_CopyTo_TisDictionaryEntry_t3048875398_TisDictionaryEntry_t3048875398_m983412647_gshared
sB:__ZNK26AnimatorControllerPlayable11DerivesFromE17ScriptingClassPtr
t3f:_Scheduler_get_Instance_m1989471839
s3a:__ZN8Renderer8TransferI17RemapPPtrTransferEEvRT_
kth:__Z76RuntimeInvoker_Boolean_t3825574718_UIVertex_t1204258818_UIVertex_t1204258818PFvvEPK10MethodInfoPvPS4_
vff:_Collection_1_Contains_m1299140035_gshared
FTj:_glBlitFramebuffer__wrapper
ime:_Array_InternalArray__ICollection_Add_TisUICharInfo_t3056636800_m968274080_gshared
XHi:_ObjectPool_1__ctor_m1532275833_gshared
qla:__ZN13GfxDeviceGLES19SetSinglePassStereoE16SinglePassStereo
bth:__Z72RuntimeInvoker_Boolean_t3825574718_Color32_t874517518_Color32_t874517518PFvvEPK10MethodInfoPvPS4_
mPi:_AudioSourceExtension_set_audioSource_m650845743
cnc:__Z22Input_CUSTOM_GetKeyInti
Xaf:_Queue_1_System_Collections_ICollection_get_IsSynchronized_m3521628381_gshared
rRi:__ZL24UnresolvedVirtualCall_71P12Il2CppObjectS0_S0_iS0_S0_S0_PK10MethodInfo
zog:__ZL64IntPtr_t_CustomAttributesCacheGenerator_IntPtr__ctor_m3803259710P21CustomAttributesCache
e7e:_List_1_GetIndex_m3262928832_gshared
DNc:__ZN16PhysicsManager2D19AddRigidbodyUpdatesEP11Rigidbody2D
Z0b:__Z24LookRotationToQuaternionRK8Vector3fS1_P11Quaternionf
X0b:__ZN16ReflectionProbes9GetCameraEv
Mnb:__ZL18IsGpuProgramUsable20ShaderGpuProgramTypePK6Shader
rFe:_ArgumentException__ctor_m2105824819
c7c:__ZN2UI6Canvas17SetSortingLayerIDEi
KAd:_BaseMeshEffect_get_graphic_m3358796463
Cvj:__ZN6il2cpp2vm11MethodStack23CleanupForCurrentThreadEv
MCi:_YieldInstruction__ctor_m3378690795
GWi:_Predicate_1_Invoke_m695569038_gshared
UYe:_Enumerator_VerifyState_m825848279_AdjustorThunk
QSa:__ZN20TierGraphicsSettings8TransferI24GenerateTypeTreeTransferEEvRT_
CKi:_GUIStyleState_Cleanup_m824895509
N3g:__Z77RuntimeInvoker_Int32_t2071877448_RuntimeObject_RuntimeObject_SByte_t454417549PFvvEPK10MethodInfoPvPS4_
Rwb:__ZN14SafeBinaryRead21TransferSTLStyleArrayI13dynamic_arrayI4AABBLj4EEEEvRT_17TransferMetaFlags
jZa:__ZN18UnityPropertySheet8TransferI19StreamedBinaryWriteILb0EEEEvRT_
EAf:_TlsServerCertificate_checkServerIdentity_m3836435780
cfa:__ZNSt3__26__treeINS_12__value_typeIiN11TypeManager18TypeCallbackStructEEENS_19__map_value_compareIiS4_NS_4lessIiEELb1EEENS_9allocatorIS4_EEE7destroyEPNS_11__tree_nodeIS4_PvEE
TCe:_PKCS12_Decrypt_m2353135969
Iji:_Color32_ToString_m685380321
Akg:_MonoEvent_ToString_m386956596
FHc:__ZN16PhysicsManager2D42RegisterTransformChangeInterestForColliderEP10Collider2D
Kqe:_Array_Sort_TisRuntimeObject_m3309514378_gshared
gyd:_PointerEventData_get_pointerPress_m880101744
xma:__ZL19GetCameraTargetRectRK6Camerabb
lad:__ZN11UnityEngine7Connect17XRDeviceInfoEventD0Ev
rxh:_Transform_1_BeginInvoke_m1786442111_gshared
XIe:_Int32_GetFormatException_m1729046182
ELa:__ZN13dynamic_arrayIN10GameObject13ComponentPairELj4EE6insertEPS1_RKS1_
$bf:_Collection_1_get_Count_m3834276648_gshared
z0:__ZN21UnityDefaultAllocatorI17LowLevelAllocatorE10DeallocateEPv
Ht:__ZN15PackedIntVector8TransferI14SafeBinaryReadEEvRT_
ejg:_FieldInfo_get_IsLiteral_m267898096
xUg:__ZL84Canvas_t209405766_CustomAttributesCacheGenerator_Canvas_get_isRootCanvas_m3746337338P21CustomAttributesCache
w5g:__Z45RuntimeInvoker_RuntimeObject_Int64_t909078037PFvvEPK10MethodInfoPvPS4_
EDf:_SslStreamBase_EndNegotiateHandshake_m1732321201
Pxh:_Transform_1_BeginInvoke_m1167293475_gshared
LO:__ZN13AudioListener8DoUpdateEv
lvc:__ZN5Unity9rapidjson13GenericReaderINS0_4UTF8IcEES3_13JSONAllocatorE9ParseTrueILj1ENS0_25GenericInsituStringStreamIS3_EENS0_15GenericDocumentIS3_S4_S4_EEEEvRT0_RT1_
g0d:__Z13bankers_roundd
Jdb:__ZN14SafeBinaryRead8TransferI5RectTIfEEEvRT_PKc17TransferMetaFlags
ti:_emscripten_glGenFramebuffers
oZd:_Hashtable_CopyTo_m2778915805
Zea:__ZN17BaseObjectManager16StaticInitializeEPv
bdg:_ConstructorBuilder_get_IsCompilerContext_m2796899803
Pje:_Array_IndexOf_TisUIVertex_t1204258818_m613887160_gshared
Cjb:__ZNSt3__26vectorIN9ShaderLab26SerializedShaderDependencyENS_9allocatorIS2_EEE26__swap_out_circular_bufferERNS_14__split_bufferIS2_RS4_EE
HDd:_FloatTween_GetDuration_m1757342579_AdjustorThunk
H0d:_DateTime_CoreParse_m2014268103
t5h:_ResourceSet_Dispose_m2968479859
MDa:__ZN9Behaviour23VirtualRedirectTransferER17RemapPPtrTransfer
Bxc:__Z18Transfer_BlittableI9JSONWriteLb0EyEvRK29SerializationCommandArgumentsR31RuntimeSerializationCommandInfo
tXa:__ZN13RenderTexture15ThreadedCleanupEv
Tie:_Array_BinarySearch_TisRuntimeObject_m3361740551_gshared
__a:__ZN12CubemapArray23VirtualRedirectTransferER14SafeBinaryRead
kli:_DrivenRectTransformTracker_Clear_m4190599786
Ox:__ZN21AnimationClipPlayable16ProcessHumanPassEPK35AnimationPlayableEvaluationConstantPK32AnimationPlayableEvaluationInputP33AnimationPlayableEvaluationOutput
npf:_ReadOnlyCollection_1_System_Collections_IList_Add_m616574295_gshared
YIe:_Int32_ProcessTrailingWhitespace_m2812079777
zma:__ZN18ProceduralMaterial9ReloadAllEbb
Eoc:__Z43RectTransform_CUSTOM_INTERNAL_set_sizeDeltaP12Il2CppObjectRK13Vector2fIcall
AIf:_WebProxy__ctor_m3679722173
fXh:_InternalEnumerator_1_Dispose_m2743309309_AdjustorThunk
Lrj:__ZN15dense_hashtableINSt3__24pairIK10KeyWrapperINS1_IPKcS4_EEEiEES6_24NamespaceAndNamePairHashN14dense_hash_mapIS6_iS9_NS6_14EqualsComparerI26NamespaceAndNamePairEqualsEENS0_9allocatorIS8_EEE9SelectKeyESD_SF_E6insertERKS8_
cEa:__ZN24GenerateTypeTreeTransfer18BeginArrayTransferEPKcS1_Ri17TransferMetaFlags
Fpa:__Z16DecompressCrunchPKhRjR13TextureFormatiiii18MemLabelIdentifier
s9e:_List_1__ctor_m2082969060_gshared
nm:___syscall51
rm:___syscall54
vsj:__ZNSt3__26__treeINS_12__value_typeIP24Il2CppReflectionAssemblyPvEENS_19__map_value_compareIS3_S5_NS_4lessIS3_EELb1EEENS_9allocatorIS5_EEE12__find_equalIS3_EERPNS_16__tree_node_baseIS4_EESH_RKT_
zob:__ZN9ShaderLab9SubShader19CreateFromSubShaderERKS0_
JUg:__ZL84Canvas_t209405766_CustomAttributesCacheGenerator_Canvas_get_targetDisplay_m150918273P21CustomAttributesCache
pCb:__Z18Transfer_BlittableI19StreamedBinaryWriteILb0EELb1EjEvRK29SerializationCommandArgumentsR31RuntimeSerializationCommandInfo
eH:__ZNK8Animator20IsAnyRendererVisibleEv
L$c:_cff_builder_add_point1
Fsj:__ZN6il2cpp2vm5Image21GetCachedResourceDataEPK11Il2CppImageRKNSt3__212basic_stringIcNS5_11char_traitsIcEENS5_9allocatorIcEEEE
vId:_HorizontalOrVerticalLayoutGroup_set_childControlWidth_m4209477792
Idh:__Z54RuntimeInvoker_TimeSpan_t3430258949_Double_t4078015681PFvvEPK10MethodInfoPvPS4_
Xle:_Array_InternalArray__ICollection_Add_TisUInt32_t2149682021_m2629016323_gshared
Otb:__Z18Transfer_BlittableI14SafeBinaryReadLb0E10ColorRGBAfEvRK29SerializationCommandArgumentsR31RuntimeSerializationCommandInfo
Aa:invoke_iiiiiiiiii
IW:__ZN11AudioSource25GetNumExtensionPropertiesEv
PU:__ZNK7Texture10GetVRUsageEv
Dne:_Array_InternalArray__Insert_TisKeyValuePair_2_t888819835_m975554221_gshared
$9g:__Z59RuntimeInvoker_RuntimeObject_Int64_t909078037_RuntimeObjectPFvvEPK10MethodInfoPvPS4_
igb:__ZN18LoadSceneOperation19IntegrateTimeSlicedEi
E3f:_Scheduler_SchedulerThread_m2209572785
Yve:_SortKeyBuffer_GetResultAndReset_m2516956577
KSg:__ZL79Event_t3028476042_CustomAttributesCacheGenerator_Event_get_character_m788279814P21CustomAttributesCache
d5b:__ZN10FileSystem19SetCurrentDirectoryERKN4core12basic_stringIcNS0_20StringStorageDefaultIcEEEE
YHi:_ObjectPool_1_get_countAll_m4217365918_gshared
F8:__ZN16ScriptingManager24NotifyScriptCacheReleaseEi
nHg:__ZL85UriParser_t1012511323_CustomAttributesCacheGenerator_UriParser_OnRegister_m4010407891P21CustomAttributesCache
Jtg:__ZL63UnmanagedMemoryStream_t822875729_CustomAttributesCacheGeneratorP21CustomAttributesCache
Ikc:__Z47Register_UnityEngine_Coroutine_ReleaseCoroutinev
gui:_PlayableBehaviour__ctor_m1589016632
wP:__ZN15AudioReverbZone13SetFMODValuesEv
e5:__ZL19StaticDestroyShaderPv
de:_glRenderbufferStorageMultisample
qSf:_SoapTypeAttribute_get_XmlTypeName_m2546866572
Bvi:_Ray_GetPoint_m2427899009
AC:__ZN23AnimationPlayableOutput17SetTargetAnimatorEP8Animator
Clf:_ReadOnlyCollection_1_System_Collections_IList_get_IsFixedSize_m158012227_gshared
Yyc:__ZN9JSONWrite8TransferI13dynamic_arrayIN4math12int3_storageELj4EEEEvRT_PKc17TransferMetaFlags
bti:_X509Chain__ctor_m1113875360
Aof:_ReadOnlyCollection_1__ctor_m2387481411_gshared
ZAf:_TlsServerHello_processProtocol_m1241336522
BHg:__ZL79ModulusRing_t80355992_CustomAttributesCacheGenerator_ModulusRing_Pow_m661630322P21CustomAttributesCache
Zfe:_Array_InternalArray__ICollection_Remove_TisKeyValuePair_2_t888819835_m1287715465_gshared
tVh:_InternalEnumerator_1_System_Collections_IEnumerator_Reset_m324760031_AdjustorThunk
S9h:_ContextAttribute_IsContextOK_m3281216012
oRe:_PathTooLongException__ctor_m3212099251
SZj:_pthread_cond_broadcast__wrapper
dWf:_ObjectManager_RaiseDeserializationEvent_m1611173032
fv:__ZN17PackedFloatVector8TransferI18StreamedBinaryReadILb0EEEEvRT_
tKg:__ZL88Screen_t786852042_CustomAttributesCacheGenerator_Screen_t786852042____width_PropertyInfoP21CustomAttributesCache
a0a:__ZN7Cubemap23VirtualRedirectTransferER17RemapPPtrTransfer
Bmc:__Z37Register_UnityEngine_Screen_get_widthv
pFd:_DropdownItem_get_image_m2752143412
gRi:__ZL24UnresolvedVirtualCall_60P12Il2CppObjectaPK10MethodInfo
ofc:__ZN22BlockMemoryCacheWriter11GetPathNameEv
QGd:_Graphic_Rebuild_m2617722358
nic:__ZN23TransformChangeDispatch38CheckAndClearChangedForMultipleSystemsEyP19ProfilerInformation
uwg:__ZL86SafeHandle_t2733794115_CustomAttributesCacheGenerator_SafeHandle_SetHandle_m1980208835P21CustomAttributesCache
N6d:_DateTime_ToString_m3108726445_AdjustorThunk
rY:__ZN19CloudServiceHandlerD2Ev
dte:_Array_InternalArray__get_Item_TisTableRange_t2011406615_m602485977_gshared
XLd:_InputField_Append_m2623574152
lFe:_ApplicationException__ctor_m1120437222
clg:_MonoMethod__ctor_m4091684020
dp:stackAlloc
$kc:__Z44Camera_CUSTOM_INTERNAL_CALL_ScreenPointToRayP12Il2CppObjectRK8Vector3fR3Ray
uJa:__ZN25SingleBlockMemoryFileData4LockEPPv
Uqb:__ZN12HandlerChain5TouchER13FileEntryData
bhg:_MethodBuilder_GetHashCode_m1713271764
wnh:__Z50RuntimeInvoker_Boolean_t3825574718_Link_t865133271PFvvEPK10MethodInfoPvPS4_
gcf:_Collection_1_IsSynchronized_m1319022347_gshared
fve:_MSCompatUnicodeTable_GetResource_m3816716847
Mmc:__Z32RectOffset_Get_Custom_PropBottomP12Il2CppObject
bPd:_Array_CreateInstance_m15016505
hwb:__ZNSt3__26vectorI17AnimationCurveTplIfE13stl_allocatorIS2_L18MemLabelIdentifier1ELi16EEE6assignINS_11__wrap_iterIPS2_EEEENS_9enable_ifIXaasr21__is_forward_iteratorIT_EE5valuesr16is_constructibleIS2_NS_15iterator_traitsISC_E9referenceEEE5valueEvE4typeESC_SC_
cMj:_stat
Vjd:_RijndaelTransform_Decrypt128_m1282993908
hXi:_Canvas_get_isRootCanvas_m3746337338
wp:__ZN11Quaternionf8TransferI14SafeBinaryReadEEvRT_
ane:_Array_InternalArray__ICollection_CopyTo_TisUInt16_t986882611_m3228377237_gshared
n0e:_List_1_Add_m4157722533_gshared
q_g:__ZL68Navigation_t1571958496_CustomAttributesCacheGenerator_m_SelectOnDownP21CustomAttributesCache
_Fc:__ZN15b2DistanceJoint23InitVelocityConstraintsERK12b2SolverData
MNb:__ZNSt3__218__insertion_sort_3IRNS_4lessIN22BuiltinResourceManager8ResourceEEEPS3_EEvT0_S7_T_
njd:_RC2_set_KeySize_m2015782960
ma:invoke_iiiiiiiiiiii
Taf:_Queue_1_GetEnumerator_m2842671368_gshared
chf:_Collection_1_SetItem_m3715941382_gshared
YFe:_NumberFormatInfo_get_CurrencyGroupSeparator_m2480433019
HCe:_StrongName_get_PublicKey_m3777577320
P5h:_RuntimeCompatibilityAttribute__ctor_m1331212510
$li:_PersistentCallGroup_Initialize_m3729167844
kS:__ZN10AudioMixer12RebindOutputEv
vlj:__ZNK15dense_hashtableINSt3__24pairIK10KeyWrapperIP11Il2CppClassES4_EES5_N6il2cpp8metadata16SZArrayClassHashEN14dense_hash_mapIS5_S4_SA_NS5_14EqualsComparerINS9_19SZArrayClassCompareEEENS0_9allocatorIS7_EEE9SelectKeyESE_SG_E5beginEv
Q$i:__ZN6il2cpp2vm17SetupFieldsLockedEP11Il2CppClassRKNS_2os12FastAutoLockE
NS:__ZN11AudioSourceD0Ev
U1e:_List_1_System_Collections_ICollection_CopyTo_m1530390632_gshared
Jif:_Collection_1_System_Collections_IEnumerable_GetEnumerator_m1452790461_gshared
TWh:_InternalEnumerator_1_System_Collections_IEnumerator_Reset_m3194282029_AdjustorThunk
ksb:__ZN16MemoryFileSystem4NameEv
i3e:__ZN21InterfaceFuncInvoker0I18Color32_t874517518E6InvokeEjP11Il2CppClassP12Il2CppObject
xvd:_BaseRaycaster_OnEnable_m3641767070
l9e:_List_1_ToArray_m2810936944_gshared
sUe:_MissingMemberException_get_Message_m2763732423
Jsf:_PrimeGeneratorBase_get_PrimalityTest_m308005118
cpg:__ZL71Enum_t2459695545_CustomAttributesCacheGenerator_Enum_Format_m2294492821P21CustomAttributesCache
irc:__Z13SetCopyBufferRKN4core12basic_stringIcNS_20StringStorageDefaultIcEEEE
A1e:_List_1_CheckIndex_m2328469916_gshared
wdh:__Z75RuntimeInvoker_RuntimeObject_RuntimeObject_Decimal_t724701077_RuntimeObjectPFvvEPK10MethodInfoPvPS4_
Q9e:_List_1_AddRange_m3345533268_gshared
hTc:_UNITY_FT_New_Size
Xic:__Z42ScriptingGetComponentsOfTypeFromGameObjectRK26ScriptingGetComponentsArgs
EIi:_GUI_set_changed_m3199207797
naf:_List_1_get_Item_m3157283227_gshared
Yie:__ZN21InterfaceFuncInvoker2Ii38CustomAttributeNamedArgument_t94157543S0_E6InvokeEjP11Il2CppClassP12Il2CppObjectS0_S0_
pSg:__ZL92AudioSource_t1135106623_CustomAttributesCacheGenerator_AudioSource_get_isPlaying_m1207358099P21CustomAttributesCache
Y3d:_Convert_ToString_m2915777777
GZa:__ZNSt3__27__sort4IRPFbRKNS_4pairIN9ShaderLab16FastPropertyNameEN18UnityPropertySheet11UnityTexEnvEEES8_EPS6_EEjT0_SD_SD_SD_T_
a$c:_cf2_hintmap_build
JOg:__ZL54PropertyName_t217228410_CustomAttributesCacheGeneratorP21CustomAttributesCache
WYc:_Line_Up
mWe:_MonoType_GetGenericTypeDefinition_m2363776160
Jaf:_Queue_1__ctor_m1845245813_gshared
ezf:_Context_set_SentConnectionEnd_m2641458842
ke:_emscripten_glBufferSubData
mSd:_Buffer_BlockCopyInternal_m2627156229
vyb:__Z18Transfer_BlittableI17RemapPPtrTransferLb1EyEvRK29SerializationCommandArgumentsR31RuntimeSerializationCommandInfo
JGd:_Graphic_set_material_m329335629
gvd:_ExecuteEvents_get_pointerExitHandler_m3250605428
Fra:__ZN6prcoreL12RemapGenericI15TexFormatRGB88817TexFormatARGB8888EEvPKNS_9InnerInfoE
Vp:__Z17CalculateGlobalRS23TransformAccessReadOnly
omh:__Z70RuntimeInvoker_DictionaryEntry_t3048875398_RuntimeObject_RuntimeObjectPFvvEPK10MethodInfoPvPS4_
BVf:__ZN21InterfaceFuncInvoker1IP12Il2CppObject28StreamingContext_t1417235061E6InvokeEjP11Il2CppClassS1_S2_
Hxe:_Kernel_multiByteDivide_m735279869
NDh:_Dictionary_2_ToTValue_m542772656_gshared
Tdd:__ZN23UnityPurchasingSettings10InitializeER6Object
GTi:__ZL25UnresolvedVirtualCall_194P12Il2CppObject6Guid_tS1_PK10MethodInfo
c3f:_Thread_GetNewManagedId_internal_m3211695465
CYi:_UISystemProfilerApi_EndSample_m3264820872
bpa:__ZN17GenericDynamicVBO17DrawChunkInternalERK21DynamicVBOChunkHandle17ShaderChannelMaskS3_P17VertexDeclarationP16DrawBuffersRangeij
ugd:__ZN13RuntimeStaticINSt3__26vectorIN5physx25PxVehicleWheelQueryResultENS0_9allocatorIS3_EEEELb0EE16StaticInitializeEPv
Nwb:__ZN14SafeBinaryRead21TransferSTLStyleArrayI13dynamic_arrayI9BoundsIntLj4EEEEvRT_17TransferMetaFlags
Sib:__ZN22MemoryCacherReadBlocks14LockCacheBlockEjPPhS1_
nRd:_Boolean_System_IConvertible_ToChar_m2637404801_AdjustorThunk
Hrh:__Z55RuntimeInvoker_UICharInfo_t3056636800_Int32_t2071877448PFvvEPK10MethodInfoPvPS4_
upd:_SecurityContext_Capture_m2535194991
c7f:_UInt16_System_IConvertible_ToSByte_m3044765342_AdjustorThunk
Sdg:_DerivedType_IsArrayImpl_m684825803
wng:__ZL47Byte_t3683104436_CustomAttributesCacheGeneratorP21CustomAttributesCache
DRb:__ZNK9GfxDevice26GetSinglePassStereoEyeMaskEv
rch:__Z66RuntimeInvoker_Void_t1841601450_Int64_t909078037_Int32_t2071877448PFvvEPK10MethodInfoPvPS4_
gSc:__ZN20TextRenderingPrivate8FontImpl16CacheFontForTextEPtiifjPK13dynamic_arrayINS_16TextFormatChangeELj4EE
jph:__Z52RuntimeInvoker_Int32_t2071877448_Vector3_t2243707580PFvvEPK10MethodInfoPvPS4_
Ype:_Array_qsort_TisUIVertex_t1204258818_TisUIVertex_t1204258818_m512606409_gshared
chd:__Z21ArrayElementTypeCheckP11Il2CppArrayPv
WWj:_emscripten_glTexSubImage2D__wrapper
lGf:_NameValueCollection_AsSingleString_m10599052
VXb:__ZN14qsort_internal30FindAndMovePivotToLastPositionIP21ForwardRenderPassDataiN23ForwardShaderRenderLoop18RenderObjectSorterILb0EEEEEvT_S6_T0_T1_
mXe:_Object_InternalGetHashCode_m1371384246
uKh:_Navigation_get_defaultNavigation_m2185194207
MOc:__ZN16PhysicsManager2D20WorldContactFilter2D13ShouldCollideEP9b2FixtureS2_
SKe:_Int32_System_IConvertible_ToSByte_m1449623243_AdjustorThunk
FEe:_AccessViolationException__ctor_m1270251537
F9c:__Z42Register_UnityEngine_Canvas_get_rootCanvasv
uti:_X509ExtensionCollection_IndexOf_m3972100651
cvb:__Z14resize_trimmedINSt3__26vectorI8MonoPPtr13stl_allocatorIS2_L18MemLabelIdentifier1ELi16EEEEEvRT_j
Te:_TTF_RenderText_Solid
Y7f:_UInt32_System_IConvertible_ToInt64_m3091851828
vUe:_MissingMethodException__ctor_m3898429715
CTf:_RemotingConfiguration_RegisterClientProviderTemplate_m514821425
Nvh:_Enumerator_System_Collections_IEnumerator_Reset_m3085583937_gshared
lfa:__ZN15dense_hashtableINSt3__24pairIKPKcPK4RTTIEES3_N11TypeManager23ConstCharPtrHashFunctorEN14dense_hash_mapIS3_S7_SA_NS9_19ConstCharPtrEqualToE13stl_allocatorIS8_L18MemLabelIdentifier7ELi16EEE9SelectKeyESC_SF_E15insert_noresizeERKS8_
SBe:_RSAManaged_ExportParameters_m2873993187
H$d:_Convert__cctor_m926133987
dbf:_Enumerator__ctor_m2816143215_AdjustorThunk
oed:__ZN11UnityEngine7Connect16PersistentValuesC2Ev
mLf:_X509Chain_FindParent_m404663796
fxc:__Z18Transfer_BlittableI9JSONWriteLb0E5RectTIiEEvRK29SerializationCommandArgumentsR31RuntimeSerializationCommandInfo
uUe:_MissingMemberException__ctor_m2164043278
VYi:__ZL7log2_32j
Lef:_Collection_1_CopyTo_m2282972507_gshared
PAd:_BaseVertexEffect__ctor_m358261091
TNf:_Interpreter_GetGroupInfo_m312421921
Iva:__Z15IsIEEE754Format14GraphicsFormat
Jyb:__Z19TransferField_ArrayI17RemapPPtrTransfer27Converter_UnityEngineObjectEvRK23StaticTransferFieldInfoR31RuntimeSerializationCommandInfoRT0_
$a:invoke_iifiii
ZWb:__ZN19ShaderPropertySheet24SetTextureFromTextureRefERK23FastTexturePropertyNamePK10TextureRef
Ezg:__ZL53HMACSHA384_t3026079344_CustomAttributesCacheGeneratorP21CustomAttributesCache
uMe:_NumberFormatter_InitDecHexDigits_m1612588520
yja:__ZN13GfxDeviceGLES15UploadTexture2DE9TextureID16TextureDimensionPKhiii14GraphicsFormati18TextureUploadFlags16TextureUsageMode
$qd:_Single_GetHashCode_m3102305584_AdjustorThunk
Pre:_Array_swap_TisVector3_t2243707580_m3036634038_gshared
nR:__ZN4FMOD6System9createDSPEP20FMOD_DSP_DESCRIPTIONPPNS_3DSPE
YB:__ZN7mecanim9animation26DestroyControllerWorkspaceEPNS0_19ControllerWorkspaceERNS_6memory9AllocatorE
ghi:_UriParser_set_SchemeName_m3624672465
qN:__ZN4FMOD8ChannelI11EndCallbackEv
Ymd:_ToBase64Transform_TransformBlock_m2201454137
mtc:__ZN8GUIStyle14SetDefaultFontEPN13TextRendering4FontE
Phg:_OpCode_get_StackBehaviourPop_m3787015663_AdjustorThunk
Qbi:_PatternCompiler_EmitCount_m3609178511
_3a:__ZN15QualitySettings23VirtualRedirectTransferER24GenerateTypeTreeTransfer
tWg:__ZL89PointerEventData_t1599784723_CustomAttributesCacheGenerator_U3CpositionU3Ek__BackingFieldP21CustomAttributesCache
Ebj:__ZN6il2cpp2os10FileHandleC2Ev
Pbh:__Z48RuntimeInvoker_SByte_t454417549_SByte_t454417549PFvvEPK10MethodInfoPvPS4_
l6g:__Z65RuntimeInvoker_Void_t1841601450_SByte_t454417549_SByte_t454417549PFvvEPK10MethodInfoPvPS4_
Ish:__Z54RuntimeInvoker_KeyValuePair_2_t888819835_RuntimeObjectPFvvEPK10MethodInfoPvPS4_
Fsh:__Z65RuntimeInvoker_DictionaryEntry_t3048875398_IntPtr_t_RuntimeObjectPFvvEPK10MethodInfoPvPS4_
kBg:__ZL84Encoding_t663144255_CustomAttributesCacheGenerator_Encoding_GetByteCount_m4104502544P21CustomAttributesCache
Owd:__ZN23InterfaceActionInvoker1IP25AxisEventData_t1524870173E6InvokeEjP11Il2CppClassP12Il2CppObjectS1_
GSf:_ObjRef_set_TypeInfo_m1661789743
B2i:__ZN30dense_hashtable_const_iteratorINSt3__24pairIK10KeyWrapperIPK19Il2CppGenericMethodEPK26Il2CppGenericMethodIndicesEES6_N6il2cpp8metadata23Il2CppGenericMethodHashEN14dense_hash_mapIS6_SA_SE_NS6_14EqualsComparerINSD_26Il2CppGenericMethodCompareEEENS0_9allocatorISB_EEE9SelectKeyESI_SK_EppEv
fFf:_HybridDictionary_Add_m1037587952
LSc:_UNITY_FT_Request_Metrics
dXa:__ZN7Texture8TransferI18StreamedBinaryReadILb0EEEEvRT_
jqj:__ZN6il2cpp6icalls8mscorlib6System10Reflection10MonoMethod29get_IsGenericMethodDefinitionEP22Il2CppReflectionMethod
Pmj:__ZN6il2cpp2vm6Thread21AllocThreadStaticDataEi
Dei:__ZN23InterfaceActionInvoker4IiibP19LinkRef_t2090853131E6InvokeEjP11Il2CppClassP12Il2CppObjectiibS1_
K0d:_DateTime_YearMonthDayFormats_m4204607055
pCd:_ColorBlock_set_disabledColor_m3502887543_AdjustorThunk
Xyj:__ZN30dense_hashtable_const_iteratorINSt3__24pairIK10KeyWrapperIPK19Il2CppGenericMethodEP10MethodInfoEES6_N6il2cpp8metadata23Il2CppGenericMethodHashEN14dense_hash_mapIS6_S9_SD_NS6_14EqualsComparerINSC_26Il2CppGenericMethodCompareEEENS0_9allocatorISA_EEE9SelectKeyESH_SJ_EppEv
VV:__Z13RegisterClassI13AudioListenerEvv
crh:__Z48RuntimeInvoker_Link_t865133271_Int32_t2071877448PFvvEPK10MethodInfoPvPS4_
CLi:_Aes__ctor_m4020215067
Ewc:__Z18Transfer_BlittableI9JSONWriteLb0E8Vector3fEvRK29SerializationCommandArgumentsR31RuntimeSerializationCommandInfo
Tba:__ZN13RuntimeStaticI17UniqueIDGeneratorLb0EE13StaticDestroyEPv
Sf:_emscripten_glUniform4i
Lzg:__ZL46MD5_t1507972490_CustomAttributesCacheGeneratorP21CustomAttributesCache
OGd:_Graphic_OnDisable_m2360886868
bIi:_ObjectPool_1_Release_m1615270002_gshared
cf:_emscripten_glUniform4f
yj:___unlock
QBj:_GC_default_oom_fn
dHa:__ZN15dense_hashtableINSt3__24pairIKN4core12basic_stringIcNS2_20StringStorageDefaultIcEEEEP20ArchiveStorageReaderEES6_20StringHash32FunctionIS6_EN14dense_hash_mapIS6_S9_SC_NS0_8equal_toIS6_EE13stl_allocatorISA_L18MemLabelIdentifier55ELi16EEE9SelectKeyESF_SI_ED2Ev
ZNh:_ScrollRect_InternalCalculateOffset_m3083065267
RZh:_InternalEnumerator_1_System_Collections_IEnumerator_Reset_m1561424184_AdjustorThunk
x3b:__ZN13sorted_vectorINSt3__24pairIN4core12basic_stringIcNS2_20StringStorageDefaultIcEEEES6_EEN10vector_mapIS6_S6_27compare_tstring_insensitiveIS6_E13stl_allocatorIS7_L18MemLabelIdentifier38ELi16EEE13value_compareESD_E9erase_oneIS6_EEjRKT_
HXd:_Comparer_Compare_m4132969818
wT:__ZN20SoundChannelInstance19setReverbPropertiesEP29FMOD_REVERB_CHANNELPROPERTIES
yMd:_U3CCaretBlinkU3Ec__Iterator0_System_Collections_Generic_IEnumeratorU3CobjectU3E_get_Current_m3541562536
m2h:_InternalEnumerator_1__ctor_m2808001655_AdjustorThunk
X_h:_InternalEnumerator_1_System_Collections_IEnumerator_Reset_m2571770313_AdjustorThunk
jjg:_FieldInfo_get_UMarshal_m1934544188
BFh:_DefaultComparer_Equals_m2171836276_gshared
Pfa:__ZN13RuntimeStaticI18SpriteAtlasManagerLb0EE13StaticDestroyEPv
fpj:__ZN6il2cpp2vm9Exception18GetFormatExceptionEPKc
Ixg:__ZL55IMessageSink_t2189618969_CustomAttributesCacheGeneratorP21CustomAttributesCache
Tqc:__Z40Register_UnityEngine_Transform_IsChildOfv
voi:_Mathf_Floor_m484333823
zVd:_ArrayList_Sort_m923359189
sRh:_Text_CalculateLayoutInputVertical_m1732119136
Xmi:_Gradient_Init_m3042650694
Plc:__Z45Register_UnityEngine_Display_GetSystemExtImplv
IBa:__ZN9GfxDevice31DrawIndexedNullGeometryIndirectE16GfxPrimitiveTypeP9GfxBuffer15ComputeBufferIDj
Ny:__ZN7mecanim9animation23TransformValuesFromClipEiiiRKNS_10ValueArrayERKNS0_10ClipOutputERKNS0_12ClipBindingsERS1_RNS_14ValueArrayMaskEb
_De:_X509Certificate_GetSubjectName_m2120755276
yga:__ZN30dense_hashtable_const_iteratorINSt3__24pairIKN4core12basic_stringIcNS2_20StringStorageDefaultIcEEEE13dynamic_arrayI4PPtrI6SpriteELj4EEEES6_20StringHash32FunctionIS6_EN14dense_hash_mapIS6_SC_SF_NS0_8equal_toIS6_EE13stl_allocatorISD_L18MemLabelIdentifier81ELi16EEE9SelectKeyESI_SL_EC2EPK15dense_hashtableISD_S6_SF_SN_SI_SL_EPKSD_SU_b
SYi:__ZL17log2withScale_128yyi
PLg:__ZL58ResourceRequest_t2560315377_CustomAttributesCacheGeneratorP21CustomAttributesCache
N5c:__ZNSt3__218__insertion_sort_3IRNS_6__lessIN2UI14DepthSortEntryES3_EEPS3_EEvT0_S7_T_
S8b:__ZN2UI13RectTransform15InitializeClassEv
kda:__ZN13RuntimeStaticI15DirectorManagerLb0EE16StaticInitializeEPv
AAc:__ZN8JSONRead8TransferI23ManagedObjectTransfererEEvRT_PKc17TransferMetaFlagsb
ctf:_ASN1_get_Value_m2229768312
DTi:__ZL25UnresolvedVirtualCall_191P12Il2CppObjectsPK10MethodInfo
Rud:_BaseInput_get_touchCount_m998724785
ycb:__ZN11TimeManager6UpdateEv
cti:_X509Chain_get_Status_m2726750609
pMd:_InputField_get_preferredWidth_m3185355225
Lhf:_Collection_1_RemoveItem_m1406181352_gshared
W2f:_Thread_SetState_m3198426726
TVd:_ArrayListWrapper_Contains_m1158465965
Cre:_Array_swap_TisColor32_t874517518_m2203309732_gshared
Dsf:_BigInteger_op_LessThan_m3825358479
jMj:_fflush
TNa:__ZN17LightProbeContext4InitERK16LightmapSettingsRK14RenderSettings
BRd:_Convert_ToInt32_m55151042
sJj:__GLOBAL__sub_I_Error_cpp
iPi:_AudioSource_INTERNAL_CALL_ReadExtensionPropertyName_m3694806886
$di:_Alternation_GetWidth_m4218808325
Vpf:_ReadOnlyCollection_1_System_Collections_IList_Insert_m2651065875_gshared
aQa:__ZN10ColorRGBAf8TransferI19StreamedBinaryWriteILb0EEEEvRT_
RUc:_ft_bitmap_glyph_bbox
sGf:_TypeConverterAttribute__ctor_m4061167050
JTi:__ZL25UnresolvedVirtualCall_197P12Il2CppObject22ColorBlock_t2652774230PK10MethodInfo
Gaf:_Enumerator_MoveNext_m3315718998_gshared
xvj:__ZNSt3__26vectorI20Il2CppStackFrameInfoNS_9allocatorIS1_EEE7reserveEj
MNg:__ZL75SpriteAtlasManager_t308281693_CustomAttributesCacheGenerator_atlasRequestedP21CustomAttributesCache
zI:__ZN14SafeBinaryRead21TransferSTLStyleArrayI22OffsetPtrArrayTransferI9OffsetPtrIN7mecanim12statemachine21SelectorStateConstantEEEEEvRT_17TransferMetaFlags
HDh:_Dictionary_2_ContainsValue_m2760581195_gshared
zDj:_GC_reclaim_uninit
k$b:__Z34ProcessIndexListIsNodeVisibleStep2RK22SceneCullingParametersPK9SceneNodePK4AABBR9IndexList
CKb:__ZN10MonoScriptD2Ev
Wra:__ZN6prcoreL12RemapGenericI17TexFormatARGB888817TexFormatBGRA8888EEvPKNS_9InnerInfoE
Iu:__ZN18StreamedBinaryReadILb0EE8TransferINSt3__26vectorIN13AnimationClip12Vector3CurveE13stl_allocatorIS5_L18MemLabelIdentifier26ELi16EEEEEEvRT_PKc17TransferMetaFlags
eQh:_Slider_OnRectTransformDimensionsChange_m4109401172
wIf:_WebHeaderCollection_Get_m3391944907
jnc:__Z39Input_CUSTOM_INTERNAL_get_mousePositionP8Vector3f
XXc:_tt_cmap13_char_next
UTf:_ServerIdentity__ctor_m1576469955
wob:__ZN9ShaderLab4Pass16SetupPassOptionsEv
fh:_JS_Sound_ReleaseInstance
_Ng:__ZL72IL2CPPStructAlignmentAttribute_t130316838_CustomAttributesCacheGeneratorP21CustomAttributesCache
xia:__ZN13GfxDeviceGLES19DrawBuffersIndirectEP9GfxBufferPK18VertexStreamSourceiP17VertexDeclaration17ShaderChannelMask16GfxPrimitiveType15ComputeBufferIDj
k6e:_List_1_Shift_m439051997_gshared
XDd:_DefaultControls_CreateScrollbar_m770089625
y6h:_InAttribute__ctor_m1401060713
HVj:_emscripten_glPixelStorei__wrapper
kNc:__Z20GetRigidbodyChildrenRK9Transform13dynamic_arrayIP11Rigidbody2DLj4EE
m8d:_Decimal_System_IConvertible_ToDecimal_m1541432424_AdjustorThunk
LHb:__Z29Transfer_Blittable_ArrayFieldI18StreamedBinaryReadILb0EEaEvRT_R9ArrayInfoRK23StaticTransferFieldInfo
Em:FUNCTION_TABLE_diddi
HZf:_EncoderExceptionFallbackBuffer__ctor_m3538569575
Xoc:__Z26Material_CUSTOM_SetIntImplP12Il2CppObjectii
TOg:__ZL108StackTraceUtility_t1881293839_CustomAttributesCacheGenerator_StackTraceUtility_ExtractStackTrace_m2375126700P21CustomAttributesCache
GIe:_Int16_System_IConvertible_ToSingle_m3277935657_AdjustorThunk
F8i:__ZNSt3__26vectorIPK10MethodInfoNS_9allocatorIS3_EEE21__push_back_slow_pathIRKS3_EEvOT_
h5c:__ZNK2UI14CanvasRenderer22GetTypeVirtualInternalEv
rai:_InternalRemotingServices__cctor_m3821625125
Zmc:__Z42Register_UnityEngine_RectOffset_get_bottomv
a0f:_StringBuilder_Insert_m3322917127
KEh:_DefaultComparer_Equals_m724229128_gshared
G5e:_List_1__cctor_m1337542316_gshared
Cwh:_Enumerator_VerifyCurrent_m1702320752_AdjustorThunk
WSh:_ArrayReadOnlyList_1_Clear_m2539474626_gshared
GPf:__ZN21InterfaceFuncInvoker0IP24ObjectU5BU5D_t3614634134E6InvokeEjP11Il2CppClassP12Il2CppObject
Owb:__ZN9BoundsInt8TransferI14SafeBinaryReadEEvRT_
y2d:_Convert_ToDouble_m3520060872
aVj:_emscripten_glUniform1f__wrapper
VPj:dynCall_di
wCf:_SslCipherSuite_ComputeServerRecordMAC_m1876572367
SRc:__ZN20TextRenderingPrivate19NativeTextGeneratorC2ERK11UTF16StringPNS_8FontImplE11ColorRGBA32ifRK8Vector2fbifiibffbbbP13dynamic_arrayIN2UI8UIVertexELj4EE
lwc:__Z28RegisterModule_JSONSerializev
j2f:_Interlocked_CompareExchange_m3227034792
Ohd:_HashAlgorithm_get_Hash_m931854461
lbj:_il2cpp_monitor_enter
q3h:_DefaultComparer_Compare_m3564013922_gshared
ypb:__ZN2UI13RectTransform8TransferI14SafeBinaryReadEEvRT_
xxc:__Z35Transfer_Blittable_FixedBufferFieldI9JSONWriteaEvRK29SerializationCommandArgumentsR31RuntimeSerializationCommandInfo
Sih:__Z63RuntimeInvoker_RuntimeObject_Ray_t2469606224_Single_t2076509932PFvvEPK10MethodInfoPvPS4_
Rgc:__Z20IsHumanControllingUsv
ZQb:__ZNK19RenderEventsContext21ExecuteCommandBuffersEijR17ShaderPassContextR15RenderNodeQueueP19ProfilerInformationi
ngf:_Collection_1_RemoveAt_m3454169520_gshared
o1:__ZNK20DynamicHeapAllocatorI17LowLevelAllocatorE10GetPtrSizeEPKv
Ns:__ZN7mecanim5human9HumanGoal8TransferI14SafeBinaryReadEEvRT_
Fzi:_Texture2D_GetPixelBilinear_m3514551520
iz:__ZN17AnimationPlayable16AllocateBindingsEPK35AnimationPlayableEvaluationConstant
IEd:_Dropdown_set_value_m2945561009
oia:__ZN13GfxDeviceGLES17DestroyGpuProgramEPK10GpuProgram
QFe:_GregorianCalendar_GetMonth_m523739832
mtb:__Z44InitializeTransferFunctionScriptingTraitsForI18StreamedBinaryReadILb0EEEvR31TransferFunctionScriptingTraits
jXb:__ZNSt3__218__insertion_sort_3IR23CompareReflectionProbesP31RuntimeReflectionProbeBlendInfoEEvT0_S5_T_
Tyb:__ZN12NativeBufferI27Converter_SimpleNativeClassI8GradientEE15SetupForWritingER9ArrayInfo
aga:__ZNSt3__213__stable_sortIRNS_4lessIN4core12basic_stringIcNS2_20StringStorageDefaultIcEEEEEENS_11__wrap_iterIPS6_EEEEvT0_SC_T_NS_15iterator_traitsISC_E15difference_typeEPNSF_10value_typeEi
cmf:_ReadOnlyCollection_1_System_Collections_ICollection_get_IsSynchronized_m2987885125_gshared
_2:__ZN12_GLOBAL__N_113StaticDestroyEPv
dIe:_Guid_ToString_m51661589
BBh:_Dictionary_2__ctor_m1512192236_gshared
LQh:_Text_set_font_m1095513810
MZj:_glUnmapBuffer__wrapper
N5d:_DateTime_System_IConvertible_ToUInt32_m1363211018_AdjustorThunk
IJd:_InputField_get_cachedInputTextGenerator_m881618486
aoc:__Z32Mesh_CUSTOM_ExtractArrayFromListP12Il2CppObject
Ibg:_Binder_get_DefaultBinder_m965620943
DWg:__ZL87PointerEventData_t1599784723_CustomAttributesCacheGenerator_U3CbuttonU3Ek__BackingFieldP21CustomAttributesCache
dBc:__ZN8JSONRead21TransferSTLStyleArrayINSt3__26vectorI8Gradient13stl_allocatorIS3_L18MemLabelIdentifier1ELi16EEEEEEvRT_17TransferMetaFlags
Kzf:_SecurityParameters_Clear_m3409219757
Vcb:__ZNSt3__218__insertion_sort_3IRNS_6__lessINS_4pairIPKN5Unity4TypeE7Hash128EES8_EEPS8_EEvT0_SC_T_
BAb:__ZN10RectOffset8TransferI24GenerateTypeTreeTransferEEvRT_
bQd:_SimpleEnumerator_get_Current_m482975946
PMj:_srand
fJc:__ZNK10Collider2D15GetAttachedBodyEv
Nzb:__Z18Transfer_BlittableI24GenerateTypeTreeTransferLb1E5RectTIiEEvRK29SerializationCommandArgumentsR31RuntimeSerializationCommandInfo
NPa:__ZNSt3__24listI4PPtrI6CameraENS_9allocatorIS3_EEE6removeERKS3_
uVe:_MonoTypeInfo__ctor_m1398838196
w5c:__ZN2UI13CanvasManager19RemoveDirtyRendererEPNS_6CanvasEPNS_14CanvasRendererE
hhi:_UriParser_set_DefaultPort_m1159216960
NRh:_Toggle_Rebuild_m929023818
A3i:__ZN15dense_hashtableI10KeyWrapperIPK17Il2CppGenericInstES4_N6il2cpp8metadata21Il2CppGenericInstHashEN14dense_hash_setIS4_S7_NS4_14EqualsComparerINS6_24Il2CppGenericInstCompareEEENSt3__29allocatorIS4_EEE8IdentityESB_SE_E12resize_deltaEjj
_hc:__ZN8Material14DisableKeywordERKN4core12basic_stringIcNS0_20StringStorageDefaultIcEEEE
kji:_CameraCallback_EndInvoke_m1254702166
Zad:__ZN11UnityEngine15PlatformWrapper25GetGraphicsRendererStringEv
kNg:__ZL97Transform_t3275118058_CustomAttributesCacheGenerator_Transform_INTERNAL_get_localScale_m275445901P21CustomAttributesCache
DLd:_InputField_KeyPressed_m3066588581
jPh:_Selectable_DoStateTransition_m539253088
fmd:_SHA512_Create_m439875055
X$:__ZN11UnityEngine15CloudWebService17WebFileDownloaderINS0_20WebRequestRestClientENS0_23WebRequestRestHeaderMapEED2Ev
Ub:invoke_vi
Zld:_SHA384Managed_update_m2629600295
pHc:__ZNSt3__26vectorINS0_IN10ClipperLib8IntPointENS_9allocatorIS2_EEEENS3_IS5_EEE7reserveEj
Myc:__ZN9JSONWrite8TransferI13dynamic_arrayI9BoundsIntLj4EEEEvRT_PKc17TransferMetaFlags
Sb:invoke_vd
sb:invoke_vf
O0h:_InternalEnumerator_1__ctor_m32322958_AdjustorThunk
waa:__ZNK10GameObject8IsActiveEv
FWe:_NumberFormatter__cctor_m1641464619
iUg:__ZL67g_UnityEngine_PhysicsModule_Assembly_CustomAttributesCacheGeneratorP21CustomAttributesCache
PXf:_SByte_System_IConvertible_ToUInt32_m4256495110
vxd:_PointerEventData_set_eligibleForClick_m2036057844
wva:__ZN18GfxFramebufferGLES23SetupDefaultFramebufferEPP17RenderSurfaceBaseS2_N2gl6HandleILNS3_10ObjectTypeE9EEE
rMj:_mbsinit
HVg:__ZL70EventSystem_t3466835263_CustomAttributesCacheGenerator_m_FirstSelectedP21CustomAttributesCache
b5a:__ZN13ScreenManager18RequestOrientationE17ScreenOrientation
n0i:__ZN6il2cpp2vm5Class12SetupMethodsEP11Il2CppClass
tic:__Z39DeleteLastPathNameComponentWithAnySlashRKN4core12basic_stringIcNS_20StringStorageDefaultIcEEEE
msc:__ZN10GUIManager14InitGUIManagerEv
CCg:__ZL62ApplicationException_t474868623_CustomAttributesCacheGeneratorP21CustomAttributesCache
DZg:__ZL68InputField_t1631627530_CustomAttributesCacheGenerator_m_KeyboardTypeP21CustomAttributesCache
pSh:_VerticalLayoutGroup_CalculateLayoutInputHorizontal_m497637066
SAd:_Button_get_onClick_m1595880935
wHi:_ListPool_1_Release_m3716853512_gshared
Oah:__Z134RuntimeInvoker_Int32_t2071877448_RuntimeObject_Int32_t2071877448_Int32_t2071877448_RuntimeObject_Int32_t2071877448_Int32U26_t455636984PFvvEPK10MethodInfoPvPS4_
sQf:_MethodCall__ctor_m4106494862
T6g:__Z167RuntimeInvoker_Void_t1841601450_SByte_t454417549_SByte_t454417549_SByte_t454417549_SByte_t454417549_SByte_t454417549_SByte_t454417549_SByte_t454417549_SByte_t454417549PFvvEPK10MethodInfoPvPS4_
vuc:__Z37Register_UnityEngine_GUIStyle_Cleanupv
Oa:invoke_iiifii
hqc:__Z39Register_UnityEngine_Time_set_timeScalev
Lcc:__ZN8GUILayer12AddToManagerEv
Y8i:__ZN6il2cpp6icalls8mscorlib6System8MonoType13IsPointerImplEP20Il2CppReflectionType
i2d:_Convert_ToDecimal_m2284596541
Ri:_emscripten_glFramebufferRenderbuffer
$Zb:__ZN19CullingGroupManager17CullAndSendEventsERK22SceneCullingParametersiRK13CullingOutputRK8JobFence
THg:__ZL64CipherSuiteCollection_t2431504453_CustomAttributesCacheGeneratorP21CustomAttributesCache
uoh:__Z105RuntimeInvoker_Int32_t2071877448_RuntimeObject_UILineInfo_t3621277874_Int32_t2071877448_Int32_t2071877448PFvvEPK10MethodInfoPvPS4_
NAf:_TlsServerCertificateRequest_ProcessAsSsl3_m3017921864
fMe:_Int64_GetHashCode_m4047499913
FLa:__ZN9Transform30EnsureTransformHierarchyExistsEv
Jaj:_il2cpp_field_get_flags
pV:__ZN11AudioModule26SetDefaultMicrophoneDriverEPv
Lhh:__Z52RuntimeInvoker_Vector4_t2243707581_Color_t2020392075PFvvEPK10MethodInfoPvPS4_
zQd:_Attribute_IsDefined_m216577166
DUd:_Char_ToUpper_m109978609
$Xh:_InternalEnumerator_1_get_Current_m1089848479_gshared
Cae:_Double_System_IConvertible_ToInt64_m3798425616
ezd:_StandaloneInputModule_get_repeatDelay_m3025279
v6a:__ZN14dense_hash_mapIN4core12basic_stringIcNS0_20StringStorageDefaultIcEEEE13dynamic_arrayI4PPtrI6SpriteELj4EE20StringHash32FunctionIS4_ENSt3__28equal_toIS4_EE13stl_allocatorINSC_4pairIKS4_S9_EEL18MemLabelIdentifier81ELi16EEEixERSH_
o3b:__ZNSt3__26vectorINS_4pairIN4core12basic_stringIcNS2_20StringStorageDefaultIcEEEEPK17MessageIdentifierEENS_9allocatorISA_EEE12__move_rangeEPSA_SE_SE_
nyi:_SceneManager_LoadSceneAsyncNameIndexInternal_m1250496078
sTb:__ZN14qsort_internal17MedianOfThreeSwapIP17RODataReplacement19ROSorterReplacementEEvT_S4_S4_T0_
fkh:__Z60RuntimeInvoker_FramePressState_t1414739712_Int32_t2071877448PFvvEPK10MethodInfoPvPS4_
Ndf:_Collection_1_System_Collections_IList_Insert_m3303840316_gshared
e$i:__ZNK15dense_hashtableINSt3__24pairIK10KeyWrapperIPK22Il2CppGenericParameterEP11Il2CppClassEES6_N6il2cpp5utils11PointerHashIS4_EEN14dense_hash_mapIS6_S9_SE_NS6_14EqualsComparerINS0_8equal_toIS5_EEEENS0_9allocatorISA_EEE9SelectKeyESJ_SL_E3endEv
pic:__ZN17TransformInternal36OnScaleChangedCalculateTransformTypeE15TransformAccess
XWd:_SynchronizedArrayListWrapper_InsertRange_m709359548
wHa:__ZN17ArchiveFileSystem10ToAbsoluteEPKc
xsf:_BigInteger_op_Modulus_m13450242
YSa:__ZN4PPtrI8MaterialE8TransferI18StreamedBinaryReadILb0EEEEvRT_
Mbd:__ZN19UnityConnectService15GetPlayerUserIdEv
_2d:_Convert_ToInt32_m2988544165
nqe:_Array_Resize_TisColor32_t874517518_m2219502085_gshared
ID:__ZN7mecanim6CRCKeyENS_7eStringE
oEf:_SslStreamBase_get_CanWrite_m2069502593
Gfc:__ZL12SetPrefValueRKN4core12basic_stringIcNS_20StringStorageDefaultIcEEEERK9PrefValue
Wjb:__ZL30ReconstructParamNamesFromTableIN9ShaderLab20SerializedSubProgram15MatrixParameterEEvRK14dense_hash_mapIiN4core17string_with_labelILi1EEE18SInt32HashFunctionNSt3__28equal_toIiEE13stl_allocatorINS8_4pairIKiS6_EEL18MemLabelIdentifier1ELi16EEERNS8_6vectorIT_NS8_9allocatorISL_EEEE
CZa:__ZL13SortTexByNameRKNSt3__24pairIN9ShaderLab16FastPropertyNameEN18UnityPropertySheet11UnityTexEnvEEES7_
Gzj:__ZN6il2cpp5utils11StringUtils6PrintfEPKcz
XPc:__ZN16NovodexAllocatorD0Ev
UZa:__ZN15NameToObjectMapI6ShaderNSt3__23mapI4PPtrIS0_EN4core12basic_stringIcNS5_20StringStorageDefaultIcEEEENS1_4lessIS4_EENS1_9allocatorINS1_4pairIKS4_S9_EEEEEENS1_8multimapIS9_S4_NSA_IS9_EENSC_INSD_IKS9_S4_EEEEEEE4FindERSK_
Kwh:_ShimEnumerator_Reset_m98005789_gshared
z$a:__ZN24GenerateTypeTreeTransfer21TransferResourceImageE19ActiveResourceImagePKcR13StreamingInfoPvjiPKN5Unity4TypeE
Auf:_PKCS1_Compare_m552424558
_4h:_ResourceEnumerator__ctor_m1679839941
Rnf:_ReadOnlyCollection_1_System_Collections_IList_set_Item_m1377990618_gshared
Bgg:_ILGenerator_make_room_m373147874
lEh:_Dictionary_2_Init_m1045257495_gshared
STf:_SingleCallIdentity__ctor_m1512303454
Mti:_X509Extension_get_Oid_m3620527052
WRd:_Boolean_CompareTo_m3691698947_AdjustorThunk
$je:_Array_InternalArray__IndexOf_TisKeyValuePair_2_t888819835_m2660446234_gshared
rBe:_PKCS1_Verify_v15_m2571212635
WUa:__ZNSt3__212__deque_baseI18ReflectionProbeJobNS_9allocatorIS1_EEED2Ev
eD:__ZN11UnityEngine9Animation27DestroyAnimationSetBindingsEPNS0_20AnimationSetBindingsERN7mecanim6memory9AllocatorE
akb:__ZN15dense_hashtableINSt3__24pairIKiN4core17string_with_labelILi1EEEEEi18SInt32HashFunctionN14dense_hash_mapIiS5_S7_NS0_8equal_toIiEE13stl_allocatorIS6_L18MemLabelIdentifier1ELi16EEE9SelectKeyESA_SD_E13set_empty_keyERKS6_
gL:__ZN8Animator12CleanupClassEv
xZf:_DecoderReplacementFallbackBuffer__ctor_m1305504326
bBc:__Z13TransferFieldI8JSONReadLb0E27Converter_SimpleNativeClassI10RectOffsetEEvRK23StaticTransferFieldInfoR31RuntimeSerializationCommandInfoRT1_
osd:_String_IndexOf_m570401060
rJd:_Image_CalculateLayoutInputVertical_m1340533162
mbe:_Enum_System_IConvertible_ToDateTime_m2924690746
iFd:_Dropdown_CreateBlocker_m4109366440
Jhd:_HashAlgorithm_System_IDisposable_Dispose_m2106335965
Gsj:__GLOBAL__sub_I_GenericMetadata_cpp
zWe:_NotImplementedException__ctor_m1305569814
ZSg:__ZL67GUISettings_t622856320_CustomAttributesCacheGenerator_m_CursorColorP21CustomAttributesCache
k8i:__ZN6il2cpp6icalls8mscorlib6System8MonoType18GetFields_internalEP20Il2CppReflectionTypeiS5_
N_b:__Z24CalculateSpotLightBoundsffRK10Matrix4x4fR15SpotLightBounds
ive:_TailoringInfo__ctor_m2248501932
GWa:__ZNK13RenderTexture21GetShadowSamplingModeEv
mY:__ZN23CloudWebServicesManager23VirtualRedirectTransferER14SafeBinaryRead
y6g:__Z150RuntimeInvoker_Int32_t2071877448_RuntimeObject_Int32_t2071877448_Int32_t2071877448_RuntimeObject_Int32_t2071877448_Int32_t2071877448_Int32_t2071877448PFvvEPK10MethodInfoPvPS4_
tWd:_FixedSizeArrayListWrapper_InsertRange_m2690348965
fKb:__Z19ShouldTransferFieldR32SerializationCommandQueueBuilder17ScriptingClassPtriR18TransferField_InfoRK20CoreScriptingClasses
yig:_FieldInfo_get_IsStatic_m1411173225
_gj:__ZNK15dense_hashtableINSt3__24pairIK10KeyWrapperINS1_IPK12PropertyInfoP11Il2CppClassEEEjEES9_17ReflectionMapHashIS8_EN14dense_hash_mapIS9_jSD_NS9_14EqualsComparerINS0_8equal_toIS8_EEEENS0_9allocatorISB_EEE9SelectKeyESI_SK_E12test_deletedEj
DQe:_MemoryStream_Read_m2289595005
_za:__ZN26SinglePassStereoSupportExt21SetStereoMatrixCommonE21MonoOrStereoscopicEye24BuiltinShaderMatrixParamRK10Matrix4x4f
VR:__ZN5audio5mixer22UpdateAudioMixerMemoryERKNS0_18AudioMixerConstantERNS0_16AudioMixerMemoryEfPN4FMOD6SystemEf
yQc:__ZL21InitializeCachedStripPv
Bhd:_SignatureDescription_set_DigestAlgorithm_m3219799565
Ynj:__ZN6il2cpp6icalls8mscorlib6System9Threading6Thread23GetCachedCurrentCultureEP12Il2CppThread
hQg:__ZL94PlayerEditorConnectionEvents_t2252784345_CustomAttributesCacheGenerator_messageTypeSubscribersP21CustomAttributesCache
EOh:_Selectable_get_allSelectables_m3045831006
sNa:__ZNK6Camera22GetWorldToCameraMatrixEv
jQd:_ArrayTypeMismatchException__ctor_m2892687300
svj:__ZN6il2cpp2vm12GenericClass11IsValueTypeEP18Il2CppGenericClass
W5g:__Z49RuntimeInvoker_TypeCode_t2536926201_RuntimeObjectPFvvEPK10MethodInfoPvPS4_
cJb:__ZN13MonoBehaviour7SetNameEPKc
rvf:_ContentInfo__ctor_m3579805263
Q1i:__ZN15dense_hashtableINSt3__24pairIK10KeyWrapperIPKcEP11Il2CppClassEES5_N6il2cpp5utils11StringUtils12StringHasherIS4_EEN14dense_hash_mapIS5_S8_SE_NS5_14EqualsComparerINSB_13VmStringUtils21CaseSensitiveComparerEEENS0_9allocatorIS9_EEE9SelectKeyESJ_SL_E15set_deleted_keyERKS9_
aKc:__ZN25b2PolygonAndCircleContact7DestroyEP9b2ContactP16b2BlockAllocator
MNh:_ScrollRect_get_verticalNormalizedPosition_m1701804869
D2:__GLOBAL__sub_I_runtime_shaders_shaderimpl_0_cpp
c_g:__ZL138U3CMouseDragOutsideRectU3Ec__Iterator1_t2599668326_CustomAttributesCacheGenerator_U3CMouseDragOutsideRectU3Ec__Iterator1__ctor_m1439320044P21CustomAttributesCache
ygb:__ZN18AwakeFromLoadQueue5ClearEv
Yyh:_Enumerator_get_Current_m2986380627_AdjustorThunk
qZb:__ZNSt3__27__sort5IR15ReflProbeSorterPP15ReflectionProbeEEjT0_S6_S6_S6_S6_T_
Ida:__ZN8Playable10DisconnectEPS_i
qVh:_InternalEnumerator_1_get_Current_m1526874475_AdjustorThunk
tk:_glGenTransformFeedbacks
gGa:__ZN13LoadOperationD2Ev
CJ:__ZN18StreamedBinaryReadILb0EE8TransferINSt3__24pairI8StateKey10StateRangeEEEEvRT_PKc17TransferMetaFlags
Zze:_KeyPairPersistence__ctor_m1817312194
kXi:_Canvas_set_scaleFactor_m3986864146
ufe:_Array_InternalArray__ICollection_Contains_TisMark_t2724874473_m1640201705_gshared
_6h:_ActivatedClientTypeEntry_get_ContextAttributes_m53051138
VMb:__Z21PlayerStartFirstSceneb
qeg:_TypeBuilder_get_AssemblyQualifiedName_m2097258567
HZa:__ZNSt3__27__sort5IRPFbRKNS_4pairIN9ShaderLab16FastPropertyNameEN18UnityPropertySheet11UnityTexEnvEEES8_EPS6_EEjT0_SD_SD_SD_SD_T_
pna:__ZNK7ApiGLES18GetExtensionStringEv
Cya:__ZN31TransformFeedbackSkinPoseBufferD0Ev
bVj:_emscripten_glVertexAttrib1f__wrapper
CLh:_RaycastAllCallback__ctor_m3281594834
tqb:__ZNK12HandlerChain4SizeERK13FileEntryData
gFh:_DefaultComparer_Equals_m1281232537_gshared
Mqg:__ZL99RuntimeFieldHandle_t2331729674_CustomAttributesCacheGenerator_RuntimeFieldHandle_Equals_m1202966418P21CustomAttributesCache
bp:FUNCTION_TABLE_iiiiiiiii
QKd:_InputField_set_asteriskChar_m619206227
$Yf:_DES_IsSemiWeakKey_m3967392585
QDc:__Z22GetPhysicsGroundBody2Dv
IVi:_Comparison_1__ctor_m2159122699_gshared
MIe:_Int16_System_IConvertible_ToUInt32_m883204517_AdjustorThunk
Rlg:_MonoProperty_get_PropertyType_m1921201152
CDd:_FloatTween_TweenValue_m3881535116_AdjustorThunk
nCj:_GC_allochblk
Ngb:__Z15UnloadGameScenev
HZj:_glCheckFramebufferStatus__wrapper
bbh:__Z43RuntimeInvoker_Boolean_t3825574718_IntPtr_tPFvvEPK10MethodInfoPvPS4_
tfb:__ZNSt3__26vectorIN30RuntimeInitializeOnLoadManager15ClassMethodInfoE13stl_allocatorIS2_L18MemLabelIdentifier13ELi16EEE7reserveEj
EPg:__ZL59WriteOnlyAttribute_t14323075_CustomAttributesCacheGeneratorP21CustomAttributesCache
XFj:__ZN6il2cpp2vm6Atomic9IncrementEPVi
Oij:__ZN15dense_hashtableINSt3__24pairIK10KeyWrapperIPK14Il2CppAssemblyEPK22Il2CppMonoAssemblyNameEES6_N6il2cpp5utils11PointerHashIS4_EEN14dense_hash_mapIS6_SA_SF_NS6_14EqualsComparerINS0_8equal_toIS5_EEEENS0_9allocatorISB_EEE9SelectKeyESK_SM_E5clearEv
OK:__ZN16MecanimAnimationD0Ev
Crf:_BigInteger_get_Rng_m2525288368
LMf:_X509ExtensionEnumerator_Reset_m3200687545
IXd:_CaseInsensitiveHashCodeProvider__ctor_m3775398833
cwi:_Rect_get_width_m3473344679
vmc:__Z36Renderer_Get_Custom_PropSortingOrderP12Il2CppObject
wJi:_GUIContent__cctor_m976962423
gfj:__ZNK15dense_hashtableINSt3__24pairIK10KeyWrapperIPK10Il2CppTypeEjEES6_N6il2cpp8metadata14Il2CppTypeHashEN14dense_hash_mapIS6_jSB_NS6_14EqualsComparerINSA_26Il2CppTypeEqualityComparerEEENS0_9allocatorIS8_EEE9SelectKeyESF_SH_E13find_positionERS7_
wWa:__ZN7Texture5ResetEv
fDc:__ZNK14b2CapsuleShape7RayCastEP15b2RayCastOutputRK14b2RayCastInputRK11b2Transformi
czb:__Z18Transfer_BlittableI24GenerateTypeTreeTransferLb1EhEvRK29SerializationCommandArgumentsR31RuntimeSerializationCommandInfo
q9a:__ZN10VertexData10DeallocateEv
Kcj:__ZNSt3__214__split_bufferIiRNS_9allocatorIiEEEC2EjjS3_
akc:__ZNK16TypeTreeIterator10ByteOffsetEv
tGd:_Graphic_get_rectTransform_m2697395074
Rca:__ZnwjRKSt9nothrow_t
BG:__ZN8Animator11ClearObjectEv
uhh:__Z55RuntimeInvoker_Boolean_t3825574718_Playable_t1896841784PFvvEPK10MethodInfoPvPS4_
OJf:_X500DistinguishedName_Decode_m3070515374
oYa:__ZN14SafeBinaryRead19TransferSTLStyleMapINSt3__23mapI39DeprecatedFastPropertyNameSerializationN18UnityPropertySheet11UnityTexEnvENS1_4lessIS3_EENS1_9allocatorINS1_4pairIKS3_S5_EEEEEEEEvRT_17TransferMetaFlags
FHf:_IPv6Address_set_ScopeId_m1442934355
fHc:__ZNSt3__27__sort4IRPFbPN10ClipperLib13IntersectNodeES3_EPS3_EEjT0_S8_S8_S8_T_
zrg:__ZL72PKCS12_t1362584794_CustomAttributesCacheGenerator_U3CU3Ef__switchU24mapBP21CustomAttributesCache
eWf:_ObjectManager_RaiseOnDeserializedEvent_m512850179
iQg:__ZL87PlayerEditorConnectionEvents_t2252784345_CustomAttributesCacheGenerator_connectionEventP21CustomAttributesCache
Xjc:__Z35UnregisterSerializationCacheBuilderPFv17ScriptingClassPtrR23CachedSerializationDataRbE
iOa:__Z30GetBuiltinVectorParamArraySize24BuiltinShaderVectorParam
nej:__ZNSt3__218uninitialized_copyIPNS_4pairIK10KeyWrapperINS1_IPK14Il2CppAssemblyP11Il2CppClassEEEjEESC_EET0_T_SE_SD_
Vue:_CodePointIndexer__ctor_m797342079
sRg:__ZL93TextGenerator_t647235000_CustomAttributesCacheGenerator_TextGenerator_Dispose_cpp_m1011672971P21CustomAttributesCache
EZg:__ZL64InputField_t1631627530_CustomAttributesCacheGenerator_m_LineTypeP21CustomAttributesCache
Jzg:__ZL61KeyedHashAlgorithm_t1374150027_CustomAttributesCacheGeneratorP21CustomAttributesCache
k2a:__ZN18StreamedBinaryReadILb0EE21TransferSTLStyleArrayI13dynamic_arrayI7Hash128Lj8EEEEvRT_17TransferMetaFlags
fXg:__ZL103PointerEventData_t1599784723_CustomAttributesCacheGenerator_PointerEventData_set_clickCount_m2095939005P21CustomAttributesCache
$2a:__ZN21RendererUpdateManager11AddRendererER8Renderer
O7b:__Z13RegisterClassI15ResourceManagerEvv
wWf:_SerializationEntry_t3485203212_marshal_pinvoke_back
Pjh:__Z78RuntimeInvoker_Void_t1841601450_RuntimeObject_RuntimeObject_RectU26_t844847526PFvvEPK10MethodInfoPvPS4_
Wtb:__Z35Transfer_Blittable_FixedBufferFieldI14SafeBinaryReadsEvRK29SerializationCommandArgumentsR31RuntimeSerializationCommandInfo
v8a:__ZN14SafeBinaryRead21TransferSTLStyleArrayI13dynamic_arrayIfLj4EEEEvRT_17TransferMetaFlags
hCg:__ZL79Thread_t241561612_CustomAttributesCacheGenerator_Thread_GetHashCode_m2038641494P21CustomAttributesCache
Hzj:__ZN6il2cpp5utils11StringUtils11Utf16ToUtf8EPKDs
Yeb:__ZN18StreamedBinaryReadILb0EE21TransferSTLStyleArrayINSt3__26vectorIN15ResourceManager10DependencyE13stl_allocatorIS5_L18MemLabelIdentifier52ELi16EEEEEEvRT_17TransferMetaFlags
obd:__ZN11UnityEngine15PlatformWrapper20IsRootedOrJailbrokenEv
YPb:__ZZ23InitPlayerLoopCallbacksvEN52PreLateUpdateScriptRunBehaviourLateUpdateRegistrator7ForwardEv
oKf:_X509Certificate2_GetNameInfo_m402390219
J_b:__Z33IntersectAABBPlaneBoundsOptimizedRK4AABBPKN4math7_float4Ei
gQd:_Swapper_BeginInvoke_m2652511022
Mwi:_RectOffset_t3387826427_marshal_pinvoke_back
zrh:__Z54RuntimeInvoker_UriScheme_t1876590943_Int32_t2071877448PFvvEPK10MethodInfoPvPS4_
P1b:__ZN19ScriptingInvocation6InvokeI28ScriptingSystemTypeObjectPtrEET_P21ScriptingExceptionPtrb
Bia:__ZN9GfxDevice19EndGeometryJobFrameEv
Yyb:__ZN27Converter_SimpleNativeClassI17AnimationCurveTplIfEE17ScriptingToNativeER18ScriptingObjectPtrPS1_
XHj:__ZN6il2cpp8metadata24Il2CppGenericInstCompare7CompareERK10KeyWrapperIPK17Il2CppGenericInstES8_
vmh:__Z36RuntimeInvoker_Enumerator_t132208513PFvvEPK10MethodInfoPvPS4_
y2i:__ZNK15dense_hashtableINSt3__24pairIK10KeyWrapperIPK19Il2CppGenericMethodEPK26Il2CppGenericMethodIndicesEES6_N6il2cpp8metadata23Il2CppGenericMethodHashEN14dense_hash_mapIS6_SA_SE_NS6_14EqualsComparerINSD_26Il2CppGenericMethodCompareEEENS0_9allocatorISB_EEE9SelectKeyESI_SK_E5beginEv
KGd:_Graphic_get_materialForRendering_m2600868951
pKj:_TimerFinScript_Start_m2880519496
Xw:__ZN27AnimationLayerMixerPlayable21UpdateLayerParametersEv
eAf:_TlsClientSettings_get_ClientCertificate_m89435195
gzg:__ZL61AsymmetricAlgorithm_t784058677_CustomAttributesCacheGeneratorP21CustomAttributesCache
wfc:__ZN9Polygon2D7DefaultEv
Fgg:__ZN21InterfaceFuncInvoker1IiP12MemberInfo_tE6InvokeEjP11Il2CppClassP12Il2CppObjectS1_
gff:_Collection_1_System_Collections_IList_Contains_m3210868188_gshared
kei:_AnchorInfo_get_IgnoreCase_m2406760852
m9b:__ZNK17AnimationCurveTplIfE8EvaluateEfPNS0_5CacheE
aPb:__Z31ManagerContextInitializeClassesv
n8i:__ZNSt3__213__vector_baseIP9FieldInfoNS_9allocatorIS2_EEED2Ev
PJe:_NumberFormatter_AppendIntegerString_m868842252
IVc:_ft_smooth_transform
qsg:__ZL53SortedList_t3004938869_CustomAttributesCacheGeneratorP21CustomAttributesCache
nTc:_UNITY_FT_List_Finalize
GHj:__ZN6il2cpp6icalls8mscorlib6System7Runtime8Remoting10Activation18ActivationServices34AllocateUninitializedClassInstanceEP20Il2CppReflectionType
vUb:__Z20LightAttenuateApproxRKfS0_
mDa:__ZN9Scripting30SetCachedPtrOnScriptingWrapperE18ScriptingObjectPtrP6Object
uCb:__Z18Transfer_BlittableI19StreamedBinaryWriteILb0EELb0EdEvRK29SerializationCommandArgumentsR31RuntimeSerializationCommandInfo
D1:__ZN17LowLevelAllocator6MallocEj
Ktd:_ASCIIEncoding_GetBytes_m3649277167
bDh:_Dictionary_2__ctor_m2457723796_gshared
FFc:__ZN16b2PrismaticJoint4DumpEv
oK:__ZN7mecanim9animation21BlendTreeNodeConstant8TransferI19StreamedBinaryWriteILb0EEEEvRT_
gSa:__ZN18BlockRangeInternal16PopLastNodeIndexEP10BlockRangeji
Y9f:_Version__ctor_m2972638031
mye:_Kernel_MultiplyByDword_m155008287
R7a:__ZN4MeshD0Ev
V9g:__Z121RuntimeInvoker_Void_t1841601450_Int64_t909078037_RuntimeObject_RuntimeObject_Int64_t909078037_RuntimeObject_RuntimeObjectPFvvEPK10MethodInfoPvPS4_
Fgd:__ZL42RequestRecreateEyeTexturesBeforeNextUpdatev
bAh:_ValueCollection_System_Collections_Generic_ICollectionU3CTValueU3E_get_IsReadOnly_m3005456072_gshared
jnf:_ReadOnlyCollection_1_System_Collections_ICollection_get_SyncRoot_m1577944046_gshared
rma:__ZNK6Camera20IsCurrentlyRenderingEv
My:__ZN21AnimationClipPlayable23ProcessRootMotionNoClipEPK35AnimationPlayableEvaluationConstantPK32AnimationPlayableEvaluationInputP33AnimationPlayableEvaluationOutput
i8c:__Z36CanvasRenderer_CUSTOM_SetPopMaterialP12Il2CppObjectS0_i
_zg:__ZL58RijndaelManaged_t1034060848_CustomAttributesCacheGeneratorP21CustomAttributesCache
acj:_UpdatedEventHandler_Invoke_m4240581743
Exc:__Z18Transfer_BlittableI9JSONWriteLb0EdEvRK29SerializationCommandArgumentsR31RuntimeSerializationCommandInfo
aFc:__ZNK11b2GearJoint16GetReactionForceEf
HRe:_TextReader__ctor_m3276128267
c1e:_List_1_System_Collections_Generic_ICollectionU3CTU3E_get_IsReadOnly_m3598018290_gshared
oJ:__ZN15SerializeTraitsI9OffsetPtrIN7mecanim9animation17BlendTreeConstantEEE8TransferI24GenerateTypeTreeTransferEEvRS4_RT_
SRh:_Toggle_OnDidApplyAnimationProperties_m325835214
gLj:_wctomb
Fhh:__Z55RuntimeInvoker_Void_t1841601450_Matrix4x4U26_t266301477PFvvEPK10MethodInfoPvPS4_
dlc:__Z27Camera_CUSTOM_GetAllCamerasP11Il2CppArray
dJb:__ZNK13MonoBehaviour25GetNeedsPerObjectTypeTreeEv
gGb:__Z35Transfer_Blittable_FixedBufferFieldI18StreamedBinaryReadILb0EEiEvRK29SerializationCommandArgumentsR31RuntimeSerializationCommandInfo
I$d:_Convert_InternalFromBase64String_m3682756716
_c:___cxa_rethrow
aMg:__ZL79Sprite_t309593783_CustomAttributesCacheGenerator_Sprite_get_texture_m1594695778P21CustomAttributesCache
hzc:__Z18Transfer_BlittableI8JSONReadLb1EhEvRK29SerializationCommandArgumentsR31RuntimeSerializationCommandInfo
dMc:__ZN18Overlap2DQueryBase13ReportFixtureEP9b2Fixture
RSg:__ZL86GUI_t4082743951_CustomAttributesCacheGenerator_U3CnextScrollStepTimeU3Ek__BackingFieldP21CustomAttributesCache
Ihc:__ZN10systeminfo23SupportsLocationServiceEv
Gjh:__Z48RuntimeInvoker_Void_t1841601450_Rect_t3681755626PFvvEPK10MethodInfoPvPS4_
u4f:_TimeSpan_Add_m3228293154
jFh:_DefaultComparer_Equals_m4098991076_gshared
D1b:__ZN13MonoBehaviour8SetClassE17ScriptingClassPtr18ScriptingObjectPtr
Yuf:_RC4__cctor_m523650203
W9h:_CrossContextDelegate_Invoke_m2908136830
XKi:_Locale_GetText_m3480617287
nFe:_ApplicationIdentity_ToString_m800036884
hrb:__ZN20LocalFileSystemPosix4ReadER13FileEntryDatayyPvPy
XXb:__ZNSt3__211__sift_downIRN23ForwardShaderRenderLoop18RenderObjectSorterILb0EEEP21ForwardRenderPassDataEEvT0_S7_T_NS_15iterator_traitsIS7_E15difference_typeES7_
GTe:_UnmanagedMemoryStream_get_Position_m4093669769
Rxg:__ZL83MethodDictionary_t1742974787_CustomAttributesCacheGenerator_U3CU3Ef__switchU24map21P21CustomAttributesCache
p9g:__Z90RuntimeInvoker_Void_t1841601450_IntPtr_t_RuntimeObject_Int32_t2071877448_Int32_t2071877448PFvvEPK10MethodInfoPvPS4_
sJb:__ZN13MonoBehaviour5DoGUIENS_13GUILayoutTypeEii
isf:_Kernel_Multiply_m1938858919
keg:_DerivedType_IsDefined_m555719351
abi:_Mark_get_IsDefined_m3332701456
XEa:__ZNK12TLSAllocatorI14StackAllocatorE8ContainsEPKv
Acb:__ZN11TimeManager8TransferI18StreamedBinaryReadILb0EEEEvRT_
Vob:__ZN15SerializeTraitsINSt3__23mapI4PPtrI6ShaderEN4core12basic_stringIcNS5_20StringStorageDefaultIcEEEENS0_4lessIS4_EENS0_9allocatorINS0_4pairIKS4_S9_EEEEEEE8TransferI24GenerateTypeTreeTransferEEvRSH_RT_
sBe:_EncryptedPrivateKeyInfo__ctor_m3964541963
kZf:_DESTransform__cctor_m1179482644
YGh:_EqualityComparer_1_System_Collections_IEqualityComparer_GetHashCode_m1465362976_gshared
kqi:_Object_t1021602117_marshal_pinvoke_cleanup
c8a:__ZN14BlendShapeData8TransferI14SafeBinaryReadEEvRT_
xbe:_Enum_Format_m2294492821
aDg:__ZL81Convert_t2607082565_CustomAttributesCacheGenerator_Convert_ToDateTime_m3810846875P21CustomAttributesCache
k$a:__ZN7Texture25ReloadFromStorageIfNeededEPvb
ywc:__Z35Transfer_Blittable_FixedBufferFieldI9JSONWritehEvRK29SerializationCommandArgumentsR31RuntimeSerializationCommandInfo
wag:_OverflowException__ctor_m2564269836
Uwh:_ShimEnumerator_get_Entry_m2332479818_gshared
tvd:_BaseRaycaster_get_priority_m247683215
t6d:_DateTime_CheckDateTimeKind_m329345155_AdjustorThunk
R1c:_Update_Max
knj:__ZN6il2cpp6icalls8mscorlib6SystemL15ThrowNoWideningEv
u9b:__ZNK23TransformChangeDispatch24GetChangeMaskForInterestENS_12InterestTypeE
wqc:__Z45Transform_CUSTOM_INTERNAL_CALL_TransformPointP12Il2CppObjectRK8Vector3fRS1_
Qef:__ZN23InterfaceActionInvoker2Ii18Color32_t874517518E6InvokeEjP11Il2CppClassP12Il2CppObjectiS0_
B5b:__ZL10KeyHandleriPK23EmscriptenKeyboardEventPv
kJc:__ZN15dense_hashtableINSt3__24pairIKNS1_IPK10Collider2DS4_EE11Collision2DEES5_NS2_23ColliderPairHashFunctorEN14dense_hash_mapIS5_S7_S9_NS0_8equal_toIS5_EE13stl_allocatorIS8_L18MemLabelIdentifier67ELi16EEE9SelectKeyESC_SF_EC2ERKSI_j
GYa:__ZNSt3__26__treeINS_12__value_typeI39DeprecatedFastPropertyNameSerializationfEENS_19__map_value_compareIS2_S3_NS_4lessIS2_EELb1EEENS_9allocatorIS3_EEE7destroyEPNS_11__tree_nodeIS3_PvEE
AXc:_tt_cmap4_char_index
TYh:_InternalEnumerator_1__ctor_m2582404099_gshared
V4f:_TimeSpan_op_Addition_m3421801803
Dqb:__ZNK12HandlerChain8IsHiddenERK13FileEntryData
YYg:__ZL50Graphic_t2426225576_CustomAttributesCacheGeneratorP21CustomAttributesCache
myb:__ZL26Transfer_SimpleNativeClassI17RemapPPtrTransfer10RectOffsetLb0EEvRK29SerializationCommandArgumentsR31RuntimeSerializationCommandInfo
QTc:__Z14ValidateFormatR13dynamic_arrayIN20TextRenderingPrivate16TextFormatChangeELj4EE
Yt:__ZNSt3__26vectorIN13AnimationClip15QuaternionCurveE13stl_allocatorIS2_L18MemLabelIdentifier26ELi16EEE6assignINS_11__wrap_iterIPS2_EEEENS_9enable_ifIXaasr21__is_forward_iteratorIT_EE5valuesr16is_constructibleIS2_NS_15iterator_traitsISC_E9referenceEEE5valueEvE4typeESC_SC_
tsh:__Z114RuntimeInvoker_Int32_t2071877448_CustomAttributeTypedArgument_t1498197914_CustomAttributeTypedArgument_t1498197914PFvvEPK10MethodInfoPvPS4_
Q1e:_List_1__ctor_m2672294496_gshared
p5d:_DateTime_System_IConvertible_ToInt32_m2789391054_AdjustorThunk
Jgh:__Z73RuntimeInvoker_Single_t2076509932_Vector3_t2243707580_Vector3_t2243707580PFvvEPK10MethodInfoPvPS4_
Wye:_ASN1Convert_FromInt32_m1541043489
yyd:_PointerInputModule_ProcessMove_m3200120346
p0d:_Convert_ToByte_m1008221737
Ztf:_MD2Managed_MD2Transform_m3825201358
Vff:_Collection_1_System_Collections_IList_IndexOf_m3976312928_gshared
E_g:__ZL69Scrollbar_t3248359358_CustomAttributesCacheGenerator_m_OnValueChangedP21CustomAttributesCache
EXe:_KeyValuePair_2__ctor_m3201181706_gshared
NGc:__ZN10ClipperLib14PointInPolygonERKNS_8IntPointEPNS_5OutPtE
NEd:_Dropdown_AddOptions_m835420907
IWg:__ZL107PointerEventData_t1599784723_CustomAttributesCacheGenerator_PointerEventData_get_rawPointerPress_m448871540P21CustomAttributesCache
eOa:__ZNK9ShaderLab20ShaderBlendStateDesc15ToGfxBlendStateEPK19ShaderPropertySheetS3_R13GfxBlendState
hsg:__ZL92Hashtable_t909839986_CustomAttributesCacheGenerator_Hashtable_t909839986____hcp_PropertyInfoP21CustomAttributesCache
ZBd:_CanvasUpdateRegistry_IsRebuildingLayout_m1677873278
JC:__ZN11UnityEngine9AnimationL22GenericBindingCallbackEPvS1_i
B1c:_Compute_Point_Displacement
Cob:__ZN9ShaderLab9IntShaderC2Ev
d9i:__ZN6il2cpp6icalls8mscorlib6SystemL9IsPrivateEPK9EventInfo
zGj:__ZN6il2cpp6icalls8mscorlib6System10Reflection4Emit11TypeBuilder20setup_internal_classEP27Il2CppReflectionTypeBuilderS7_
pWh:_InternalEnumerator_1_System_Collections_IEnumerator_Reset_m3237341717_AdjustorThunk
ETh:_ArrayReadOnlyList_1_IndexOf_m1809425308_gshared
Raj:_il2cpp_gc_disable
Ivc:__ZN5Unity9rapidjson6WriterI16TempBufferWriterNS0_4UTF8IcEES4_13JSONAllocatorE11WriteUint64Ey
fxd:_ExecuteEvents_U3Cs_HandlerListPoolU3Em__0_m2903690915
xZd:_Hashtable_Clone_m165405752
IFc:__ZN16b2PrismaticJoint24SolveVelocityConstraintsERK12b2SolverData
Sug:__ZL61CallingConventions_t1097349142_CustomAttributesCacheGeneratorP21CustomAttributesCache
Q_i:__ZN13Il2CppHashMapIPK22Il2CppGenericParameterP11Il2CppClassN6il2cpp5utils11PointerHashIS1_EENSt3__28equal_toIS2_EENS9_9allocatorINS9_4pairIK10KeyWrapperIS2_ES4_EEEEEC2EjRKS8_RKSB_
zAc:__ZN8JSONRead21TransferSTLStyleArrayI31ArrayOfManagedObjectsTransfererEEvRT_17TransferMetaFlags
RXg:__ZL144U3CStartU3Ec__Iterator0_t3220237554_CustomAttributesCacheGenerator_U3CStartU3Ec__Iterator0_System_Collections_IEnumerator_get_Current_m290565900P21CustomAttributesCache
fKa:__Z15CreateDirectoryRKN4core12basic_stringIcNS_20StringStorageDefaultIcEEEE
LVa:__Z21CalculateGlobalMatrix23TransformAccessReadOnly
brg:__ZL70InternalsVisibleToAttribute_t1037732567_CustomAttributesCacheGeneratorP21CustomAttributesCache
Fcb:__ZNK13BuildSettings22GetTypeVirtualInternalEv
nOe:_MonoIO_GetCurrentDirectory_m1509324201
amd:_SHA384Managed_adjustByteCounts_m410900820
J0f:_UTF32Encoding_GetHashCode_m4205784236
qDb:__Z35Transfer_Blittable_FixedBufferFieldI18StreamedBinaryReadILb1EEhEvRK29SerializationCommandArgumentsR31RuntimeSerializationCommandInfo
k1d:_DateTime_ToUniversalTime_m1815024752
$Xg:__ZL73U3COnFinishSubmitU3Ec__Iterator0_t99135383_CustomAttributesCacheGeneratorP21CustomAttributesCache
M7b:__Z13RegisterClassI14RenderSettingsEvv
k0b:__ZNK25CameraStackRenderingState25CalculateCameraTargetTypeEv
YEj:_GC_set_on_event
fth:__Z80RuntimeInvoker_Boolean_t3825574718_Navigation_t1571958496_Navigation_t1571958496PFvvEPK10MethodInfoPvPS4_
ecf:_Collection_1_ConvertItem_m3563206219_gshared
S4f:_TimeSpan_Subtract_m3597791685_AdjustorThunk
nkg:_MonoCMethod_get_Name_m764669486
$A:__ZN7mecanim12statemachine24CreateStateMachineOutputEPKNS0_20StateMachineConstantEjRNS_6memory9AllocatorE
qvj:__ZN6il2cpp2vm12GenericClass8GetClassEP18Il2CppGenericClass
aja:__ZNK9GfxDevice27GetActiveRenderSurfaceWidthEv
jah:__Z45RuntimeInvoker_SerializationEntry_t3485203212PFvvEPK10MethodInfoPvPS4_
$ad:__ZN11UnityEngine15PlatformWrapper28GetCleanGraphicsFixedVersionEv
_rb:__ZN16MemoryFileSystem5WriteER13FileEntryDatayyPvPy
w:tempBigIntP
WTi:__ZL25UnresolvedVirtualCall_210P12Il2CppObjecti38CustomAttributeNamedArgument_t94157543PK10MethodInfo
qdj:__ZN6il2cpp2vm4Type7GetTypeEPK10Il2CppType
LOf:_Interval_t2354235237_marshal_pinvoke_cleanup
GNc:__ZN23ColliderTilingExtensionD0Ev
i6b:__ZN16SpriteRenderData28PrepareRenderingDataIfNeededEv
lQd:_AssemblyLoadEventHandler_Invoke_m108373765
xyd:_PointerInputModule_ShouldStartDrag_m4163638715
tYg:__ZL61Dropdown_t1985816271_CustomAttributesCacheGenerator_m_OptionsP21CustomAttributesCache
wRi:__ZL24UnresolvedVirtualCall_76P12Il2CppObjectPK10MethodInfo
Ksa:__ZN6prcoreL17RemapGenericFloatI18TexFormatRGBAFloat17TexFormatRGBAHalfEEvPKNS_9InnerInfoE
y3g:__Z66RuntimeInvoker_Boolean_t3825574718_RuntimeObject_Int32_t2071877448PFvvEPK10MethodInfoPvPS4_
zQb:__Z16FindCameraStacksRKNSt3__24listI4PPtrI6CameraENS_9allocatorIS3_EEEERNS_6vectorI11CameraStackNS4_ISA_EEEE
ZRi:__ZL25UnresolvedVirtualCall_105P12Il2CppObjectiiaS0_PK10MethodInfo
K1a:__ZN10GISettings8TransferI14SafeBinaryReadEEvRT_
xn:FUNCTION_TABLE_vifff
aof:_ReadOnlyCollection_1_System_Collections_Generic_ICollectionU3CTU3E_Remove_m2957273994_gshared
v2b:__ZN19CustomRenderTexture12ClearGPUDataEv
nvd:_BaseInputModule_ShouldActivateModule_m2899747874
qsh:__Z86RuntimeInvoker_Int32_t2071877448_DateTimeOffset_t1362988906_DateTimeOffset_t1362988906PFvvEPK10MethodInfoPvPS4_
FWa:__ZN13RenderTexture13ApplySettingsEv
HBg:__ZL92UTF8Encoding_t111055448_CustomAttributesCacheGenerator_UTF8Encoding_GetByteCount_m2547312609P21CustomAttributesCache
zSj:_glVertexAttrib4f__wrapper
Xe:_JS_Sound_SetListenerPosition
pn:FUNCTION_TABLE_fiffi
Bhg:_ModuleBuilderTokenGenerator_GetToken_m3427457873
_7c:__Z55Register_UnityEngine_CanvasGroup_get_ignoreParentGroupsv
TOh:_Selectable_get_isPointerInside_m3162215687
zje:_Array_FindIndex_TisRuntimeObject_m4149904176_gshared
c0e:_List_1_System_Collections_IList_Contains_m149594880_gshared
Drj:__ZNK15dense_hashtableINSt3__24pairIK10KeyWrapperINS1_IPKcS4_EEEiEES6_24NamespaceAndNamePairHashN14dense_hash_mapIS6_iS9_NS6_14EqualsComparerI26NamespaceAndNamePairEqualsEENS0_9allocatorIS8_EEE9SelectKeyESD_SF_E10test_emptyERK24dense_hashtable_iteratorIS8_S6_S9_SH_SD_SF_E
IDg:__ZL78Convert_t2607082565_CustomAttributesCacheGenerator_Convert_ToSByte_m2585959569P21CustomAttributesCache
yqh:__Z77RuntimeInvoker_Void_t1841601450_Int32_t2071877448_PlayableBinding_t2498078091PFvvEPK10MethodInfoPvPS4_
D9f:_UnauthorizedAccessException__ctor_m3480402128
jye:_BigInteger_op_Modulus_m3788401748
Vda:__ZZN15DirectorManager15InitializeClassEvEN45FixedUpdateDirectorFixedSampleTimeRegistrator7ForwardEv
wai:_ArgInfo_GetInOutArgs_m3184132151
Iib:__ZNK8Material16MarkDependenciesER27GarbageCollectorThreadState
dCg:__ZL85Thread_t241561612_CustomAttributesCacheGenerator_Thread_get_CurrentThread_m3667342817P21CustomAttributesCache
nJc:__ZN15dense_hashtableINSt3__24pairIKNS1_IPK10Collider2DS4_EE11Collision2DEES5_NS2_23ColliderPairHashFunctorEN14dense_hash_mapIS5_S7_S9_NS0_8equal_toIS5_EE13stl_allocatorIS8_L18MemLabelIdentifier67ELi16EEE9SelectKeyESC_SF_E5clearEv
Hxc:__ZL17Transfer_GUIStyleI9JSONWriteLb0EEvRK29SerializationCommandArgumentsR31RuntimeSerializationCommandInfo
nVb:__Z28GetHaloVertexPositionsStereoP8Vector3fRKS_S2_f
zta:__ZN6prcoreL27StretchGenericFloatBilinearI15TexFormatRGHalfEEvPKNS_9InnerInfoE
gZe:_Enumerator_MoveNext_m598197344_AdjustorThunk
y2:__GLOBAL__sub_I_runtime_misc_0_cpp
Gr:__ZN13AnimationClip23VirtualRedirectTransferER18StreamedBinaryReadILb0EE
HUi:_TextGenerationSettings_t2543476768_marshal_pinvoke_back
Wsh:__Z36RuntimeInvoker_Enumerator_t442692252PFvvEPK10MethodInfoPvPS4_
ctd:_String_JoinUnchecked_m1880555587
kOa:__ZNK9ShaderLab7Program21GetMatchingSubProgramEPK6ShaderPKNS_4PassERK16ShaderKeywordSetjPS7_R19ShaderSnippetResult
Ene:_Array_InternalArray__Insert_TisKeyValuePair_2_t1174980068_m2464431954_gshared
Toc:__Z49Register_UnityEngine_Resources_GetBuiltinResourcev
Bei:_BalancingGroup_set_Balance_m3452171919
MXc:_tt_cmap10_char_index
JEd:_Dropdown_Awake_m335654827
Jca:__Z18GetITerrainManagerv
QDh:_Dictionary_2_U3CCopyToU3Em__0_m1479035402_gshared
pXd:_BitArray_set_Item_m3801461194
mzd:_StandaloneInputModule_get_cancelButton_m1563746440
s$i:__ZN15dense_hashtableINSt3__24pairIK10KeyWrapperIPK22Il2CppGenericParameterEP11Il2CppClassEES6_N6il2cpp5utils11PointerHashIS4_EEN14dense_hash_mapIS6_S9_SE_NS6_14EqualsComparerINS0_8equal_toIS5_EEEENS0_9allocatorISA_EEE9SelectKeyESJ_SL_E3endEv
Nsd:_String_Remove_m3580114465
PKi:_GUIUtility_EndGUIFromException_m3100752188
uVc:_UNITY_FT_Destroy_Class_cff_field_handlers
MW:__ZN11AudioSource24ClearExtensionPropertiesE12PropertyName
Vmb:__ZN9ShaderLab22SerializedBindChannels8TransferI19StreamedBinaryWriteILb0EEEEvRT_
xwb:__ZN15SerializeTraitsI5RectTIiEE8TransferI14SafeBinaryReadEEvRS1_RT_
Rch:__Z82RuntimeInvoker_Int32_t2071877448_RuntimeObject_Int32_t2071877448_Int16_t4041245914PFvvEPK10MethodInfoPvPS4_
ptc:__ZN5IMGUI20MoveWindowFromLayoutER8GUIStateiRK5RectTIfE
h7h:_UrlAttribute_get_UrlValue_m3448699483
tTc:_UNITY_FT_Stream_ReadUShort
bLd:_InputField_OnEnable_m3797157569
bnc:__Z51Register_UnityEngine_GUILayer_INTERNAL_CALL_HitTestv
nYa:__ZNSt3__26__treeINS_12__value_typeIN4core12basic_stringIcNS2_20StringStorageDefaultIcEEEES6_EENS_19__map_value_compareIS6_S7_NS_4lessIS6_EELb1EEE13stl_allocatorIS7_L18MemLabelIdentifier1ELi16EEE7destroyEPNS_11__tree_nodeIS7_PvEE
qWi:_Nullable_1__ctor_m796575255_gshared
NAj:__ZN6il2cpp2vm8Profiler7GCEventE13Il2CppGCEvent
z5d:_DateTimeUtils_ToString_m3878360633
Ylj:__ZN15dense_hashtableINSt3__24pairIK10KeyWrapperIP11Il2CppClassES4_EES5_N6il2cpp8metadata16SZArrayClassHashEN14dense_hash_mapIS5_S4_SA_NS5_14EqualsComparerINS9_19SZArrayClassCompareEEENS0_9allocatorIS7_EEE9SelectKeyESE_SG_E4findERS6_
jnj:__ZN6il2cpp6icalls8mscorlib6SystemL16ThrowInvalidCastEPK11Il2CppClassS5_
Goa:__Z13IsDepthFormat14GraphicsFormat
Pdb:__ZN12AspectRatios8TransferI24GenerateTypeTreeTransferEEvRT_
Ezd:_StandaloneInputModule_ForceAutoSelect_m1167170508
kii:_Bounds_GetHashCode_m458298790
MUh:_InternalEnumerator_1_MoveNext_m1636015243_gshared
bQc:__Z12FormatBufferPciPKcz
Pzd:_TouchInputModule_Process_m1373751353
fRc:__ZN15SerializeTraitsI13dynamic_arrayI4PPtrIN13TextRendering4FontEELj4EEE19ResizeSTLStyleArrayERS5_i
Ugg:_MethodBuilder_Invoke_m1874904900
E$i:__ZN6il2cpp2vm5Class13GetArrayClassEP11Il2CppClassj
$Mb:__ZN19RuntimeSceneManager18LoadSceneAsyncIntoER10UnitySceneRKN4core12basic_stringIcNS2_20StringStorageDefaultIcEEEENS_11LoadingModeEb
Xdg:_DerivedType_InvokeMember_m4149586013
DBg:__ZL88UTF7Encoding_t741406939_CustomAttributesCacheGenerator_UTF7Encoding_GetBytes_m3015176946P21CustomAttributesCache
FEf:_TlsStream_SetLength_m1460039587
wtc:__ZN11IMGUIModule12AddGUIScriptER8ListNodeI13MonoBehaviourE
qb:invoke_difi
Jxd:_PointerEventData_set_rawPointerPress_m1484888025
sca:__ZL50StaticRegisterSceneLoadedCallback_LightmapSettingsPv
DWd:_SimpleEnumerator_Clone_m215554974
Y8g:__Z119RuntimeInvoker_Void_t1841601450_RuntimeObject_RuntimeObject_RuntimeObject_RuntimeObject_Int32_t2071877448_RuntimeObjectPFvvEPK10MethodInfoPvPS4_
BVb:__ZN29MotionVectorRenderLoopScratch15ThreadedCleanupEv
Om:FUNCTION_TABLE_iiffi
MHd:_GridLayoutGroup_get_cellSize_m1061731753
Xrj:__ZN15dense_hashtableINSt3__24pairIK10KeyWrapperINS1_IPKcS4_EEEiEES6_24NamespaceAndNamePairHashN14dense_hash_mapIS6_iS9_NS6_14EqualsComparerI26NamespaceAndNamePairEqualsEENS0_9allocatorIS8_EEE9SelectKeyESD_SF_E12expand_arrayEjN21dense_hash_map_traits17integral_constantIbLb0EEE
ZGh:_EqualityComparer_1_System_Collections_IEqualityComparer_Equals_m300683774_gshared
J5a:__ZN15SerializeTraitsI13dynamic_arrayItLj2EEE19ResizeSTLStyleArrayERS1_i
eoa:__ZN21GLESGpuProgramApplier11ApplyVectorERKN20GpuProgramParameters14ValueParameterEPK8Vector4ft
$9c:__ZN22BaseUnityConnectClient17SaveSessionValuesEv
wta:__ZN6prcoreL27StretchGenericFloatBilinearI18TexFormatRGBAFloatEEvPKNS_9InnerInfoE
Efi:_Parser_IsIgnoreCase_m4155598997
ZIi:_GUILayoutUtility_LayoutSingleGroup_m3024581181
Aqj:__ZN15dense_hashtableINSt3__24pairIK10KeyWrapperIP14Il2CppIUnknownEjEES5_N6il2cpp5utils11PointerHashIS3_EEN14dense_hash_mapIS5_jSB_NS5_14EqualsComparerINS0_8equal_toIS4_EEEENS0_9allocatorIS7_EEE9SelectKeyESG_SI_E12expand_arrayEjN21dense_hash_map_traits17integral_constantIbLb0EEE
XZc:_cff_size_done
E_b:__ZN29ExtractProjectionPlanesHelperILb1EE5ApplyERK10Matrix4x4fP5Plane
cHh:_EqualityComparer_1_System_Collections_IEqualityComparer_Equals_m3376587337_gshared
fRb:__ZN22RenderingCommandBuffer13GetAndCheckRTE24BuiltinRenderTextureTypeRKN9ShaderLab16FastPropertyNameEPKcPP13RenderTexture
L2b:__ZN6Camera34UpdatePreviousViewProjectionMatrixEv
MXa:__ZN9ShaderLab11ShaderState25RemoveUnsupportedProgramsEPK6Shader
Pnb:__ZL23AddGpuProgramParametersR20GpuProgramParametersRKNSt3__26vectorIN9ShaderLab20SerializedSubProgram15MatrixParameterENS1_9allocatorIS5_EEEERKNS2_INS4_15VectorParameterENS6_ISB_EEEEiP16PropertyNamesSet
lIg:__ZL179U3CCreateWhereIteratorU3Ec__Iterator1D_1_t2523986802_CustomAttributesCacheGenerator_U3CCreateWhereIteratorU3Ec__Iterator1D_1_System_Collections_IEnumerator_get_Current_m1354814095P21CustomAttributesCache
crc:__Z44Register_UnityEngine_Object_DestroyImmediatev
Hsg:__ZL57CompareOptions_t2829943955_CustomAttributesCacheGeneratorP21CustomAttributesCache
Ewg:__ZL62_ConstructorBuilder_t1236878896_CustomAttributesCacheGeneratorP21CustomAttributesCache
Dhc:__Z26scripting_class_has_parent17ScriptingClassPtrS_
MLe:_Int64_System_IConvertible_ToInt16_m2022633688_AdjustorThunk
xXe:_OrdinalComparer__ctor_m2952942058
Scd:__ZNSt3__26__treeINS_12__value_typeIN4core12basic_stringIcNS2_20StringStorageDefaultIcEEEEN11UnityEngine7Connect19RemoteSettingsValueEEENS_19__map_value_compareIS6_SA_NS_4lessIS6_EELb1EEE13stl_allocatorISA_L18MemLabelIdentifier6ELi16EEE16__construct_nodeERKNS_4pairIKS6_S9_EE
uAi:_Transform_INTERNAL_get_localPosition_m130325652
sX:__Z71Register_UnityEngine_AudioSource_INTERNAL_CALL_ClearExtensionPropertiesv
hJj:__ZN6il2cpp8metadata25Il2CppGenericClassCompare7CompareEPK18Il2CppGenericClassS4_
lG:__ZNK8Animator20IsInMatchTargetStateEv
FJg:__ZL115DebugLogHandler_t865810509_CustomAttributesCacheGenerator_DebugLogHandler_Internal_LogException_m4229368478____obj1P21CustomAttributesCache
EO:__ZN13AudioListener23VirtualRedirectTransferER24GenerateTypeTreeTransfer
Dm:FUNCTION_TABLE_viiifiii
buc:__Z36Register_UnityEngine_GUI_set_changedv
UCd:_ColorTween_get_startColor_m278546349_AdjustorThunk
K_f:_Encoding_get_Unicode_m1382741113
fii:_Behaviour_set_enabled_m602406666
J8h:_LifetimeServices_set_SponsorshipTimeout_m1403222216
wGe:_NumberFormatInfo_get_PositiveSign_m3396333026
zth:__Z37RuntimeInvoker_Enumerator_t1147558385PFvvEPK10MethodInfoPvPS4_
IUd:_Char_ToString_m1401375624_AdjustorThunk
jle:_Array_InternalArray__ICollection_Add_TisTableRange_t2011406615_m147373358_gshared
I1d:_Convert_ToDateTime_m1251728572
lle:_Array_InternalArray__ICollection_Add_TisBoolean_t3825574718_m1009318882_gshared
Xof:_ReadOnlyCollection_1_System_Collections_IList_set_Item_m1149349508_gshared
wA:__ZN27AnimationLayerMixerPlayable18SetInputConnectionEP8Playablei
jNg:__ZL101Transform_t3275118058_CustomAttributesCacheGenerator_Transform_INTERNAL_set_localRotation_m1514748659P21CustomAttributesCache
fA:__ZN7mecanim28TransformValueArrayBlendNodeEiiiRKNS_10ValueArrayERKNS_14ValueArrayMaskERS0_RS3_RNS_16ValueArrayWeightEf
GVf:_ObjectReader_ReadObjectContent_m3949770110
X3e:_List_1_System_Collections_ICollection_get_SyncRoot_m3031553207_gshared
xpi:_Mesh_get_colors32_m1054093013
d1i:__ZN6il2cpp2vm5Class40GetInterfaceInvokeDataFromVTableSlowPathEPK12Il2CppObjectPK11Il2CppClassj
ZSa:__ZN20TierGraphicsSettings8TransferI18StreamedBinaryReadILb0EEEEvRT_
JQh:_Text_get_font_m3115501113
qmj:__GLOBAL__sub_I_Thread_cpp
vYa:__ZN14SafeBinaryRead8TransferINSt3__24pairIN9ShaderLab16FastPropertyNameE10ColorRGBAfEEEEvRT_PKc17TransferMetaFlags
IYi:__ZL9rshift128PyS_
AVf:_ObjectReader_RecordFixup_m1893348030
Vse:_LayoutGroup_SetProperty_TisRuntimeObject_m1703476175_gshared
Reg:_EnumBuilder_GetElementType_m1228393631
ekj:__ZN14dense_hash_mapI10KeyWrapperINSt3__24pairIPK12PropertyInfoP11Il2CppClassEEEj17ReflectionMapHashIS8_ENS9_14EqualsComparerINS1_8equal_toIS8_EEEENS1_9allocatorINS2_IKS9_jEEEEE13set_empty_keyERSH_
Pg:_glRenderbufferStorage
Hrj:__ZNK15dense_hashtableINSt3__24pairIK10KeyWrapperINS1_IPKcS4_EEEiEES6_24NamespaceAndNamePairHashN14dense_hash_mapIS6_iS9_NS6_14EqualsComparerI26NamespaceAndNamePairEqualsEENS0_9allocatorIS8_EEE9SelectKeyESD_SF_E13find_positionERS7_
$tg:__ZL80ILGenerator_t99948092_CustomAttributesCacheGenerator_ILGenerator_Emit_m116557729P21CustomAttributesCache
jcj:_RaycastHit_get_point_m3350410423_AdjustorThunk
Jnc:__Z45Register_UnityEngine_Input_get_touchSupportedv
dbd:__ZN11UnityEngine15PlatformWrapper28GetTextureFormatSupportFlagsEv
BVc:_UNITY_FT_Create_Class_pshinter_module_class
ksd:_String_CompareOrdinalCaseInsensitiveUnchecked_m2002640463
aSd:_Boolean_GetHashCode_m1894638460
z_c:_cf2_setError
hFe:_AppDomainInitializer_BeginInvoke_m2446455399
Z0f:_UTF7Encoding_InternalGetChars_m4157428055
rhb:__Z33InterpolateLightProbeCoefficientsRK17LightProbeContextRK29LightProbeSamplingCoordinatesR20SphericalHarmonicsL2
Awh:_Enumerator_Reset_m3129803197_AdjustorThunk
yPb:__ZZ23InitPlayerLoopCallbacksvEN35PreUpdateSendMouseEventsRegistrator7ForwardEv
vAe:_SmallXmlParser_HandleBufferedContent_m3397096753
qlh:__Z55RuntimeInvoker_Void_t1841601450_SpriteState_t1353336012PFvvEPK10MethodInfoPvPS4_
uma:__ZNK6Camera25GetNormalizedViewportRectEP13RenderTextureb
ah:_glDisable
jMd:_InputField_OnDeselect_m3963675647
bWh:_InternalEnumerator_1_MoveNext_m1994485778_AdjustorThunk
_Wa:__ZN13RenderTexture8TransferI24GenerateTypeTreeTransferEEvRT_
cYe:_KeyValuePair_2_get_Value_m1916631176_AdjustorThunk
acg:_MethodBase__ctor_m3951051358
pu:__ZN7mecanim9animation9DenseClip8TransferI24GenerateTypeTreeTransferEEvRT_
aAj:__ZN6il2cpp5utils11StringUtils15StringDuplicateEPKDsj
vEd:_Dropdown_get_template_m3014799983
aNf:_BaseMachine_Scan_m122450399
dz:__ZN17AnimationPlayable17ProcessRootMotionEP35AnimationPlayableEvaluationConstantP32AnimationPlayableEvaluationInputP33AnimationPlayableEvaluationOutput
tVd:_ArrayList_CopyTo_m2353632788
Pmi:_GameObject_get_activeSelf_m2643917226
Hug:__ZL71AssemblyFileVersionAttribute_t2897687916_CustomAttributesCacheGeneratorP21CustomAttributesCache
jca:__ZNSt3__26vectorINS_4pairIyP17VertexDeclarationEENS_9allocatorIS4_EEE6assignIPS4_EENS_9enable_ifIXaasr21__is_forward_iteratorIT_EE5valuesr16is_constructibleIS4_NS_15iterator_traitsISB_E9referenceEEE5valueEvE4typeESB_SB_
g2e:_List_1_Add_m943275925_gshared
q_j:b119
Vhd:_HMAC_get_BlockSizeValue_m603907214
vQb:__ZNK8Material12GetPassCountEv
W_d:_Enumerator__cctor_m3784927209
g_j:b110
h_j:b111
j_j:b112
hPj:_bitshift64Ashr
l_j:b114
m_j:b115
n_j:b116
o_j:b117
r4i:__ZN30dense_hashtable_const_iteratorINSt3__24pairIK10KeyWrapperIN6il2cpp5utils13dynamic_arrayIPK10Il2CppTypeLj4EEEEPFvvEEESA_NS3_8metadata19Il2CppSignatureHashEN14dense_hash_mapISA_SD_SG_NSA_14EqualsComparerINSF_22Il2CppSignatureCompareEEENS0_9allocatorISE_EEE9SelectKeyESK_SM_E30advance_past_empty_and_deletedEv
hNc:__ZN11Rigidbody2D23VirtualRedirectTransferER14SafeBinaryRead
Ypa:__ZN4crnd12crn_unpacker22decode_alpha_endpointsEv
i$b:__Z23CullDynamicObjectsUmbraPK4AABBPKN5Umbra15OcclusionBufferER9IndexList
ogf:_Collection_1_RemoveItem_m2565709010_gshared
VB:__ZThn148_NK26AnimatorControllerPlayable41GetStateMachineBehaviourVectorDescriptionEv
BXc:_tt_cmap4_char_next
Maf:_Queue_1_System_Collections_ICollection_get_IsSynchronized_m307125669_gshared
Okh:__Z49RuntimeInvoker_TouchScreenKeyboardType_t875112366PFvvEPK10MethodInfoPvPS4_
Eoi:_Mathf_Approximately_m1944881077
$ih:__Z444RuntimeInvoker_Boolean_t3825574718_RuntimeObject_RuntimeObject_RuntimeObject_ColorU26_t3402129837_Int32_t2071877448_Single_t2076509932_Single_t2076509932_Int32_t2071877448_SByte_t454417549_SByte_t454417549_Int32_t2071877448_Int32_t2071877448_Int32_t2071877448_Int32_t2071877448_SByte_t454417549_Int32_t2071877448_Single_t2076509932_Single_t2076509932_Single_t2076509932_Single_t2076509932_SByte_t454417549_SByte_t454417549_UInt32U26_t2197289955PFvvEPK10MethodInfoPvPS4_
Wqi:_GeneralNames_ToString_m800435094
NAd:_BaseMeshEffect_OnDidApplyAnimationProperties_m2484799839
izg:__ZL73AsymmetricSignatureDeformatter_t3580832979_CustomAttributesCacheGeneratorP21CustomAttributesCache
Rtd:_ASCIIEncoding_GetString_m3931709239
yCi:_Vector4_Equals_m2166390052
Nxi:_RectTransform_SetInsetAndSizeFromParentEdge_m2595554673
X1:__GLOBAL__sub_I_runtime_assetbundles_1_cpp
UP:__ZN4FMOD7Channel11setPositionEjj
Uh:_glBindSampler
kqf:_ReadOnlyCollection_1_System_Collections_Generic_ICollectionU3CTU3E_Clear_m964488020_gshared
bqd:_SecurityFrame_get_Domain_m3219347572_AdjustorThunk
Yh:_glGetVertexAttribiv
msd:_String_IndexOfAny_m2027595557
nle:_Array_InternalArray__ICollection_Add_TisChar_t3454481338_m422084244_gshared
h2i:__ZNSt3__218uninitialized_fillIPNS_4pairIK10KeyWrapperIPKcEP11Il2CppClassEES9_EEvT_SB_RKT0_
Q4c:__ZN2UI11CanvasGroup23VirtualRedirectTransferER18StreamedBinaryReadILb0EE
K6h:_OutAttribute__ctor_m1447235100
hqf:_ReadOnlyCollection_1_get_Item_m3778245964_gshared
NEg:__ZL52EventArgs_t3289624707_CustomAttributesCacheGeneratorP21CustomAttributesCache
wzi:_Texture__ctor_m1220114221
MAc:__ZN8JSONRead8TransferIbEEvRT_PKc17TransferMetaFlagsb
udf:_Collection_1_RemoveAt_m290627370_gshared
Gxd:_PointerEventData_get_lastPress_m3835070463
hJf:_X509KeyUsageExtension_Decode_m3292847033
$jh:__Z52RuntimeInvoker_RaycastResult_t21186376_RuntimeObjectPFvvEPK10MethodInfoPvPS4_
Yjg:_Module_filter_by_type_name_ignore_case_m3574895736
_xg:__ZL57ProxyAttribute_t4031752430_CustomAttributesCacheGeneratorP21CustomAttributesCache
n1a:__ZN26CustomRenderTextureManager19PreAllocateMaterialEP19CustomRenderTexture
jQc:__ZN19ControllerHitReport13onObstacleHitERKN5physx23PxControllerObstacleHitE
gVf:_ObjectReader_ReadObject_m397855326
XBj:_GC_promote_black_lists
NId:_Image_get_fillAmount_m3354146540
ABc:__Z29Transfer_Blittable_ArrayFieldI8JSONRead8Vector4fEvRT_R9ArrayInfoRK23StaticTransferFieldInfo
P$e:_List_1_Sort_m1518807012_gshared
Wn:FUNCTION_TABLE_vf
vo:FUNCTION_TABLE_vd
c6f:_Type_GetMethod_m1930231379
xo:FUNCTION_TABLE_vi
E3:__ZN13RuntimeStaticI37UnityShaderCompilerExtPluginConfigureLb0EE16StaticInitializeEPv
Dcd:__ZN11UnityEngine7Connect17DeviceStatusEvent20SetDeviceAspectRatioEf
Etg:__ZL55StreamReader_t2360341767_CustomAttributesCacheGeneratorP21CustomAttributesCache
Lve:_SimpleCollator_GetContraction_m1391584430
dSd:_CultureInfo_get_InvariantCulture_m398972276
FRd:_Boolean_System_IConvertible_ToInt64_m4142756949_AdjustorThunk
eM:__ZNK8Animator17HasBoundPlayablesEv
UNc:__ZN17Physics2DSettings8TransferI24GenerateTypeTreeTransferEEvRT_
$uc:__ZN5Unity9rapidjson13GenericReaderINS0_4UTF8IcEES3_13JSONAllocatorE10ParseFalseILj0ENS0_19GenericStringStreamIS3_EENS0_15GenericDocumentIS3_S4_S4_EEEEvRT0_RT1_
Ntf:_HMAC_initializePad_m3828610671
wNg:__ZL68DrivenTransformProperties_t2488747555_CustomAttributesCacheGeneratorP21CustomAttributesCache
$kd:_RSAParameters_t1462703416_marshal_pinvoke_cleanup
v9i:__ZN6il2cpp2vm7Runtime9SetConfigEPKc
Evc:__ZN5Unity9rapidjson12PrettyWriterI16TempBufferWriterNS0_4UTF8IcEES4_13JSONAllocatorE10StartArrayEv
P8h:_ConfigHandler_OnChars_m2004226744
ua:invoke_iiifiii
Noj:__ZN6il2cpp2vm9Exception11FromNameMsgEPK11Il2CppImagePKcS6_S6_
iGe:_NumberFormatInfo_get_NumberDecimalDigits_m3706097953
Q5f:_Type_internal_from_name_m1506974323
en:FUNCTION_TABLE_fiiifii
uL:__ZN10HumanTrait15InitializeClassEv
sea:__Z14GetTimeManagerv
yvf:_ContentInfo_get_ContentType_m2984320800
V6b:__ZneRK20SpriteTilingPropertyS1_
Ofd:__ZN19TransportJavaScript7CleanupEv
eKa:__Z12GUIDToStringRK9UnityGUIDPc
cUc:__ZN20TextRenderingPrivate8TextMesh17MainThreadCleanupEv
Gui:_PlayableOutputHandle_GetHashCode_m191656281
i1h:_InternalEnumerator_1_System_Collections_IEnumerator_get_Current_m297674753_gshared
bEi:_InvokableCall_1_Invoke_m3574781157_gshared
gT:__ZN11AudioSource22UnmuteActiveVideoSinksEv
Zzj:__ZN4utf88internal20is_overlong_sequenceIiEEbjT_
oSg:__ZL87AudioSource_t1135106623_CustomAttributesCacheGenerator_AudioSource_get_clip_m2622010175P21CustomAttributesCache
Si:_glReadBuffer
ULa:__Z9SetLocalR15TransformAccessRKN4math7_float4Ey
JWd:_SynchronizedArrayListWrapper_get_Count_m4104930530
Phd:_HashAlgorithm_get_HashSize_m2625667696
aXb:__Z30SetupBakedOcclusionForGeometrybRK26SharedLightmapSettingsDataRK15LightmapIndicesR17ShaderPassContext
omi:_UnityEventBase_UnityEngine_ISerializationCallbackReceiver_OnBeforeSerialize_m3933203561
Aqe:_Array_Resize_TisVector4_t2243707581_m1528805937_gshared
aod:_SecurityPermission_IsSubsetOf_m1087302418
Hlc:__Z41Register_UnityEngine_Cursor_get_lockStatev
lIi:_Event_Internal_GetMousePosition_m2992465246
yWb:__Z14SetupLightmapsRK8Vector4fS1_R17ShaderPassContext
Eij:__ZN14dense_hash_mapI10KeyWrapperIPK14Il2CppAssemblyEPK22Il2CppMonoAssemblyNameN6il2cpp5utils11PointerHashIS2_EENS4_14EqualsComparerINSt3__28equal_toIS3_EEEENSD_9allocatorINSD_4pairIKS4_S7_EEEEE13set_empty_keyERSJ_
OOf:_Interval_get_Empty_m3170923997
WVa:__ZL20InitializeGUIShadersv
l9b:__Z20DestroyObjectDelayedP6Objectf
i1:__ZN20DynamicHeapAllocatorI17LowLevelAllocatorED0Ev
yLd:_InputField_OnDrag_m726194348
uGc:__ZN10ClipperLib11ClipperBase5ResetEv
x6h:_GuidAttribute__ctor_m1099153635
Twe:_PreviousInfo__ctor_m1442166472_AdjustorThunk
VTb:__ZN9DepthPassD2Ev
b6d:_DateTime_get_Kind_m1331920314_AdjustorThunk
ZUi:_TextGenerator_get_rectExtents_m954923136
NO:__ZN11AudioFilter6GetDSPEv
nig:_PropertyBuilder_get_Module_m1618339927
n6:__ZN19RuntimeSceneManager14CanUnloadSceneEP10UnityScene
Zbh:__Z50RuntimeInvoker_Single_t2076509932_Int64_t909078037PFvvEPK10MethodInfoPvPS4_
XTb:__Z22ExtractRenderNodeQueueRK11CullResults15ExtractionFlagsR15RenderNodeQueue
zpe:_Array_InternalArray__set_Item_TisContentType_t1028629049_m703420360_gshared
Iwj:__ZN6il2cpp2vm6Method7GetNameEPK10MethodInfo
oaf:_List_1_set_Item_m1431784996_gshared
UN:__ZN24AudioScriptBufferManagerC2Ev
nSc:__ZNSt3__26vectorIh13stl_allocatorIhL18MemLabelIdentifier1ELi16EEE8__appendEj
N5g:__Z95RuntimeInvoker_Void_t1841601450_RuntimeObject_Int32_t2071877448_Int32_t2071877448_RuntimeObjectPFvvEPK10MethodInfoPvPS4_
Suc:__ZN8JSONRead32GetValueForKeyWithNameConversionEPKN5Unity9rapidjson12GenericValueINS1_4UTF8IcEE13JSONAllocatorEEPKc
qSc:__ZN20TextRenderingPrivate8FontImpl16ResetPackingDataEv
Zje:_Array_InternalArray__IndexOf_TisLink_t865133271_m3612939760_gshared
pni:_Input_get_mousePresent_m1100327283
zwc:__Z18Transfer_BlittableI9JSONWriteLb0EfEvRK29SerializationCommandArgumentsR31RuntimeSerializationCommandInfo
opa:__Z21GetAsyncUploadManagerv
Jj:_emscripten_glDetachShader
Vpg:__ZL66RuntimeArray_CustomAttributesCacheGenerator_Array_Sort_m3500510484P21CustomAttributesCache
Sue:_SafeHandleZeroOrMinusOneIsInvalid_get_IsInvalid_m2033528032
uUd:_Char_IsUpper_m4083577610
cpa:__ZN17GenericDynamicVBO20ReleaseChunkInternalERK21DynamicVBOChunkHandlejj
u3c:__ZL27CleanupModule_TextRenderingv
Rue:_SafeHandleZeroOrMinusOneIsInvalid__ctor_m3340306667
ILj:_fmodl
GWf:_SerializationInfo_AddValue_m902275108
WLj:_fmodf
hjf:_Collection_1_RemoveItem_m2272047354_gshared
JDb:__Z18Transfer_BlittableI18StreamedBinaryReadILb1EELb1E4AABBEvRK29SerializationCommandArgumentsR31RuntimeSerializationCommandInfo
dDa:__ZN12CachedWriter11Align4WriteEv
$Ub:__Z20DoDeferredRenderLoopR17RenderLoopContextR13dynamic_arrayI16RenderObjectDataLj4EES4_RK11CullResultsRP13RenderTextureSA_Pb
QGa:__ZNSt3__26vectorIiNS_9allocatorIiEEE21__push_back_slow_pathIKiEEvRT_
dNb:__ZN19RuntimeSceneManager11CreateSceneEv
GBi:_Vector2_op_Implicit_m385881926
NZc:_ps_get_standard_strings
$Wb:__Z27SetupBakedOcclusionForLightbRK15SharedLightDataR17ShaderPassContext
tu:__ZN24GenerateTypeTreeTransfer8TransferIN13AnimationClip9PPtrCurveEEEvRT_PKc17TransferMetaFlags
eHf:__ZN21InterfaceFuncInvoker1IP13Uri_t19570940S1_E6InvokeEjP11Il2CppClassP12Il2CppObjectS1_
XNh:_ScrollRect_OnScroll_m3346515304
nOj:__ZN10__cxxabiv116__shim_type_infoD2Ev
TZe:_Enumerator_System_Collections_IEnumerator_get_Current_m3461301268_gshared
s5g:__Z63RuntimeInvoker_Void_t1841601450_Int32_t2071877448_RuntimeObjectPFvvEPK10MethodInfoPvPS4_
KCh:_Dictionary_2_CopyToCheck_m1638253305_gshared
XQb:__Z18RenderImageFiltersR10RenderLoopb
C1:__Z19free_alloc_internalPv18MemLabelIdentifier
e8c:__Z43CanvasRenderer_Get_Custom_PropMaterialCountP12Il2CppObject
Fki:__ZN23InterfaceActionInvoker2IP21Exception_t1927440687P18Object_t1021602117E6InvokeEjP11Il2CppClassP12Il2CppObjectS1_S3_
kXb:__ZNSt3__227__insertion_sort_incompleteIR23CompareReflectionProbesP31RuntimeReflectionProbeBlendInfoEEbT0_S5_T_
Tlf:_ReadOnlyCollection_1_System_Collections_Generic_IListU3CTU3E_set_Item_m25653560_gshared
oJi:_GUIContent_t4210063000_marshal_pinvoke_cleanup
VBc:__ZN8JSONRead21TransferSTLStyleArrayI13dynamic_arrayI11QuaternionfLj4EEEEvRT_17TransferMetaFlags
up:__ZN6Object23VirtualRedirectTransferER19StreamedBinaryWriteILb1EE
kt:__ZNSt3__26vectorIN13AnimationClip10FloatCurveE13stl_allocatorIS2_L18MemLabelIdentifier26ELi16EEE6assignINS_11__wrap_iterIPS2_EEEENS_9enable_ifIXaasr21__is_forward_iteratorIT_EE5valuesr16is_constructibleIS2_NS_15iterator_traitsISC_E9referenceEEE5valueEvE4typeESC_SC_
ikc:__ZNK9BlobWrite24HasOffsetPtrWithDebugPtrEv
JJ:__ZN18StreamedBinaryReadILb0EE21TransferSTLStyleArrayI22OffsetPtrArrayTransferI9OffsetPtrIN7mecanim12statemachine18TransitionConstantEEEEEvRT_17TransferMetaFlags
h$g:__ZL68Selectable_t1490392188_CustomAttributesCacheGenerator_m_InteractableP21CustomAttributesCache
Thc:__ZN19RuntimeSceneManager32LoadSceneAsyncByNameOrBuildIndexERKN4core12basic_stringIcNS0_20StringStorageDefaultIcEEEEiNS_11LoadingModeEb
Nvf:_CertificateSelectionCallback_Invoke_m2902629105
Lba:__ZN10InputEventD2Ev
M0d:_DateTimeFormatInfo_GetAllDateTimePatternsInternal_m1587126173
Zfc:__ZN24CompressedAnimationCurve18DecompressTimeKeysI11QuaternionfEEvR17AnimationCurveTplIT_E
Aod:_Evidence__ctor_m1638117806
Uff:__ZN21InterfaceFuncInvoker1Ib22UICharInfo_t3056636800E6InvokeEjP11Il2CppClassP12Il2CppObjectS0_
fKe:_NumberFormatter_Append_m3268121457
XWh:_InternalEnumerator_1_Dispose_m3578333724_AdjustorThunk
aoa:__ZN15dense_hashtableINSt3__24pairIK9TextureIDiEES2_N12TextureIdMap20TextureIDHashFunctorEN14dense_hash_mapIS2_iS6_NS0_8equal_toIS2_EE13stl_allocatorIS4_L18MemLabelIdentifier67ELi16EEE9SelectKeyES9_SC_E12resize_deltaEjj
_fd:__ZN22UnityWebRequestManagerD2Ev
Mki:_DebugLogHandler__ctor_m786660247
Kkd:_RSA_ToXmlString_m4145056574
Nae:_Double_System_IConvertible_ToUInt64_m1318285078_AdjustorThunk
nLj:_isalpha
DMh:_Selectable_FindSelectable_m2739582497
ZDc:__ZNK12b2MotorJoint17GetReactionTorqueEf
B5d:_DateTimeUtils_ZeroPad_m86470512
T7g:__Z94RuntimeInvoker_Void_t1841601450_RuntimeObject_Int32_t2071877448_RuntimeObject_SByte_t454417549PFvvEPK10MethodInfoPvPS4_
vzi:_TextAreaAttribute__ctor_m2180114682
r7i:__ZN6il2cpp2vmL17IsSocketAsyncCallEP14Il2CppDelegate
hPc:__Z13RegisterClassI11Rigidbody2DEvv
xzj:__ZN6il2cpp2vm6String6NewLenEPKcj
eLb:__ZN17PersistentManager9AddStreamEv
jyj:__ZN6il2cpp2os6Thread12GetApartmentEv
BBa:__ZN9GfxDevice28UpdateComputeConstantBuffersEjP12ObjectHandleI18ConstantBuffer_TagPvEjjPKhPKjS8_PKi
Zk:_time
jZg:__ZL79GraphicRaycaster_t410733016_CustomAttributesCacheGenerator_U3CU3Ef__amU24cache0P21CustomAttributesCache
tpi:_Mesh_get_uv_m1990385212
Dui:_PlayableOutput_Equals_m2167434642_AdjustorThunk
mHd:_Graphic_UnregisterDirtyLayoutCallback_m1724443555
aMa:__ZN14BatchAllocator6CommitE18MemLabelIdentifier
f$c:_cf2_stack_free
Twd:_ExecuteEvents_get_pointerClickHandler_m713983310
Ty:__ZN7mecanim9animation19EvaluateFloatValuesEPKNS0_18ClipMuscleConstantEPKNS_18ValueArrayConstantEPKNS0_12ClipBindingsEPKNS0_10ClipOutputEPNS0_18AnimationNodeStateEfbb
G0g:__ZL94LayoutGroup_t3962498969_CustomAttributesCacheGenerator_LayoutGroup_DelayedSetDirty_m4276695617P21CustomAttributesCache
SG:__ZN8Animator31ClearInternalControllerPlayableEv
l1h:_InternalEnumerator_1_Dispose_m2713184934_AdjustorThunk
vag:_WeakReference_Finalize_m3318354542
qLa:__ZN10GameObject8TransferI24GenerateTypeTreeTransferEEvRT_
w_e:_Enumerator_VerifyState_m3913376581_gshared
i0g:__ZL72GridLayoutGroup_t1515633077_CustomAttributesCacheGenerator_m_StartCornerP21CustomAttributesCache
jIg:__ZL83U3CCreateWhereIteratorU3Ec__Iterator1D_1_t2523986802_CustomAttributesCacheGeneratorP21CustomAttributesCache
Hbh:__Z51RuntimeInvoker_Int16_t4041245914_Double_t4078015681PFvvEPK10MethodInfoPvPS4_
wej:__ZN15dense_hashtableINSt3__24pairIK10KeyWrapperINS1_IPK9FieldInfoP11Il2CppClassEEEjEES9_17ReflectionMapHashIS8_EN14dense_hash_mapIS9_jSD_NS9_14EqualsComparerINS0_8equal_toIS8_EEEENS0_9allocatorISB_EEE9SelectKeyESI_SK_E4findERSA_
cZj:_glDeleteSync__wrapper
f2d:_Decimal_op_Implicit_m623319612
xzh:_ValueCollection_System_Collections_Generic_ICollectionU3CTValueU3E_Remove_m98888100_gshared
fwd:_EventTrigger_OnPointerExit_m2119176877
f3f:_ThreadAbortException__ctor_m1623816114
jac:__ZN13ProduceHelperI30RuntimeInitializeOnLoadManagerLb0EE7ProduceE18MemLabelIdentifier18ObjectCreationMode
M0b:__ZN13RenderTexture19SetAutoGenerateMipsEb
Gqa:__Z20GetTextureFormatInfo13TextureFormat
k8g:__Z119RuntimeInvoker_RuntimeObject_RuntimeObject_RuntimeObject_Int32_t2071877448_Int32_t2071877448_MonoIOErrorU26_t1029615899PFvvEPK10MethodInfoPvPS4_
GB:__ZN26AnimatorControllerPlayable8GetFloatEiRf
yKh:_Shadow__ctor_m924057531
Vxd:_PointerEventData_set_worldPosition_m192283671
rdf:_Collection_1_InsertItem_m1391780791_gshared
KEb:__ZN18StreamedBinaryReadILb1EE5AlignEv
SFj:__ZN6il2cpp5utils10MemoryPool6MallocEj
mN:__ZN11SoundHandle8InstanceD2Ev
Uea:__ZN31CanvasBatchIntermediateRenderer13StaticDestroyEPv
Yti:_X509Store_BuildCrlsCollection_m52567568
S7:__ZNSt3__23mapIiP15MonoScriptCacheNS_4lessIiEE13stl_allocatorINS_4pairIKiS2_EEL18MemLabelIdentifier78ELi16EEEixERS7_
N5i:__ZNK15dense_hashtableINSt3__24pairIK10KeyWrapperIPK11Il2CppClassEPKcEES6_N6il2cpp5utils11PointerHashIS3_EEN14dense_hash_mapIS6_S9_SE_NS6_14EqualsComparerINS0_8equal_toIS5_EEEENS0_9allocatorISA_EEE9SelectKeyESJ_SL_E10test_emptyERK24dense_hashtable_iteratorISA_S6_SE_SN_SJ_SL_E
hCf:_RecordProtocol_InternalSendRecordCallback_m3984764857
sWf:_CallbackHandler__ctor_m1235509347
cue:_Array_InternalArray__get_Item_TisUICharInfo_t3056636800_m3872982785_gshared
zpi:_Mesh_SetNormals_m2780518036
wbe:_Enum_ToString_m662345249
S$e:_List_1_get_Capacity_m531373308_gshared
ahh:__Z150RuntimeInvoker_Single_t2076509932_Single_t2076509932_Single_t2076509932_SingleU26_t4173844468_Single_t2076509932_Single_t2076509932_Single_t2076509932PFvvEPK10MethodInfoPvPS4_
szg:__ZL66DESCryptoServiceProvider_t933603253_CustomAttributesCacheGeneratorP21CustomAttributesCache
Elc:__Z41Register_UnityEngine_CullingGroup_Disposev
xch:__Z54RuntimeInvoker_Boolean_t3825574718_DateTime_t693205669PFvvEPK10MethodInfoPvPS4_
_$a:__ZN7Cubemap23VirtualRedirectTransferER19StreamedBinaryWriteILb0EE
FIa:__ZN25MultiBlocksMemoryFileData5WriteEyyPKv
jFc:__ZNK13b2PulleyJoint16GetReactionForceEf
Ami:_ScriptableRenderContext__ctor_m3729862500_AdjustorThunk
K5e:_List_1_System_Collections_IList_Add_m4271264217_gshared
vSh:_Action_1_BeginInvoke_m1305519803_gshared
Ajj:__ZN14dense_hash_mapI10KeyWrapperIPK10Il2CppTypeEjN6il2cpp8metadata14Il2CppTypeHashENS4_14EqualsComparerINS6_26Il2CppTypeEqualityComparerEEENSt3__29allocatorINSB_4pairIKS4_jEEEEE13set_empty_keyERSE_
qua:__ZL17ProgramUniform2fvPK7ApiGLESjiihPKv
PWj:b83
iSc:__ZN20TextRenderingPrivate8FontImpl21HasCharacterInTextureEjijfPj
ZYh:_InternalEnumerator_1_Dispose_m219216750_AdjustorThunk
JMj:_htonl
Qla:__Z20GetBufferManagerGLESv
dje:__ZN21InterfaceFuncInvoker1Ii18Color32_t874517518E6InvokeEjP11Il2CppClassP12Il2CppObjectS0_
AHb:__ZN18StreamedBinaryReadILb0EE21TransferSTLStyleArrayI31ArrayOfManagedObjectsTransfererEEvRT_17TransferMetaFlags
i1f:_UTF7Decoder_GetChars_m2790530452
KMj:_htons
Kzc:__Z18Transfer_BlittableI8JSONReadLb0EtEvRK29SerializationCommandArgumentsR31RuntimeSerializationCommandInfo
Rhj:__ZN15dense_hashtableINSt3__24pairIK10KeyWrapperINS1_IPK9EventInfoP11Il2CppClassEEEjEES9_17ReflectionMapHashIS8_EN14dense_hash_mapIS9_jSD_NS9_14EqualsComparerINS0_8equal_toIS8_EEEENS0_9allocatorISB_EEE9SelectKeyESI_SK_E12expand_arrayEjN21dense_hash_map_traits17integral_constantIbLb0EEE
ZDb:__Z18Transfer_BlittableI18StreamedBinaryReadILb1EELb0E5RectTIiEEvRK29SerializationCommandArgumentsR31RuntimeSerializationCommandInfo
rKi:_GUIStyle_t1799908754_marshal_pinvoke_back
$Qh:_Text_set_fontSize_m2101304336
m0a:__ZNK7Cubemap20GetTextureLayerCountEv
pVc:_pshinter_module_class_pic_free
r_g:__ZL68Navigation_t1571958496_CustomAttributesCacheGenerator_m_SelectOnLeftP21CustomAttributesCache
pC:__ZN34AnimationStateMachineMixerPlayable13EndTransitionEv
nHc:__ZNSt3__26vectorIxNS_9allocatorIxEEE6assignIPxEENS_9enable_ifIXaasr21__is_forward_iteratorIT_EE5valuesr16is_constructibleIxNS_15iterator_traitsIS7_E9referenceEEE5valueEvE4typeES7_S7_
vP:__ZN12AudioManager21FixMasterGroupRoutingEv
Jmd:_SymmetricAlgorithm_set_Key_m2973350820
xNc:__ZN6b2Body9SetActiveEb
KYg:__ZL58FontData_t2614388407_CustomAttributesCacheGenerator_m_FontP21CustomAttributesCache
rIf:_WebHeaderCollection_IsHeaderValue_m1723393133
sRc:__ZN20TextRenderingPrivate8FontImpl13CharacterInfo8TransferI24GenerateTypeTreeTransferEEvRT_
A_e:_Enumerator_Dispose_m3717265706_AdjustorThunk
qId:_HorizontalOrVerticalLayoutGroup_get_childForceExpandWidth_m227100883
Gwj:__ZN6il2cpp2os10ThreadImpl33UnregisterCurrentThreadForCleanupEv
zA:__ZN27AnimationLayerMixerPlayable22PrepareAnimationEventsEfR13dynamic_arrayI22AnimationClipEventInfoLj4EE
Rtb:__Z18Transfer_BlittableI14SafeBinaryReadLb1E4AABBEvRK29SerializationCommandArgumentsR31RuntimeSerializationCommandInfo
Pvj:__ZN6il2cpp6icalls8mscorlib6System4Enum12get_hashcodeEP12Il2CppObject
VEj:_GC_set_no_dls
lJj:__ZN6il2cpp8metadata26Il2CppGenericMethodCompare6EqualsEPK19Il2CppGenericMethodS4_
jda:__Z22CreateMutexLockedQueue18MemLabelIdentifier
VEe:_AppDomain_get_CurrentDomain_m3432767403
S4a:__ZNK13ScreenManager16GetScreenTimeoutEv
aO:__ZN9AudioClip7WWWOpenEPKciPjPPvS4_
kHg:__ZL66Uri_t19570940_CustomAttributesCacheGenerator_Uri__ctor_m3854873816P21CustomAttributesCache
jTg:__ZL88GUIStyle_t1799908754_CustomAttributesCacheGenerator_GUIStyle_get_stretchWidth_m813991504P21CustomAttributesCache
Itb:__Z18Transfer_BlittableI14SafeBinaryReadLb0E8Vector2fEvRK29SerializationCommandArgumentsR31RuntimeSerializationCommandInfo
Q$g:__ZL101ToggleGroup_t1030026315_CustomAttributesCacheGenerator_ToggleGroup_U3CAnyTogglesOnU3Em__0_m1218114300P21CustomAttributesCache
mdc:__ZZN13BuildSettingsC1E18MemLabelIdentifier18ObjectCreationModeEN38initializedPreloadedPluginsRegistrator7ForwardEv
NHf:_IPv6Address_SwapUShort_m1481806078
upe:_Array_InternalArray__set_Item_TisPlayableBinding_t2498078091_m2071396616_gshared
CSe:_SynchronizedReader_Peek_m282642073
Nkb:__ZN15SerializeTraitsIN9ShaderLab20SerializedSubProgram16TextureParameterEE8TransferI14SafeBinaryReadEEvRS2_RT_
GSd:_Byte_System_IConvertible_ToInt16_m1575115635_AdjustorThunk
Y7h:_CrossAppDomainData_get_ProcessID_m2865289777
m_i:_Physics2D_Raycast_m298439588
h7f:_UInt16_System_IConvertible_ToUInt16_m1646506872_AdjustorThunk
SBi:_Vector3_set_Item_m2026854946_AdjustorThunk
k9h:_Context_get_HasGlobalDynamicSinks_m3205328884
iwe:_SimpleCollator_CompareQuick_m619038530
o$g:__ZL93Selectable_t1490392188_CustomAttributesCacheGenerator_Selectable_get_isPointerDown_m774209881P21CustomAttributesCache
aEf:_SslStreamBase_EndRead_m1072850679
Ovf:_CertificateSelectionCallback_BeginInvoke_m990408067
DBa:__ZN9GfxDevice22DispatchComputeProgramE12ObjectHandleI18ComputeProgram_TagPvEjjj
jd:_SDL_GetTicks
cEe:_X509CertificateEnumerator_System_Collections_IEnumerator_get_Current_m1643583406
zva:__ZN18GfxFramebufferGLES20CleanupFBOMapForRBIDERKj
pgj:__ZN15dense_hashtableINSt3__24pairIK10KeyWrapperINS1_IPK11Il2CppImageP11Il2CppClassEEEjEES9_17ReflectionMapHashIS8_EN14dense_hash_mapIS9_jSD_NS9_14EqualsComparerINS0_8equal_toIS8_EEEENS0_9allocatorISB_EEE9SelectKeyESI_SK_E6insertERKSB_
P_b:__Z21CreateShadowCullerJobP30CreateUmbraShadowCullerJobData
iua:__ZL18ProgramUniform2uivPK7ApiGLESjiihPKv
dif:_Collection_1_System_Collections_ICollection_get_IsSynchronized_m1375670137_gshared
WPi:_AudioConfigurationChangeHandler_BeginInvoke_m1585211075
NXb:__Z33GenerateShadowCasterPartsSortDataRK16ShadowCasterDatajRK15RenderNodeQueueRKNSt3__26vectorI20ShadowCasterPartData13stl_allocatorIS7_L18MemLabelIdentifier2ELi16EEEERK10Matrix4x4fRjP20ShadowCasterSortData
ani:_GUILayer_INTERNAL_CALL_HitTest_m381183969
JUd:_Char_GetTypeCode_m2251277629_AdjustorThunk
e_e:_Enumerator_Dispose_m3109097029_AdjustorThunk
