Bc:_glClearStencil
Ule:_Array_InternalArray__ICollection_Add_TisMark_t2724874473_m1613484179_gshared
dZg:__ZL80Graphic_t2426225576_CustomAttributesCacheGenerator_Graphic_OnFillVBO_m1723985607P21CustomAttributesCache
exj:__ZN6il2cpp2vm5Array13GetByteLengthEP11Il2CppArray
ALh:_Raycast3DCallback_BeginInvoke_m3028685017
y5g:__Z79RuntimeInvoker_RuntimeObject_Int64_t909078037_Int64_t909078037_Int64_t909078037PFvvEPK10MethodInfoPvPS4_
iVi:_TextGenerator_Invalidate_m1993568841
rrf:_Comparison_1_Invoke_m353639462_gshared
KPa:__Z30GetIntermediateRendererManagerv
lI:__ZN10StateRange8TransferI14SafeBinaryReadEEvRT_
mqa:__Z21SourceMipLevelForBlitiiii
qUa:__ZN31CanvasBatchIntermediateRenderer15AddAsRenderNodeER15RenderNodeQueueRK20DeprecatedSourceData
Z_d:_Enumerator_get_Key_m2908810861
XI:__ZN15SerializeTraitsIN7mecanim6bitsetILj70EEEE8TransferI14SafeBinaryReadEEvRS2_RT_
HIi:_GUI_DoSetSkin_m2532620610
Zv:__ZN11UnityEngine9Animation28GenericAnimationBindingCacheD2Ev
YHh:_EqualityComparer_1__cctor_m968537130_gshared
h$e:_List_1_System_Collections_IList_IndexOf_m39706221_gshared
eCh:_Dictionary_2_Remove_m1849931834_gshared
P1d:_Decimal_op_Implicit_m2971610317
UJi:_GUILayoutGroup_ResetCursor_m3614985691
aEd:_Graphic_UnregisterDirtyVerticesCallback_m1526739224
q1b:__Z18RestoreRenderStateR20CameraRenderOldStateR17ShaderPassContext
HWd:_SynchronizedArrayListWrapper_get_Item_m3309425850
YDb:__Z18Transfer_BlittableI18StreamedBinaryReadILb1EELb1E5RectTIfEEvRK29SerializationCommandArgumentsR31RuntimeSerializationCommandInfo
nmi:_UnityEventBase_RebuildPersistentCallsIfNeeded_m2776978024
Qzb:__Z18Transfer_BlittableI24GenerateTypeTreeTransferLb0E11ColorRGBA32EvRK29SerializationCommandArgumentsR31RuntimeSerializationCommandInfo
l8:__Z25scripting_class_from_name17ScriptingImagePtrPKcS1_
fkj:__ZN14dense_hash_mapI10KeyWrapperINSt3__24pairIPK12PropertyInfoP11Il2CppClassEEEj17ReflectionMapHashIS8_ENS9_14EqualsComparerINS1_8equal_toIS8_EEEENS1_9allocatorINS2_IKS9_jEEEEE15set_deleted_keyERSH_
aKb:__Z29scripting_class_enum_basetype17ScriptingClassPtr
Ugh:__Z111RuntimeInvoker_Void_t1841601450_Vector4_t2243707581_Vector4_t2243707581_Vector4_t2243707581_Vector4_t2243707581PFvvEPK10MethodInfoPvPS4_
HIc:__ZN16PhysicsManager2D7RaycastERK3RayfiR12RaycastHit2D
wgg:_GenericTypeParameterBuilder_GetHashCode_m867619899
T4f:_TimeSpan_ToString_m2947282901
uHh:_EqualityComparer_1__cctor_m3397254040_gshared
rrb:__ZNK20LocalFileSystemPosix6ParentERK13FileEntryDataRN4core12basic_stringIcNS3_20StringStorageDefaultIcEEEE
lre:_Array_Sort_TisVector2_t2243707579_m1307634946_gshared
Rna:__ZN7ApiGLES17CopyBufferSubDataEjjlll
J8f:_UInt64_System_IConvertible_ToDecimal_m4205696037
Wuc:__ZN5Unity9rapidjson15GenericDocumentINS0_4UTF8IcEE13JSONAllocatorS4_E11ParseStreamILj1ES3_NS0_25GenericInsituStringStreamIS3_EEEERS5_RT1_
pWi:_U3CCreateWhereIteratorU3Ec__Iterator1D_1_Reset_m1773515612_gshared
qVb:__ZN25CameraStackRenderingState20GetOrCreateBuiltinRTE24BuiltinRenderTextureTypeii17DepthBufferFormat19RenderTextureFormatj22RenderTextureReadWrite14VRTextureUsagei
JLi:_AesManaged_CreateEncryptor_m1729287824
V6a:__ZNK14Texture2DArray26CanReuploadDataToGfxDeviceEv
LZb:__ZN17PrePassRenderLoop14RenderBasePassEP13RenderTextureRK14LightingLayersR13dynamic_arrayI16RenderObjectDataLj4EERbR10MinMaxAABB
EGd:_GraphicRegistry_RegisterGraphicForCanvas_m2284226562
MTd:_Char_System_IConvertible_ToInt16_m2741348777_AdjustorThunk
Ksc:__ZN5IMGUI18RepaintModalWindowER8GUIState
Nkf:_ReadOnlyCollection_1_System_Collections_Generic_IListU3CTU3E_set_Item_m1547026160_gshared
AOa:__ZNK15dense_hashtableINSt3__24pairIKN9ShaderLab7Program23ShaderKeywordSetAndHashEPKNS2_10SubProgramEEES4_NS3_24ShaderKeywordHashFunctorEN14dense_hash_mapIS4_S8_SA_NS0_8equal_toIS4_EE13stl_allocatorIS9_L18MemLabelIdentifier67ELi16EEE9SelectKeyESD_SG_E23find_position_with_hashERS5_j
Tqg:__ZL61MarshalAsAttribute_t2900773360_CustomAttributesCacheGeneratorP21CustomAttributesCache
C5a:__Z23SetSpriteMeshIndexCountP14SharedMeshDataj
hWa:__ZN7Texture13SetFilterModeEi
skc:__Z46Register_UnityEngine_Application_get_isPlayingv
dzj:__ZN6il2cpp8metadata13GenericMethod9GetMethodEPK19Il2CppGenericMethod
qq:__ZNSt3__26vectorIN4core12basic_stringIcNS1_20StringStorageDefaultIcEEEENS_9allocatorIS5_EEE7reserveEj
h4d:_Convert_ToUInt16_m2130758075
ngj:__ZN15dense_hashtableINSt3__24pairIK10KeyWrapperINS1_IPK11Il2CppImageP11Il2CppClassEEEjEES9_17ReflectionMapHashIS8_EN14dense_hash_mapIS9_jSD_NS9_14EqualsComparerINS0_8equal_toIS8_EEEENS0_9allocatorISB_EEE9SelectKeyESI_SK_E3endEv
WJf:_X509BasicConstraintsExtension_Encode_m3505127076
_ha:__ZN13GfxDeviceGLES11SetViewportERK5RectTIiE
_Id:_Image_get_pixelsPerUnit_m4104195799
YRh:_Toggle_InternalToggle_m2323729210
t8d:_Decimal_System_IConvertible_ToInt64_m2504363272
Zpc:__Z24Time_Get_Custom_PropTimev
UOd:_Array_GetValue_m3182152438
Sd:_emscripten_glDepthRange
lZf:_DESTransform_CipherFunct_m3559419566
Bjd:_Rijndael_Create_m113171669
z3b:__ZNSt3__26vectorINS_4pairIN4core12basic_stringIcNS2_20StringStorageDefaultIcEEEES6_EE13stl_allocatorIS7_L18MemLabelIdentifier38ELi16EEE12__move_rangeEPS7_SC_SC_
qkb:__Z14resize_trimmedINSt3__26vectorIN9ShaderLab20SerializedSubProgram12UAVParameterENS0_9allocatorIS4_EEEEEvRT_j
ovc:__ZN5Unity9rapidjson13GenericReaderINS0_4UTF8IcEES3_13JSONAllocatorE11ParseObjectILj1ENS0_25GenericInsituStringStreamIS3_EENS0_15GenericDocumentIS3_S4_S4_EEEEvRT0_RT1_
BUf:_SerializationInfo_AddValue_m1781549036
Xxf:_TlsServerKeyExchange_verifySignature_m3641534563
mhc:__ZN13BuildSettings34ConvertScenePathToDisplayScenePathERKN4core12basic_stringIcNS0_20StringStorageDefaultIcEEEE
raa:__ZNSt3__218__insertion_sort_3IRNS_6__lessI14ObjectLoadDataS2_EEPS2_EEvT0_S6_T_
kQh:_Slider_FindSelectableOnLeft_m3136767885
Mpa:__ZN4crndL20crnd_default_reallocEPvjPjbS0_
Oie:_Array_BinarySearch_TisInt32_t2071877448_m51233948_gshared
NNj:__ZNSt3__212basic_stringIcNS_11char_traitsIcEENS_9allocatorIcEEEC2ERKS5_
YSf:_ProviderData_CopyFrom_m431414335
s6a:__ZN18SpriteAtlasManager19AddRequestingSpriteE4PPtrI6SpriteE
Ufc:__ZN16PackedQuatVector9PackQuatsEP11Quaternionfi
Kpc:__Z33Texture_CUSTOM_Internal_GetHeightP12Il2CppObject
pNd:_LayoutGroup_get_preferredHeight_m3901163825
u0b:__ZN23ScriptableRenderContextC2Ev
ku:__ZN7mecanim9animation18ClipMuscleConstant8TransferI24GenerateTypeTreeTransferEEvRT_
s1d:_DateTime_AbsoluteDays_m3061694073
X1c:_UNITY_FT_Stream_GetChar
xEb:__Z18Transfer_BlittableI18StreamedBinaryReadILb1EELb1EdEvRK29SerializationCommandArgumentsR31RuntimeSerializationCommandInfo
gwh:_Enumerator_System_Collections_IEnumerator_get_Current_m229223308_gshared
jKb:__Z26BuildSerializationCacheFor17ScriptingClassPtrRb
Sva:__ZN7ApiGLES15BlitFramebufferEN2gl6HandleILNS0_10ObjectTypeE9EEENS0_15FramebufferReadES3_S3_iiiiiiiiNS0_15FramebufferTypeE
jpi:_Mesh_CheckCanAccessSubmeshTriangles_m2644388378
Vfh:__Z112RuntimeInvoker_RuntimeObject_RuntimeObject_RuntimeObject_RuntimeObject_RuntimeObject_RuntimeObject_RuntimeObjectPFvvEPK10MethodInfoPvPS4_
hBi:_UnitySynchronizationContext__ctor_m1804960286
qWd:_FixedSizeArrayListWrapper_AddRange_m2071800418
eL:__ZN13ProduceHelperI8AnimatorLb0EE7ProduceE18MemLabelIdentifier18ObjectCreationMode
CLb:__Z9InitInputv
ebh:__Z85RuntimeInvoker_Boolean_t3825574718_Int64_t909078037_Int64_t909078037_SByte_t454417549PFvvEPK10MethodInfoPvPS4_
WZe:_Enumerator_VerifyState_m2358705882_AdjustorThunk
OAb:__Z29Transfer_Blittable_ArrayFieldI24GenerateTypeTreeTransfer11ColorRGBA32EvRT_R9ArrayInfoRK23StaticTransferFieldInfo
wsb:__ZN16MemoryFileSystem6DeleteER13FileEntryDatab
Eqa:__ZL21BlitScaleStbImageImplRK14ImageReferenceRS_NS_10ColorSpaceE
xxi:_RectTransform_INTERNAL_set_pivot_m4248720081
CEf:_TlsStream_set_Position_m378064217
zLc:__ZNSt3__26__sortIR31RayHitsByInverseDepthComparitorP12RaycastHit2DEEvT0_S5_T_
Ivb:__Z29Transfer_Blittable_ArrayFieldI14SafeBinaryReadyEvRT_R9ArrayInfoRK23StaticTransferFieldInfo
jT:__ZN20SoundChannelInstance15setChannelGroupEPN4FMOD12ChannelGroupE
Hod:_Evidence_Equals_m2325859915
rui:_PlayableHandle_INTERNAL_CALL_GetPlayableTypeOf_m1683061051
Hbg:_Default__ctor_m172834064
pc:invoke_vifffii
Koj:__ZN6il2cpp2vm9Exception27RaiseNullReferenceExceptionEv
Ndi:_Regex_IsMatch_m2159202025
IIa:__ZNK25MultiBlocksMemoryFileData5CloneEv
HEj:_GC_add_ext_descriptor
hQf:_RemotingServices_GetMethodBaseFromName_m3271095947
PPj:dynCall_iiiiiiiiiiii
Jtd:_ASCIIEncoding_GetBytes_m3617160053
$wf:_CipherSuiteCollection_System_Collections_IList_RemoveAt_m143866082
_ob:__ZL26KeywordSetToStringDontSortRKNSt3__26vectorIN4core12basic_stringIcNS1_20StringStorageDefaultIcEEEENS_9allocatorIS5_EEEERS5_
wsa:__ZN6prcoreL17RemapGenericFloatI16TexFormatRGFloat17TexFormatRGBAHalfEEvPKNS_9InnerInfoE
GN:__ZN12AudioManager22CreateFMODSoundFromWWWEP10IWWWStream15FMOD_SOUND_TYPE17FMOD_SOUND_FORMATjjbbP10SampleClip
Ibc:__ZNK32RendererMaterialAnimationBinding15GenerateBindingERKN4core12basic_stringIcNS0_20StringStorageDefaultIcEEEEbRN11UnityEngine9Animation14GenericBindingE
A7:__ZN8Remapper23GetOrGenerateInstanceIDERK26SerializedObjectIdentifier
Bt:__ZN17AnimationCurveTplI8Vector3fEC2ERKS1_
iSe:_StreamWriter_Flush_m3426120024
_a:invoke_iiiiiifffiiifii
OPe:_MemoryStream__ctor_m1489366847
$od:_SecurityElement_IsValidTag_m64902195
Mmg:_PropertyInfo_SetValue_m2961483868
R3e:_List_1_System_Collections_IList_Contains_m4193366963_gshared
dcg:_ConstructorInfo_Invoke_m2144827141
P5a:__ZN6Sprite8TransferI24GenerateTypeTreeTransferEEvRT_
Sqc:__Z48Register_UnityEngine_Transform_SetAsFirstSiblingv
S5a:__ZN7SubMesh8TransferI24GenerateTypeTreeTransferEEvRT_
Qlg:_MonoProperty_get_CanWrite_m2124922514
i8i:__ZN6il2cpp6icalls8mscorlib6SystemL16CheckMemberMatchI9FieldInfoNS_5utils10functional6FilterINSt3__212basic_stringIcNS8_11char_traitsIcEENS8_9allocatorIcEEEENS5_13VmStringUtils23CaseInsensitiveComparerEEEEEbPKT_PK11Il2CppClassSN_iRKT0_
OMj:_poll
APe:_Stream_BeginRead_m1985960185
B9b:__ZN13ProduceHelperI14Texture2DArrayLb0EE7ProduceE18MemLabelIdentifier18ObjectCreationMode
Yu:__ZN7mecanim5human9HumanGoal8TransferI18StreamedBinaryReadILb0EEEEvRT_
puf:_MD4Managed_GG_m1462438360
toc:__Z53PlayableHandle_CUSTOM_INTERNAL_CALL_GetPlayableTypeOfR9HPlayable
LPc:__Z55Register_UnityEngine_Rigidbody2D_INTERNAL_CALL_AddForcev
dic:__ZN9Transform23SetSiblingIndexInternalEib
nia:__ZN13GfxDeviceGLES17DestroySubProgramEPN9ShaderLab10SubProgramE
Xx:__ZN7mecanim5human12HumanPoseSubERNS0_9HumanPoseERKS1_S4_
dCi:_Vector3_Max_m2076081170
buf:_MD4_Create_m2582504069
ftj:__ZN6il2cpp8metadata15GenericMetadata15GetGenericClassEiPK17Il2CppGenericInst
xRd:_Boolean_System_IConvertible_ToInt16_m977801621
hub:__Z18Transfer_BlittableI14SafeBinaryReadLb0E10Matrix4x4fEvRK29SerializationCommandArgumentsR31RuntimeSerializationCommandInfo
BJb:__Z24GetFixedBehaviourManagerv
DSb:__ZN12FlareManager9UpdateJobEP25FlareManagerUpdateJobData
N7i:__ZN6il2cpp2vm10ThreadPool4WaitEP17Il2CppAsyncResultPPv
zqi:_Plane__ctor_m730644932_AdjustorThunk
oNc:__ZN11Rigidbody2D8TransferI14SafeBinaryReadEEvRT_
ZKj:_vfprintf
htc:__ZN10GUIManager12AddGUIScriptER8ListNodeI13MonoBehaviourE
JTa:__ZN19ShaderPropertySheet20ReservePropertyCountEj
lTb:__ZN20DynamicPropertySheetD0Ev
E3b:__ZN14SafeBinaryRead17RegisterConverterEPKcS1_PFbPvRS_E
g3:__ZN35RegisterRuntimeInitializeAndCleanup8RegisterEPFvPvES2_iS0_
Llj:__ZNSt3__26vectorIN6il2cpp8metadata18GenericArrayMethodENS_9allocatorIS3_EEE7reserveEj
ss:__ZN7mecanim6memory16ChainedAllocator7ReserveEj
Spf:_ReadOnlyCollection_1_System_Collections_IList_Clear_m2600246370_gshared
Mze:_DSAManaged_NormalizeArray_m2287089393
Wqc:__Z21Object_CUSTOM_DestroyP12Il2CppObjectf
u1h:_InternalEnumerator_1_System_Collections_IEnumerator_get_Current_m2389982234_AdjustorThunk
Eob:__ZN8Material26ResetAllCachedMaterialDataEP6Shader
f2c:_UNITY_TT_Get_MM_Var
ZYi:__ZN6il2cpp6icalls8mscorlib6System7Decimal13decimal2Int64EP19il2cpp_decimal_reprPx
ba:invoke_diddi
exd:_ExecuteEvents__cctor_m288775360
p4c:__ZNK2UI6Canvas13GetRenderModeEv
D2d:_Double_TryParseStringConstant_m2585405703
ttb:__Z18Transfer_BlittableI14SafeBinaryReadLb0EiEvRK29SerializationCommandArgumentsR31RuntimeSerializationCommandInfo
z6i:__ZN6il2cpp2vm13MetadataCache30GetPropertyDefinitionFromIndexEi
Mjd:_RijndaelTransform_Clear_m1652144089
eOe:_MonoIO_GetException_m2577367044
Wcd:__ZN22BaseUnityConnectClient17InitializeSessionERKN4core12basic_stringIcNS0_20StringStorageDefaultIcEEEES6_N19CloudServiceHandler13InitModeFlagsE
Kyh:_Enumerator_MoveNext_m1404007384_gshared
RWe:_NumberFormatter_get_IsZero_m1325357749
rJ:__ZN15SerializeTraitsI9OffsetPtrIN7mecanim9animation23BlendDirectDataConstantEEE8TransferI24GenerateTypeTreeTransferEEvRS4_RT_
gpi:_Mesh_PrintErrorCantAccessIndices_m2990602703
PVj:_emscripten_glDeleteBuffers__wrapper
Bjh:__Z121RuntimeInvoker_Void_t1841601450_Single_t2076509932_Single_t2076509932_Single_t2076509932_Single_t2076509932_RuntimeObjectPFvvEPK10MethodInfoPvPS4_
Tbe:_Enum_ToObject_m322320225
Qjc:__ZN13MonoBehaviour34StopCoroutineFromEnumeratorManagedE18ScriptingObjectPtr
nnd:_X509Certificate__ctor_m3860837120
Zlh:__Z109RuntimeInvoker_RuntimeObject_Ray_t2469606224_Single_t2076509932_Int32_t2071877448_RuntimeObject_RuntimeObjectPFvvEPK10MethodInfoPvPS4_
Npf:_ReadOnlyCollection_1_System_Collections_Generic_IListU3CTU3E_set_Item_m3663361643_gshared
rL:__ZN7mecanim9animation14AvatarConstant15InitializeClassEv
nwd:_EventTrigger_OnScroll_m626934407
Ofb:__ZN30RuntimeInitializeOnLoadManager8TransferI18StreamedBinaryReadILb0EEEEvRT_
Geg:_TypeBuilder_not_supported_m3178173643
xWc:_UNITY_tt_face_load_pclt
hjc:__ZL34GetComponentsImplementationRecurseILb1ELi0ELi2EEbR10GameObjectbRK17CompareParametersRK39GetComponentsImplementation_ReturnValue
FGc:__ZN10ClipperLib7Clipper24InsertLocalMinimaIntoAELEx
kHj:__ZN6il2cpp6icalls8mscorlib6System9Threading5Mutex20CreateMutex_internalEbP12Il2CppStringPb
ZVd:_ArrayListWrapper_Remove_m1105489978
HSb:__ZNK6Camera18WorldToScreenPointERK8Vector3fPb
kKi:_GUISkin__ctor_m2824039590
PZd:_HashKeys_CopyTo_m3566668422
mva:__Z18IsCompressedFormat14GraphicsFormat
UTd:_Convert_ToSByte_m2665932200
M6:__ZNSt3__227__insertion_sort_incompleteIRPFbRKN18AwakeFromLoadQueue4ItemES4_EPS2_EEbT0_S9_T_
Bdg:_ILGenerator_label_fixup_m1325994348
D4i:__ZN14dense_hash_mapI10KeyWrapperIN6il2cpp5utils13dynamic_arrayIPK10Il2CppTypeLj4EEEEPFvvENS1_8metadata19Il2CppSignatureHashENS8_14EqualsComparerINSB_22Il2CppSignatureCompareEEENSt3__29allocatorINSG_4pairIKS8_SA_EEEEE15set_deleted_keyERSJ_
wKh:_Navigation_Equals_m4214630671_AdjustorThunk
Zmf:_ReadOnlyCollection_1_System_Collections_Generic_IListU3CTU3E_set_Item_m257196015_gshared
kjg:_FieldInfo_GetPseudoCustomAttributes_m2500972355
V1a:__ZN26EnlightenSystemInformation8TransferI14SafeBinaryReadEEvRT_
pte:_Array_InternalArray__get_Item_TisLink_t2723257478_m2281261655_gshared
led:__ZN11UnityEngine15PlatformWrapper20SetPlayerPrefsUInt64ERKN4core12basic_stringIcNS1_20StringStorageDefaultIcEEEEy
M9a:__ZN12MeshRendererD0Ev
EW:__ZN12AudioManager35GetCurrentSpatializerDefinitionNameEv
RYd:_Hashtable__ctor_m2702360557
Bh:_utime
CCi:_Vector4_get_sqrMagnitude_m641641704_AdjustorThunk
xF:__Z28SetExposedSkeletonTransformsRKN7mecanim9animation14AvatarConstantERKN11UnityEngine9Animation30AnimatorGenericBindingConstantERKNS_8skeleton13SkeletonPoseTIN4math4trsXEEERKNSA_INSB_7affineXEEERNS5_21AvatarBindingConstantEy
dhe:_PlayableHandle_IsPlayableOfType_TisAnimationLayerMixerPlayable_t3057952312_m2522157783_AdjustorThunk
Psf:_PrimalityTest_Invoke_m4058801829
tn:FUNCTION_TABLE_viiiiif
GTf:_RemotingConfiguration_SetCustomErrorsMode_m1844153208
yn:FUNCTION_TABLE_viiiiii
mee:_CultureInfo_GetFormat_m3560116485
WG:__ZN7mecanim9animation22DestroyAvatarWorkspaceEPNS0_15AvatarWorkspaceERNS_6memory9AllocatorE
nei:_AnchorInfo_get_IsPosition_m3791659233
RZb:__ZN15LightmapSTCacheC2ER13BatchRendererR15RenderLoopStats
Fsc:__ZNSt3__210__list_impIN10GUIManager12SortedScriptE11memory_poolIS2_EE5clearEv
B_a:__ZN14PlayableOutput17SetSourcePlayableEP8Playable
Gfb:__ZNSt3__26vectorIN4core12basic_stringIcNS1_20StringStorageDefaultIcEEEE13stl_allocatorIS5_L18MemLabelIdentifier13ELi16EEE8__appendEj
XTf:_TrackingServices__cctor_m3639412334
mG:__ZN7mecanim9animation29MotionOutputGetDeltaTransformEPKNS0_12MotionOutputE
y7b:__Z13RegisterClassI16GraphicsSettingsEvv
vKc:__ZN24b2ChainAndCapsuleContact8EvaluateEP10b2ManifoldRK11b2TransformS4_
OL:__ZN8Animator14OnAddComponentEPN5Unity9ComponentE
W9e:_List_1_CheckMatch_m1184924052_gshared
oqc:__Z43Transform_CUSTOM_INTERNAL_get_localRotationP12Il2CppObjectP11Quaternionf
XTj:_glGetShaderInfoLog__wrapper
ei:_emscripten_glGetTexParameteriv
jJj:__ZN6il2cpp8metadata21Il2CppGenericInstHash4HashEPK17Il2CppGenericInst
kvf:_RSAManaged_ImportParameters_m3060955884
A7h:_ChannelData_CopyFrom_m4049054607
F7b:__Z13RegisterClassI4MeshEvv
_Za:__ZN8PlayableD0Ev
hP:__ZN12AudioManager8TransferI19StreamedBinaryWriteILb0EEEEvRT_
fQe:_WriteDelegate_Invoke_m2103848735
YKi:_Locale_GetText_m512920887
oTf:_RemotingConfiguration_get_ProcessId_m3870172209
dHe:_SortKey_ToString_m2406913228
$qb:__ZN22LocalFileSystemHandler9MakeLocalER13FileEntryDatab
MAj:__ZN6il2cpp2vm8Profiler10AllocationEP12Il2CppObjectP11Il2CppClass
K1d:_Convert_ToDateTime_m1020507389
JTc:__ZNSt3__23mapIN20TextRenderingPrivate7FontRefENS1_6OSFontENS_4lessIS2_EENS_9allocatorINS_4pairIKS2_S3_EEEEEixERS8_
ioi:_Material_SetInt_m2847439171
_fa:__Z13FormatOrderedPKcz
cOe:_Path_IsPathRooted_m1347207448
jVf:_ObjectManager_RegisterObjectInternal_m879109503
Jee:_Array_get_swapper_TisVector4_t2243707581_m97441823_gshared
YQc:__ZN14SafeBinaryRead21TransferSTLStyleArrayI10vector_mapINSt3__24pairIttEEfN20TextRenderingPrivate8FontImpl14KerningCompareENS2_9allocatorINS3_IS4_fEEEEEEEvRT_17TransferMetaFlags
a8b:__Z13RegisterClassI15QualitySettingsEvv
uzj:__ZN6il2cpp2vm6String21InitializeEmptyStringEP11Il2CppClass
AZb:__ZN25DeferredRenderLoopScratchD0Ev
sA:__ZN27AnimationLayerMixerPlayable14SetInputWeightEif
Tx:__ZN7mecanim9animation17EvaluateHumanPoseERKNS0_18ClipMuscleConstantERKNS0_15ClipMuscleInputEPKfRKNS0_12MotionOutputERNS_5human9HumanPoseE
Jmi:_GameObject_AddComponent_m540062519
Zjb:__ZN15dense_hashtableINSt3__24pairIKiN4core17string_with_labelILi1EEEEEi18SInt32HashFunctionN14dense_hash_mapIiS5_S7_NS0_8equal_toIiEE13stl_allocatorIS6_L18MemLabelIdentifier1ELi16EEE9SelectKeyESA_SD_E9copy_fromERKSG_j
PPa:__ZN6Camera11ResetAspectEv
u6f:_Type_get_IsGenericType_m3396841573
oeb:__ZN15ResourceManagerD0Ev
YJf:_X509BasicConstraintsExtension_get_HasPathLengthConstraint_m3788532759
ITa:__ZNK17InstancedPropInfo22FillInstancePropertiesER19ShaderPropertySheetjPK17BatchInstanceDatajRK15RenderNodeQueue
MOa:__ZN22CreateGpuProgramOutputD2Ev
lW:__ZN13ProduceHelperI13AudioListenerLb0EE7ProduceE18MemLabelIdentifier18ObjectCreationMode
RI:__ZN7mecanim9animation23BlendDirectDataConstant8TransferI14SafeBinaryReadEEvRT_
CXi:_WillRenderCanvases_Invoke_m4267547094
J0d:_DateTimeFormatInfo_GetInstance_m3133223810
hsf:_ModulusRing_BarrettReduction_m2802101099
kqb:__ZN12HandlerChain4OpenER13FileEntryData14FilePermission16FileAutoBehavior
Kfj:__ZN15dense_hashtableINSt3__24pairIK10KeyWrapperINS1_IPK10MethodInfoP11Il2CppClassEEEjEES9_17ReflectionMapHashIS8_EN14dense_hash_mapIS9_jSD_NS9_14EqualsComparerINS0_8equal_toIS8_EEEENS0_9allocatorISB_EEE9SelectKeyESI_SK_E6insertERKSB_
Lzh:_ValueCollection_System_Collections_Generic_ICollectionU3CTValueU3E_Remove_m4188992987_gshared
M9:__ZN14FileCacherReadD2Ev
yhb:__ZN13RendererScene23UpdatePreviousFrameDataEii
ild:_RSAPKCS1SignatureDeformatter_VerifySignature_m1825067195
zxi:_RectTransform_remove_reapplyDrivenProperties_m52143263
pSi:__ZL25UnresolvedVirtualCall_123P12Il2CppObjectffPK10MethodInfo
Flc:__Z50Register_UnityEngine_CullingGroup_FinalizerFailurev
yYe:_KeyValuePair_2_ToString_m2613351884_gshared
gib:__ZN27UnloadUnusedAssetsOperationD0Ev
jYg:__ZL69ColorBlock_t2652774230_CustomAttributesCacheGenerator_m_DisabledColorP21CustomAttributesCache
GLh:_Scrollbar__ctor_m2244981801
kZi:_AnimationLayerMixerPlayable__ctor_m678972180
Mld:_SHA256Managed_HashCore_m4111458495
bee:_CultureInfo_get_CompareInfo_m3085280862
kWf:_ObjectManager_RecordDelayedFixup_m1895730844
YM:__ZN9AudioClip23VirtualRedirectTransferER18StreamedBinaryReadILb0EE
Byf:_ClientSessionInfo_CheckDisposed_m1394638186
aYf:_SByte_Parse_m2544167007
Pqd:_Single_CompareTo_m2081476257
$we:_BigInteger__ctor_m2945783161
lAf:_TlsClientHello_Update_m1723542631
Xwi:_RectOffset_set_top_m1587840032
iIe:_IndexOutOfRangeException__ctor_m3497760912
Ej:_glCopyTexSubImage2D
gTf:_RealProxy_InternalGetTransparentProxy_m3415358600
QZe:_Enumerator_System_Collections_IEnumerator_Reset_m2200349770_gshared
KAj:__ZN6il2cpp6icalls8mscorlib6System7Convert24InternalFromBase64StringEP12Il2CppStringb
Pmd:_SymmetricAlgorithm_CreateDecryptor_m4240570785
uRh:_Text_get_preferredWidth_m3352156860
n7c:__ZN2UI13CanvasManager14GetRenderOrderEPKNS_6CanvasE
dub:__Z18Transfer_BlittableI14SafeBinaryReadLb0E5RectTIfEEvRK29SerializationCommandArgumentsR31RuntimeSerializationCommandInfo
Ifd:__ZNK20UnityWebRequestProtoI24UnityWebRequestTransport16AtomicRefCounter14RedirectHelper14ResponseHelper15DownloadHandler13UploadHandler12HeaderHelper14AsyncOperationE14GetUploadBytesEv
bof:_ReadOnlyCollection_1_System_Collections_Generic_IListU3CTU3E_RemoveAt_m878653284_gshared
xee:_DateTimeFormatInfo_GetFormat_m3676195179
uoa:__ZN14GfxContextGLES14GetFramebufferEv
eWj:_emscripten_glGenVertexArrays__wrapper
hra:__ZN6prcoreL21CreateRemapAnyBlitterE13TextureFormatS0_
ahc:__ZN17AnimationCurveTplIfE16StripInvalidKeysEv
tle:_Array_InternalArray__ICollection_Add_TisKeyValuePair_2_t3716250094_m2381539361_gshared
Dli:_InvokableCall_add_Delegate_m1994890856
jEe:_X509Extension_WriteLine_m2850991173
d6c:__ZNK2UI6Canvas17GetSortingLayerIDEv
MLc:__ZN14Raycast2DQuery8RunQueryEb
x7b:__Z13RegisterClassI17GlobalGameManagerEvv
C3a:__ZN8Renderer24SetupNewRendererForSceneEv
jge:_Array_InternalArray__ICollection_Remove_TisInt64_t909078037_m2653583130_gshared
WUi:_TextGenerator_Populate_Internal_m65392018
R1f:_Thread_get_ExecutionContext_m922067206
Bse:_BaseInvokableCall_ThrowOnInvalidArg_TisInt32_t2071877448_m2823200566_gshared
Mzc:__Z35Transfer_Blittable_FixedBufferFieldI8JSONReadtEvRK29SerializationCommandArgumentsR31RuntimeSerializationCommandInfo
pec:__ZN14PlayableOutput6HandleEv
k5a:__ZNK6Sprite22GetTypeVirtualInternalEv
sn:FUNCTION_TABLE_iiiiiiiiiiiiii
_dh:__Z100RuntimeInvoker_Void_t1841601450_SByte_t454417549_SByte_t454417549_Int32_t2071877448_SByte_t454417549PFvvEPK10MethodInfoPvPS4_
oXc:_UNITY_tt_get_cmap_info
QAb:__Z29Transfer_Blittable_ArrayFieldI24GenerateTypeTreeTransfer5RectTIiEEvRT_R9ArrayInfoRK23StaticTransferFieldInfo
YUa:__ZN16ReflectionProbes8ScheduleEN18ReflectionProbeJob7JobTypeEP15ReflectionProbei
Uhf:_Collection_1_IsFixedSize_m3675221982_gshared
Z_e:_Enumerator_MoveNext_m3293920409_AdjustorThunk
rGa:__Z18IsDirectoryCreatedRKN4core12basic_stringIcNS_20StringStorageDefaultIcEEEE
_4c:__ZN2UI13CanvasManagerD2Ev
S3h:_Comparer_1__cctor_m3112251759_gshared
gJf:_X509KeyUsageExtension_ToString_m1992050580
oTc:_UNITY_FT_GlyphLoader_Done
R9f:_ValueType_DefaultEquals_m2245650968
Aei:_BalancingGroup__ctor_m2474435406
j7h:_ConstructionCall__ctor_m1143766850
T3h:_Comparer_1_System_Collections_IComparer_Compare_m3203078743_gshared
eMc:__ZN19OverlapPointQuery2D14InitializeAABBER6b2AABB
cYc:_tt_cmap14_char_var_index
rHb:__Z35Transfer_Blittable_FixedBufferFieldI18StreamedBinaryReadILb0EEdEvRK29SerializationCommandArgumentsR31RuntimeSerializationCommandInfo
xZc:_psh_globals_new
VPe:_FileStream_Seek_m950719389
V1d:_Decimal_stripStyles_m294582157
kha:__ZN9GfxDevice20SetMaxBufferedFramesEi
fUc:__ZNK20TextRenderingPrivate8TextMesh22GetTypeVirtualInternalEv
S6g:__Z98RuntimeInvoker_Void_t1841601450_Int32_t2071877448_Int32_t2071877448_RuntimeObject_SByte_t454417549PFvvEPK10MethodInfoPvPS4_
qDc:__ZN10Collider2D19WakeAllBodyContactsEv
dQj:dynCall_vdd
O6c:__ZN2UIL17UnloadAllCanvasesEv
Z4b:__Z23ConvertIntegerToTypePtrIsEbPvR14SafeBinaryRead
Nwg:__ZL54_MethodBase_t1935530873_CustomAttributesCacheGeneratorP21CustomAttributesCache
PFc:__ZN12b2MouseJoint11ShiftOriginERK6b2Vec2
x9g:__Z96RuntimeInvoker_Void_t1841601450_SByte_t454417549_RuntimeObject_SByte_t454417549_SByte_t454417549PFvvEPK10MethodInfoPvPS4_
uWd:_FixedSizeArrayListWrapper_Remove_m1359458911
bji:_CameraCallback_Invoke_m2640212610
pra:__ZN6prcoreL29inner_stretch_rgb565_bilinearEPKNS_9InnerInfoE
Wfi:_Uri__ctor_m3927533881
X8c:__Z33Canvas_Get_Custom_PropWorldCameraP12Il2CppObject
IQh:_Text_get_mainTexture_m813502234
MIj:__ZN6il2cpp8metadata19Il2CppSignatureHash4HashERKNS_5utils13dynamic_arrayIPK10Il2CppTypeLj4EEE
LYb:__ZNK14RenderSettings19GetFlatAmbientColorEv
Jqa:__ZN6prcoreL10inner_flipILj4EEEvPhS1_j
$cb:__ZN18StreamedBinaryReadILb0EE21TransferSTLStyleArrayI10vector_mapIPKN5Unity4TypeE7Hash128NSt3__24lessIS6_EENS8_9allocatorINS8_4pairIS6_S7_EEEEEEEvRT_17TransferMetaFlags
oC:__ZNK27StateMachineBehaviourPlayer15IsSenderEnabledEv
ouh:_Enumerator_VerifyState_m2118679243_gshared
KJd:_InputField_get_shouldHideMobileInput_m3694613599
Nqc:__Z40Register_UnityEngine_Transform_SetParentv
Edh:__Z56RuntimeInvoker_TimeSpan_t3430258949_TimeSpan_t3430258949PFvvEPK10MethodInfoPvPS4_
b7a:__ZN14Texture2DArray17UploadToGfxDeviceEv
xnf:_ReadOnlyCollection_1_System_Collections_Generic_IListU3CTU3E_Insert_m4216310986_gshared
jkf:_ReadOnlyCollection_1_System_Collections_Generic_IListU3CTU3E_set_Item_m1532495847_gshared
PQ:__Z14FMODMemoryFreePvjPKc
lJd:_Image_AddQuad_m1600600902
O_c:_cf2_glyphpath_moveTo
xCc:__ZNK13BoxCollider2D22GetTypeVirtualInternalEv
X6d:_DateTimeOffset__ctor_m1796624924
zvd:_BaseRaycaster_OnDisable_m1716508791
Sy:__ZN7mecanim23TransformValueArrayLoopEiiiRKN4math4trsXES3_RNS_10ValueArrayEf
otf:_ASN1Convert_ToInt32_m2121135414
ctc:__ZN5IMGUI14GUIWindowStateD2Ev
PEj:_GC_is_heap_ptr
Yzi:_TouchScreenKeyboard_Open_m2033426733
zF:__ZN7mecanim5human10RetargetToEPKNS0_5HumanEPKNS0_9HumanPoseES6_RKN4math4trsXEPS4_PNS_8skeleton13SkeletonPoseTIS8_EESF_
Ky:__ZN7mecanim9animation8SeekClipERKNS0_12StreamedClipERNS0_18StreamedClipMemoryEf
jm:_emscripten_glIsTexture
Qt:__ZN24CompressedAnimationCurveaSERKS_
aWd:_ArrayListWrapper_CopyTo_m793444109
Qk:_emscripten_glHint
qOc:__ZZN10Collider2D15InitializeClassEvEN30FunctorImpl_98kDidAddComponent4CallEPviR11MessageData
V1c:_ft_var_readpackeddeltas
f6d:_DateTime_AddMilliseconds_m1813199744_AdjustorThunk
Tgg:_MethodBuilder_GetParameterCount_m467267889
qBj:__ZThn4_N6il2cpp2vm13CachedCCWBaseINS0_13ManagedObjectEE6AddRefEv
UDb:__Z35Transfer_Blittable_FixedBufferFieldI18StreamedBinaryReadILb1EEtEvRK29SerializationCommandArgumentsR31RuntimeSerializationCommandInfo
vxi:_RectTransform_INTERNAL_get_pivot_m4220117653
avf:_RSAManaged__ctor_m1680944437
mm:_SDL_UpperBlit
UUa:__Z35GetTextureDecodeValuesWithIntensity16TextureUsageMode17TextureColorSpace10ColorSpacef
eTd:_Byte_GetHashCode_m2885528842_AdjustorThunk
_jj:__ZN15dense_hashtableINSt3__24pairIK10KeyWrapperINS1_IPK9EventInfoP11Il2CppClassEEEjEES9_17ReflectionMapHashIS8_EN14dense_hash_mapIS9_jSD_NS9_14EqualsComparerINS0_8equal_toIS8_EEEENS0_9allocatorISB_EEE9SelectKeyESI_SK_E15set_deleted_keyERKSB_
pBh:_Dictionary_2_OnDeserialization_m2092139626_gshared
KFc:__ZNK12b2MouseJoint10GetAnchorAEv
Pli:_PersistentCall__ctor_m3653852388
JJb:__ZN14SafeBinaryRead20OverrideRootTypeNameEPKc
Q9:__ZN14FileCacherRead16UnlockCacheBlockEj
oDe:_X509Certificate_GetUnsignedBigInteger_m3491353542
Nc:_emscripten_glUniform1f
Q6b:__ZN13dynamic_arrayIS_I8Vector2fLj4EELj4EE18resize_initializedEjRKS1_12ResizePolicy
ADf:_SslStreamBase_get_MightNeedHandshake_m3432170694
PTc:__Z20ParseImageParametersR11UTF16StringRiRN20TextRenderingPrivate16TextFormatChangeE
Sc:_emscripten_glUniform1i
mzb:__Z18Transfer_BlittableI24GenerateTypeTreeTransferLb1EN4math12int3_storageEEvRK29SerializationCommandArgumentsR31RuntimeSerializationCommandInfo
S3:__Z33UnregisterDeviceEventCallbackImplPFv23UnityGfxDeviceEventTypeE
OLh:__Z14bankers_roundff
Clb:__ZN9ShaderLab16SerializedTagMapaSERKS0_
XY:__ZN11UnityEngine15CloudWebService16SessionContainer20RestoreSessionHeaderERKN4core12basic_stringIcNS2_20StringStorageDefaultIcEEEES8_RNS0_13SessionHeaderE
L6d:_DateTime_ToString_m1117481977
ogg:_GenericTypeParameterBuilder_GetGenericArguments_m277381309
KG:__ZN11UnityEngine9Animation27CreateAvatarBindingConstantER9TransformPKN7mecanim9animation14AvatarConstantERNS3_6memory9AllocatorE
H8f:_UInt64_System_IConvertible_ToDateTime_m2412118561
ckc:__ZN9BlobWriteC2ER13dynamic_arrayIhLj16EE24TransferInstructionFlags19BuildTargetPlatform
_7:__ZN14MessageHandler3GetEv
Yoa:__ZN10DynamicVBO9DrawChunkERK21DynamicVBOChunkHandle17ShaderChannelMaskS3_P17VertexDeclarationPKNS_10DrawParamsEi
ed:_emscripten_glAttachShader
omf:_ReadOnlyCollection_1__ctor_m1539890895_gshared
jha:__ZN9GfxDevice13SetActiveTierE12GraphicsTier
JZe:_Enumerator_System_Collections_IEnumerator_get_Current_m3079057684_AdjustorThunk
Ibb:__ZNSt3__26vectorIN4core12basic_stringIcNS1_20StringStorageDefaultIcEEEENS_9allocatorIS5_EEE6assignIPS5_EENS_9enable_ifIXaasr21__is_forward_iteratorIT_EE5valuesr16is_constructibleIS5_NS_15iterator_traitsISC_E9referenceEEE5valueEvE4typeESC_SC_
eAe:_KeyPairPersistence_get_UserPath_m3433052783
jog:__ZL58Decimal_t724701077_CustomAttributesCacheGenerator_MinusOneP21CustomAttributesCache
Mtb:__Z18Transfer_BlittableI14SafeBinaryReadLb0E11QuaternionfEvRK29SerializationCommandArgumentsR31RuntimeSerializationCommandInfo
uCc:__ZN13BoxCollider2D16CheckConsistencyEv
$Gb:__Z18Transfer_BlittableI18StreamedBinaryReadILb0EELb1E12PropertyNameEvRK29SerializationCommandArgumentsR31RuntimeSerializationCommandInfo
s1:_tlsf_walk_heap
OCe:_PKCS12_Decode_m731190390
l_h:_InternalEnumerator_1_get_Current_m1550231132_gshared
X9f:_Version_CheckedSet_m76493673
mb:invoke_vif
nb:invoke_vid
cOj:__ZNSt3__212basic_stringIcNS_11char_traitsIcEENS_9allocatorIcEEE6insertEjPKc
ZAg:__ZL67UnverifiableCodeAttribute_t765455733_CustomAttributesCacheGeneratorP21CustomAttributesCache
ob:invoke_vii
gSb:__ZNK12ImageFilters8DoRenderER17ShaderPassContextP13RenderTextureS3_RKNSt3__26vectorI11ImageFilterNS4_9allocatorIS6_EEEE
cFa:__ZN12TLSAllocatorI14StackAllocatorE16ThreadInitializeEP13BaseAllocator
yVd:_ArrayList_Sort_m2778059513
Kha:__ZN9GfxDevice32UpdateStereoViewProjectionMatrixE21MonoOrStereoscopicEye
SOb:__ZN15dense_hashtableINSt3__24pairIKN4core12basic_stringIcNS2_20StringStorageDefaultIcEEEEP20ArchiveStorageReaderEES6_20StringHash32FunctionIS6_EN14dense_hash_mapIS6_S9_SC_NS0_8equal_toIS6_EE13stl_allocatorISA_L18MemLabelIdentifier55ELi16EEE9SelectKeyESF_SI_E12resize_deltaEjj
cId:_LayoutGroup_SetChildAlongAxis_m2732017156
c8c:__Z41CanvasRenderer_CUSTOM_DisableRectClippingP12Il2CppObject
Ttf:_MD2_Create_m539024737
afh:__Z112RuntimeInvoker_Void_t1841601450_RuntimeObject_Int32_t2071877448_Int32_t2071877448_RuntimeObject_SByte_t454417549PFvvEPK10MethodInfoPvPS4_
tJa:__ZN25SingleBlockMemoryFileDataD0Ev
mFa:__ZNSt3__26vectorI14ConstantStringNS_9allocatorIS1_EEE6assignINS_11__wrap_iterIPS1_EEEENS_9enable_ifIXaasr21__is_forward_iteratorIT_EE5valuesr16is_constructibleIS1_NS_15iterator_traitsISA_E9referenceEEE5valueEvE4typeESA_SA_
SY:__ZN11UnityEngine15CloudWebService16SessionContainer21ConvertFromFolderTimeERKN4core12basic_stringIcNS2_20StringStorageDefaultIcEEEEPjPt
xvb:__ZNSt3__26vectorI8GUIStyle13stl_allocatorIS1_L18MemLabelIdentifier1ELi16EEE7reserveEj
coj:__ZN6il2cpp6icalls8mscorlib6System9Threading6Thread27GetSerializedCurrentCultureEP12Il2CppThread
Fke:_Array_InternalArray__IndexOf_TisUInt32_t2149682021_m3231515987_gshared
x9b:__Z31CalculateHierarchyTransformType23TransformAccessReadOnly
V7b:__Z13RegisterClassI11TimeManagerEvv
GQ:__ZN4FMOD8ChannelI11setPositionEjj
p8g:__Z136RuntimeInvoker_IntPtr_t_RuntimeObject_Int32_t2071877448_Int32_t2071877448_Int32_t2071877448_Int32_t2071877448_MonoIOErrorU26_t1029615899PFvvEPK10MethodInfoPvPS4_
Nha:__ZN9GfxDevice17SetStereoViewportE15StereoscopicEyeRK5RectTIiE
_ea:__ZN17BaseObjectManager13StaticDestroyEPv
F7d:_DBNull_System_IConvertible_ToChar_m3344298044
_ai:_LinkStack_Push_m2660199875
zP:__ZN4FMOD6Reverb13setPropertiesEPK22FMOD_REVERB_PROPERTIES
UTb:__ZN9DepthPass13PrepareSubsetEjRK10RenderNodeifRK17ShaderReplaceData
H0f:_UTF32Encoding_GetPreamble_m767706727
Cri:_X509CertificateCollection_Add_m4008705157
xgc:__Z35SetMeshComponentFromArrayFromScriptR4Mesh30InternalScriptingShaderChannel34InternalScriptingVertexChannelTypei17ScriptingArrayPtri
hof:_ReadOnlyCollection_1_System_Collections_IList_Add_m3806843030_gshared
aff:_Collection_1_IsFixedSize_m1816795498_gshared
jq:__ZN4core20StringStorageDefaultIcE6assignEPKcj
fuj:__ZN15dense_hashtableINSt3__24pairIK10KeyWrapperIP12Il2CppObjectEN6il2cpp2gc9CachedCCWEEES5_NS7_5utils11PointerHashIS3_EEN14dense_hash_mapIS5_S9_SD_NS5_14EqualsComparerINS0_8equal_toIS4_EEEENS0_9allocatorISA_EEE9SelectKeyESI_SK_E3endEv
Lyd:_MouseButtonEventData_ReleasedThisFrame_m482758300
oyi:_SceneManager_Internal_SceneLoaded_m1729738062
Skj:__ZN15dense_hashtableINSt3__24pairIK10KeyWrapperINS1_IP11Il2CppClassjEEES4_EES6_N6il2cpp8metadata14ArrayClassHashEN14dense_hash_mapIS6_S4_SB_NS6_14EqualsComparerINSA_17ArrayClassCompareEEENS0_9allocatorIS8_EEE9SelectKeyESF_SH_E9copy_fromERKSK_j
zWd:_ReadOnlyArrayListWrapper_set_Item_m2199017141
b1b:__ZN6Camera6SetFarEf
xri:_DeriveBytes_DeriveIV_m3343375195
NUc:_UNITY_FT_Init_Class_ft_bitmap_glyph_class
Ckd:_RNGCryptoServiceProvider_GetBytes_m167497991
Zra:__ZN6prcoreL12RemapGenericI17TexFormatABGR888817TexFormatARGB8888EEvPKNS_9InnerInfoE
EKa:__ZN11GameManager17MainThreadCleanupEv
Syi:_SetupCoroutine_InvokeMember_m170868586
J9c:__Z50Register_UnityEngine_UISystemProfilerApi_EndSamplev
oeg:_TypeBuilder_get_Assembly_m492491492
Kb:invoke_vffff
FCc:__ZN10Collider2D12AddToManagerEv
L0c:_UNITY_tt_slot_init
LPb:__ZZ23InitPlayerLoopCallbacksvEN41PostLateUpdateUpdateResolutionRegistrator7ForwardEv
Cje:_Array_FindLastIndex_TisRuntimeObject_m986818300_gshared
HIb:__Z25scripting_array_class_get17ScriptingClassPtrj
Oxc:__ZL22Transfer_ManagedObjectI9JSONWriteLb1EEvRK29SerializationCommandArgumentsR31RuntimeSerializationCommandInfo
GM:__ZNK10SampleClip22GetTypeVirtualInternalEv
Sia:__ZN9GfxDevice20DestroyRenderSurfaceER12ObjectHandleI17RenderSurface_TagP17RenderSurfaceBaseE
Qfa:__ZN18SpriteAtlasManagerC2Ev
m6b:__ZL24PrepareSpriteRenderNodesILb1EEvR35RenderNodeQueuePrepareThreadContext
CBa:__ZN9GfxDevice22UpdateComputeResourcesEjPK9TextureIDPK16TextureDimensionPKijPKjjPK15ComputeBufferIDS7_PK20ComputeBufferCounterjSC_S2_S5_S9_SF_
NNa:__ZN12_GLOBAL__N_15qAsinEff
Wre:_Dictionary_2_Do_ICollectionCopyTo_TisKeyValuePair_2_t3749587448_m2536766696_gshared
dFa:__ZN12TLSAllocatorI14StackAllocatorE13ThreadCleanupEv
Lih:__Z154RuntimeInvoker_RaycastHit2D_t4063908774_Vector2_t2243707579_Vector2_t2243707579_Single_t2076509932_Int32_t2071877448_Single_t2076509932_Single_t2076509932PFvvEPK10MethodInfoPvPS4_
Gje:_Array_IndexOf_TisRuntimeObject_m1815604637_gshared
uAj:__ZThn4_N6il2cpp2vm13ComObjectBase16MarshalInterfaceEP13Il2CppIStreamRK10Il2CppGuidPvjS7_j
o8a:__ZN4Mesh27SwizzleVertexColorsIfNeededEb
sLb:__Z27FindActiveTransformWithPathPKc
Sui:_PropertyName_op_Inequality_m2830582941
sEe:_SecurityParser_OnEndElement_m2909940377
pNa:__ZNK6Camera7GetNearEv
fva:__ZN7ApiGLES11UnmapBufferEjN2gl12BufferTargetE
EAj:__ZN6il2cpp5utilsL24Utf32CharToSurrogatePairEjRA2_Ds
F0a:__Z25GetNextAllowedTextureSizeib13TextureFormat
kLb:__ZN20LocalFileSystemWebGL4CopyER13FileEntryDataS1_
o5e:_List_1_CheckIndex_m4231572822_gshared
r$:__ZN19CloudServiceHandler6RetainEv
gpd:_StrongName_Equals_m67226644
Ntc:__Z36Event_CUSTOM_Internal_SetNativeEventPv
QNa:__ZN12BaseRenderer20FlattenToRenderQueueER15RenderNodeQueueRK20DeprecatedSourceData
FTe:_UnmanagedMemoryStream_get_Length_m587008850
yib:__Z34scripting_liveness_calculation_endPv
Drc:__ZNK19RectangleCellLayout13GetCellCenterEv
eyj:__ZN6il2cpp2os6ThreadC2Ev
Vpd:_SecurityFrame_InitFromRuntimeFrame_m45195821
kLf:_X509Chain_IsSignedWith_m292245392
ey:__ZN21AnimationClipPlayable22ProcessAnimationNoClipEPK35AnimationPlayableEvaluationConstantPK32AnimationPlayableEvaluationInputP33AnimationPlayableEvaluationOutput
ege:_Array_InternalArray__ICollection_Remove_TisDateTime_t693205669_m1275668216_gshared
smf:_ReadOnlyCollection_1_System_Collections_Generic_ICollectionU3CTU3E_Remove_m3751131234_gshared
ozc:__Z18Transfer_BlittableI8JSONReadLb0E8Vector3fEvRK29SerializationCommandArgumentsR31RuntimeSerializationCommandInfo
tt:__ZN13AnimationClip12Vector3Curve8TransferI14SafeBinaryReadEEvRT_
E7h:_ChannelServices__cctor_m3534779830
tmj:__ZN6il2cpp2vm6Thread6DetachEP12Il2CppThread
axi:_RectOffset_Finalize_m816260249
DAi:_Transform_set_localRotation_m3053695533
LYc:_Render_Single_Pass
N2d:_Convert_ToInt16_m416789348
IZf:_EncoderExceptionFallback_Equals_m762170768
UMi:_EqualityComparer_1__cctor_m2666196678_gshared
PPc:__GLOBAL__sub_I_runtime_dynamics_2_cpp
evh:_Enumerator_get_CurrentValue_m3147984131_AdjustorThunk
QG:__ZN7mecanim8skeleton30SkeletonBuildReverseIndexArrayEPiPKiPKNS0_8SkeletonES6_
Src:__Z19GetGUIBlendMaterialv
fjh:__Z69RuntimeInvoker_Boolean_t3825574718_TextGenerationSettings_t2543476768PFvvEPK10MethodInfoPvPS4_
zwj:__ZN6il2cpp2os10ThreadImpl5SleepEjb
Hhf:_Collection_1_InsertItem_m1073626529_gshared
MH:__ZN18AnimatorController23VirtualRedirectTransferER24GenerateTypeTreeTransfer
pFf:_ListDictionary_FindEntry_m432748847
GVj:_glBindSampler__wrapper
uKa:__ZNSt3__26vectorIN20ArchiveStorageHeader12StorageBlockE13stl_allocatorIS2_L18MemLabelIdentifier55ELi16EEE8__appendEj
Kf:_emscripten_set_mouseup_callback
Ese:_BaseInvokableCall_ThrowOnInvalidArg_TisColor_t2020392075_m3638385415_gshared
_2b:__ZNK18ScreenManagerWebGL8GetWidthEv
FPi:_AudioExtensionManager_GetListenerSpatializerExtensionEditorType_m165088149
LHd:_GridLayoutGroup_set_startAxis_m1635162426
DM:__ZN10SampleClipD2Ev
jai:_SynchronizationAttribute_EnterContext_m2984912761
oee:_CultureInfo_construct_internal_locale_from_name_m971766383
Rhb:__Z13GetGISettingsv
kme:_Array_InternalArray__ICollection_Add_TisUIVertex_t1204258818_m3869382594_gshared
b$:__ZN11UnityEngine15CloudWebService20WebRequestRestClientC2Ev
f0c:_cff_cmap_unicode_init
Ibe:_Enum_ToObject_m2460371738
Yxe:_PrimalityTests_Test_m1088386156
HCi:_Vector4_SqrMagnitude_m1060560279
CMj:_readlink
Chj:__ZN15dense_hashtableINSt3__24pairIK10KeyWrapperINS1_IPK9EventInfoP11Il2CppClassEEEjEES9_17ReflectionMapHashIS8_EN14dense_hash_mapIS9_jSD_NS9_14EqualsComparerINS0_8equal_toIS8_EEEENS0_9allocatorISB_EEE9SelectKeyESI_SK_E12resize_deltaEjj
zqe:_Array_Resize_TisVector3_t2243707580_m893658391_gshared
iWh:_InternalEnumerator_1_System_Collections_IEnumerator_get_Current_m4259662004_AdjustorThunk
Xte:_Array_InternalArray__get_Item_TisKeyframe_t1449471340_m1003508933_gshared
GGj:__ZN6il2cpp8metadata14Il2CppTypeHash4HashEPK10Il2CppType
SHj:__ZN6il2cpp2os13SemaphoreImplC2Eii
Dbh:__Z50RuntimeInvoker_Double_t4078015681_Int64_t909078037PFvvEPK10MethodInfoPvPS4_
ICe:_StrongName_get_PublicKeyToken_m1968460885
Tab:__ZNK6Sprite9GetBoundsE8Vector2fbb
NQa:__ZNK19RenderEventsContext21CleanupCommandBuffersEv
HI:__ZN7mecanim12statemachine13StateConstant8TransferI14SafeBinaryReadEEvRT_
Dma:__ZN11ContextGLES6CreateEi
mNe:_BinaryReader_Dispose_m4249456877
S1d:_Double_ToString_m1085043609
PHb:__Z19TransferField_ArrayI18StreamedBinaryReadILb0EE27Converter_SimpleNativeClassI17AnimationCurveTplIfEEEvRK23StaticTransferFieldInfoR31RuntimeSerializationCommandInfoRT0_
vwf:_CipherSuite_createEncryptionCipher_m1926075645
yqi:_Plane__ctor_m730644932
IEa:__ZN14StackAllocator16FrameMaintenanceEb
eHd:_Graphic_Raycast_m3582517890
rOc:__ZZN10Collider2D15InitializeClassEvEN33FunctorImpl_99kDidRemoveComponent4CallEPviR11MessageData
Aaa:__ZNK10GameObject20QueryComponentByTypeEPKN5Unity4TypeE
JIi:_GUISkin_MakeCurrent_m1547433985
O_e:_Enumerator_MoveNext_m1367380970_AdjustorThunk
Hhg:_OpCode_GetHashCode_m2974727122
y_d:_Enumerator_Reset_m466659019
wwf:_CipherSuite_createDecryptionCipher_m1118350455
dci:_PatternCompiler_EmitReference_m1381860071
yae:_Double_System_IConvertible_ToInt16_m4200640326
Uih:__Z84RuntimeInvoker_RuntimeObject_RayU26_t3651946800_Single_t2076509932_Int32_t2071877448PFvvEPK10MethodInfoPvPS4_
Q$a:__ZN11TextureData5ResetEv
mmc:__Z53Register_UnityEngine_GameObject_get_activeInHierarchyv
rga:__ZN15dense_hashtableINSt3__24pairIKN4core12basic_stringIcNS2_20StringStorageDefaultIcEEEE13dynamic_arrayI4PPtrI6SpriteELj4EEEES6_20StringHash32FunctionIS6_EN14dense_hash_mapIS6_SC_SF_NS0_8equal_toIS6_EE13stl_allocatorISD_L18MemLabelIdentifier81ELi16EEE9SelectKeyESI_SL_EC2ERKSO_j
M5:__ZL30InitializeCoreScriptingClassesv
Shf:_Collection_1_CheckWritable_m3938993573_gshared
Gg:_glBlitFramebuffer
eye:_BigInteger_GeneratePseudoPrime_m2606361440
jxb:__Z35Transfer_Blittable_SingleValueFieldI14SafeBinaryReadhEvRT_R17GeneralMonoObjectRK23StaticTransferFieldInfo
efc:__ZN12CachedWriter15CompleteWritingEv
RRf:_RemotingServices_GetRealProxy_m620317996
gUb:__ZN13dynamic_arrayI11CulledLightLj4EE6insertEPS0_PKS0_S4_
U_a:__ZNK12CubemapArray22GetTypeVirtualInternalEv
SWi:_Predicate_1_Invoke_m2060780095_gshared
q6i:__ZN6il2cpp2vm13MetadataCache23GetInterfaceOffsetIndexEi
Qn:FUNCTION_TABLE_vif
Rn:FUNCTION_TABLE_vid
Sn:FUNCTION_TABLE_vii
Jib:__Z40scripting_liveness_calculation_from_root18ScriptingObjectPtrPv
BXa:__ZN7Texture23VirtualRedirectTransferER24GenerateTypeTreeTransfer
tSc:_UNITY_FT_Set_Transform
ttj:__ZN6il2cpp8metadata15GenericMetadata20RegisterGenericClassEP18Il2CppGenericClass
Aeh:__Z101RuntimeInvoker_OpFlags_t378191910_SByte_t454417549_SByte_t454417549_SByte_t454417549_SByte_t454417549PFvvEPK10MethodInfoPvPS4_
lVj:_glDeleteFramebuffers__wrapper
DId:_Image_get_overrideSprite_m706080347
Wrf:_BigInteger_ModInverse_m1881894572
A9i:__ZN6il2cpp2vm7Runtime17GetDelegateInvokeEP11Il2CppClass
dcc:__ZZN12MeshRenderer15InitializeClassEvEN29FunctorImpl_134kDidDeleteMesh4CallEPviR11MessageData
Y6b:__Z22GenerateBoxTilingShapeP22GenerateTilingAreaInfo
W1a:__ZN28EnlightenRendererInformation8TransferI14SafeBinaryReadEEvRT_
Rdh:__Z88RuntimeInvoker_RuntimeObject_RuntimeObject_Int32_t2071877448_RuntimeObject_RuntimeObjectPFvvEPK10MethodInfoPvPS4_
Qvg:__ZL69DefaultDependencyAttribute_t3858269114_CustomAttributesCacheGeneratorP21CustomAttributesCache
JJa:__ZNK15Lz4Decompressor16DecompressMemoryEPKvPjPvS2_
eXc:_UNITY_tt_face_build_cmaps
tNc:__ZN11Rigidbody2D8TransferI24GenerateTypeTreeTransferEEvRT_
oZa:__Z35UnityPropertySheet_MakeSortedColorsRKNSt3__23mapIN9ShaderLab16FastPropertyNameE10ColorRGBAfNS_4lessIS2_EENS_9allocatorINS_4pairIKS2_S3_EEEEEER10vector_mapIS2_S3_S5_NS6_INS7_IS2_S3_EEEEE
d8d:_Decimal_System_IConvertible_ToType_m3828527724_AdjustorThunk
rWc:_UNITY_tt_face_load_os2
Ltf:_HMAC_get_Key_m2528863640
Eif:_Collection_1_IsSynchronized_m1366278230_gshared
Bwb:__Z29Transfer_Blittable_ArrayFieldI14SafeBinaryRead8Vector4fEvRT_R9ArrayInfoRK23StaticTransferFieldInfo
yee:_Array_get_swapper_TisInt32_t2071877448_m2837069166_gshared
AMh:_Selectable_Navigate_m915280351
n8h:_ConfigHandler_CheckPath_m2296459741
dyd:_PointerEventData_IsScrolling_m1971908975
CPb:__ZZ23InitPlayerLoopCallbacksvEN51PostLateUpdateUpdateCustomRenderTexturesRegistrator7ForwardEv
p8d:_Decimal_System_IConvertible_ToInt16_m3159038792
Cy:__ZN7mecanim9animation12EvaluateClipEPKNS0_4ClipEPKNS0_9ClipInputEPNS0_10ClipMemoryEPNS0_10ClipOutputE
Peb:__ZNSt3__26vectorIN15ResourceManager10DependencyE13stl_allocatorIS2_L18MemLabelIdentifier52ELi16EEEC2INS_11__wrap_iterIPS2_EEEET_SB_RKS5_PNS_9enable_ifIXaasr21__is_forward_iteratorISB_EE5valuesr16is_constructibleIS2_NS_15iterator_traitsISB_E9referenceEEE5valueEvE4typeE
hlg:_MonoMethodInfo_GetReturnType_m2864247130
T$b:__ZN13RenderManager29SetCurrentCameraAndStackStateEP6CameraP25CameraStackRenderingState
AAi:_Transform_INTERNAL_get_rotation_m1873681960
DMa:__ZNSt3__26__treeINS_12__value_typeIjN4core12basic_stringIcNS2_20StringStorageDefaultIcEEEEEENS_19__map_value_compareIjS7_NS_4lessIjEELb1EEE13stl_allocatorIS7_L18MemLabelIdentifier7ELi16EEE7destroyEPNS_11__tree_nodeIS7_PvEE
fmj:__ZN15dense_hashtableINSt3__24pairIK10KeyWrapperINS1_IP11Il2CppClassjEEES4_EES6_N6il2cpp8metadata14ArrayClassHashEN14dense_hash_mapIS6_S4_SB_NS6_14EqualsComparerINSA_17ArrayClassCompareEEENS0_9allocatorIS8_EEE9SelectKeyESF_SH_E12resize_deltaEjj
Vh:_JS_WebRequest_Release
zOe:_DirectoryNotFoundException__ctor_m2242202556
qZ:__ZN11UnityEngine15CloudWebService14DataErrorEventD0Ev
Apj:__ZN6il2cpp6icalls8mscorlib6System4Type20internal_from_handleEi
ptd:_String_CreateString_m2448464375
RMf:_X509SubjectKeyIdentifierExtension__ctor_m2959112706
fvh:_Enumerator_Reset_m1147555085_AdjustorThunk
fjg:_FieldInfo_get_IsNotSerialized_m2322769148
ptj:__ZN6il2cpp8metadata15GenericMetadata7InflateEPK19Il2CppGenericMethodPK20Il2CppGenericContext
r1a:__ZN19ShaderPropertySheet16SetArrayPropertyEN9ShaderLab16FastPropertyNameENS_12PropertyTypeEPKvj
alg:_MonoGenericCMethod_get_ReflectedType_m2689239043
Jtf:_CryptoConvert_ToHex_m3804747475
Fif:_Collection_1_IsFixedSize_m499196375_gshared
VCd:_ColorTween_set_startColor_m3546206870_AdjustorThunk
P4c:__ZN2UI11CanvasGroup23VirtualRedirectTransferER19StreamedBinaryWriteILb0EE
pZh:_InternalEnumerator_1_get_Current_m4083613828_gshared
Dbj:__ZN6il2cpp2os4File11GetStdErrorEv
XUi:_TextGenerator_INTERNAL_CALL_Populate_Internal_cpp_m106350432
ktc:__ZN8GUIState8EndOnGUIEv
p0f:_UnicodeEncoding_GetString_m542738941
S0c:_UNITY_TT_Get_VMetrics
_Ne:_Path_InsecureGetFullPath_m2635272425
M5d:_DateTime_System_IConvertible_ToUInt32_m1363211018
jvi:_Quaternion_ToString_m1042358501
mhe:_SetPropertyUtility_SetStruct_TisSingle_t2076509932_m3849235084_gshared
wpa:__ZN7Texture21GetMasterTextureLimitEv
J1b:__Z12CanAddScriptR10GameObject17ScriptingClassPtrPS1_S2_
Bkj:__ZN6il2cpp2vm10Reflection12HasAttributeEP12Il2CppObjectP11Il2CppClass
xnd:_X509Certificate_GetExpirationDateString_m2351894475
I4:__ZN9ShaderLabL25StaticInitializeShaderLabEPv
U:Math_max
maj:_il2cpp_class_get_methods
bOe:_Path_CanonicalizePath_m383914732
muh:_Enumerator_System_Collections_IEnumerator_get_Current_m1631145297_gshared
pzb:__Z18Transfer_BlittableI24GenerateTypeTreeTransferLb0EN4math12int2_storageEEvRK29SerializationCommandArgumentsR31RuntimeSerializationCommandInfo
DVd:_ArrayList_Synchronized_m2395071980
kyj:__ZN6il2cpp2os6Thread16GetCurrentThreadEv
Ddc:__ZN10GameObject13ComponentPair15SetComponentPtrEPN5Unity9ComponentE
zTe:_UnexceptionalStreamWriter_Write_m3206913035
G7b:__Z13RegisterClassI10MeshFilterEvv
LMa:__ZN10TagManager8TransferI19StreamedBinaryWriteILb0EEEEvRT_
$hb:__ZN11PreloadData23VirtualRedirectTransferER18StreamedBinaryReadILb0EE
QD:__Z17dynamic_pptr_castIP10MonoScript6ObjectET_RK4PPtrIT0_E
fAj:__ZN6il2cpp6icalls8mscorlib6System10ReflectionL40il2cpp_class_get_generic_type_definitionEP11Il2CppClass
oZf:_DESTransform_ProcessBlock_m2826669227
PIe:_Int16_CompareTo_m3493496879
i5a:__ZN6Sprite17MainThreadCleanupEv
hS:__ZN10AudioMixer14UpdateMuteSoloEv
PLa:__ZN9Transform35SetLocalPositionWithoutNotificationERKN4math7_float3Ey
ZJh:_MaskableGraphic_UnityEngine_UI_IClippable_get_gameObject_m954171032
Vi:_JS_Eval_ClearTimeout
joa:__ZN7ApiGLES16SetPatchVerticesEi
XQe:_MonoIOStat_t1621921065_marshal_pinvoke
dJa:__ZN10MemoryFileC2E18MemLabelIdentifierP14MemoryFileData14FilePermission
OSf:_TrackingServices_NotifyUnmarshaledObject_m1794048369
q$i:__ZN6il2cpp2vm5Class20FromGenericParameterEPK22Il2CppGenericParameter
Q$:__ZN19CloudServiceHandler11FlushEventsEv
Bea:__ZN15GlobalCallbacksC2Ev
$oe:_Array_InternalArray__set_Item_TisLabelFixup_t4090909514_m565370771_gshared
FDj:_GC_print_static_roots
CNc:__ZN7b2World10CreateBodyEPK9b2BodyDef
UTc:_UNITY_FT_New_Memory_Face
MRc:__ZN20TextRenderingPrivate21TextMeshGeneratorImpl5FlushEv
Xod:__Z15CastclassSealedP12Il2CppObjectP11Il2CppClass
B0b:__ZN16ReflectionProbes40UpdateRealtimeReflectionProbesTimeslicedEv
cfb:__ZNK30RuntimeInitializeOnLoadManager22GetTypeVirtualInternalEv
Y3i:__ZN15dense_hashtableINSt3__24pairIK10KeyWrapperIN6il2cpp5utils13dynamic_arrayIPK10Il2CppTypeLj4EEEEPFvvEEESA_NS3_8metadata19Il2CppSignatureHashEN14dense_hash_mapISA_SD_SG_NSA_14EqualsComparerINSF_22Il2CppSignatureCompareEEENS0_9allocatorISE_EEE9SelectKeyESK_SM_E12resize_deltaEjj
lbc:__ZN16ReflectionProbes15InitializeClassEv
UFj:__ZN6il2cpp5utils5MatchENSt3__212basic_stringIcNS1_11char_traitsIcEENS1_9allocatorIcEEEEjRKS7_j
fVc:_UNITY_FT_Destroy_Class_psnames_module_class
Hbi:_MRUList_Evict_m2430323183
Wmf:_ReadOnlyCollection_1_System_Collections_Generic_ICollectionU3CTU3E_Remove_m1060547576_gshared
dih:__Z68RuntimeInvoker_Boolean_t3825574718_Rect_t3681755626_SByte_t454417549PFvvEPK10MethodInfoPvPS4_
zte:_Array_InternalArray__get_Item_TisRuntimeObject_m371871810_gshared
WD:__ZN8Animator13BatchedFKPassERK13dynamic_arrayIP14PlayableOutputLj4EE
EBf:_RecordProtocol_ProcessChangeCipherSpec_m3233959862
sre:_Array_Sort_TisVector4_t2243707581_m474199742_gshared
pba:__ZN13RuntimeStaticINSt3__23mapIN4core12basic_stringIcNS2_20StringStorageDefaultIcEEEES6_NS0_4lessIS6_EE13stl_allocatorINS0_4pairIKS6_S6_EEL18MemLabelIdentifier13ELi16EEEELb0EE13StaticDestroyEPv
N_i:_Rigidbody2D_AddForce_m1687473487
hTe:_TextWriter_Write_m576684782
Tj:_glIsVertexArray
rJa:__ZN25SingleBlockMemoryFileDataC2E18MemLabelIdentifierPvjb
fa:invoke_fff
_Qh:_Text_get_fontSize_m3105730761
rSj:b14
VAf:_TlsServerHello_Update_m1740270635
Z3c:__ZN2UI6Canvas17MainThreadCleanupEv
Hra:__ZN6prcoreL12RemapGenericI17TexFormatARGB155517TexFormatRGBA8888EEvPKNS_9InnerInfoE
GNh:_ScrollRect_Rebuild_m3423824761
$7e:_List_1_Find_m3862454845_gshared
wbi:_MatchCollection_get_Item_m2609281578
Fza:__ZN7ApiGLES13CreateProgramEv
qSa:__ZN11HaloManager7AddHaloEv
j1f:_UTF8Encoding__ctor_m100325490
ype:_Array_InternalArray__set_Item_TisTouch_t407273883_m3356370177_gshared
Lpa:__ZN4crnd12crn_unpackerD2Ev
DQh:_StencilMaterial_ClearAll_m1372779118
dk:_emscripten_glTexImage2D
rRf:_ObjRefSurrogate_SetObjectData_m1873902916
D0c:_tt_driver_class_pic_init
B5:__ZN18ScriptingArguments9AddStringEPKc
TDj:_setup_header
dPj:runPostSets
Pqa:__ZL23stbir__resize_arbitraryPvPKviiiS_iiiffffPfiij14stbir_datatype12stbir_filterS4_10stbir_edgeS5_16stbir_colorspace
T3e:_List_1_System_Collections_IList_Insert_m848656350_gshared
Jzb:__Z18Transfer_BlittableI24GenerateTypeTreeTransferLb1E8Vector4fEvRK29SerializationCommandArgumentsR31RuntimeSerializationCommandInfo
uKe:_Int16_ToString_m3971652088_AdjustorThunk
ok:_pthread_detach
Z6i:__ZN6il2cpp2vm19SocketPollingThread7RunLoopEv
LQf:_MethodDictionary_AllocInternalProperties_m3261295876
_dc:__ZN15DirectorManager20ScheduleGraphDestroyERK14HPlayableGraph
BIb:__ZNSt3__213__stable_sortIRN10vector_mapI17ScriptingClassPtrPKN5Unity4TypeENS_4lessIS2_EENS_9allocatorINS_4pairIS2_S6_EEEEE13value_compareENS_11__wrap_iterIPSB_EEEEvT0_SJ_T_NS_15iterator_traitsISJ_E15difference_typeEPNSM_10value_typeEi
omb:__ZN9ShaderLab25SerializedTextureProperty8TransferI24GenerateTypeTreeTransferEEvRT_
nrf:_Comparison_1_Invoke_m2645957248_gshared
YZj:_emscripten_glIsShader__wrapper
tij:__ZN6il2cpp2gc19AppendOnlyGCHashMapINSt3__24pairIPK14Il2CppAssemblyP11Il2CppClassEEP24Il2CppReflectionAssembly17ReflectionMapHashIS9_ENS2_8equal_toIS9_EEEC2Ev
pWf:_DelegatePInvokeWrapper_CallbackHandler_t362827733
mAc:__Z18Transfer_BlittableI8JSONReadLb1EyEvRK29SerializationCommandArgumentsR31RuntimeSerializationCommandInfo
Lk:_emscripten_glMatrixMode
ow:__ZN8Animator23VirtualRedirectTransferER18StreamedBinaryReadILb0EE
lPe:_NotSupportedException__ctor_m836173213
bRf:_MethodReturnDictionary__ctor_m756139344
MY:__ZN11UnityEngine15CloudWebService14DataDispatcher16PrepareDataBlockERNS0_16SessionContainerE
gAa:__ZN18GfxFramebufferGLES5ClearE13GfxClearFlagsRK10ColorRGBAffib
Wbh:__Z52RuntimeInvoker_Single_t2076509932_Double_t4078015681PFvvEPK10MethodInfoPvPS4_
eHb:__ZL26Transfer_SimpleNativeClassI18StreamedBinaryReadILb0EE10RectOffsetLb0EEvRK29SerializationCommandArgumentsR31RuntimeSerializationCommandInfo
cVc:_UNITY_ft_destroy_default_module_classes
v1e:_List_1_CheckMatch_m1772343151_gshared
DTb:__ZL12DepthPassJobPN21GfxDeviceAsyncCommand10ArgScratchEPKNS_3ArgE
Pkb:__ZNSt3__26vectorIN9ShaderLab20SerializedSubProgram16TextureParameterENS_9allocatorIS3_EEE6assignINS_11__wrap_iterIPS3_EEEENS_9enable_ifIXaasr21__is_forward_iteratorIT_EE5valuesr16is_constructibleIS3_NS_15iterator_traitsISC_E9referenceEEE5valueEvE4typeESC_SC_
Jvc:__ZN5Unity9rapidjson6WriterI16TempBufferWriterNS0_4UTF8IcEES4_13JSONAllocatorE11WriteDoubleEd
LMe:_IntPtr_Equals_m1214967011_AdjustorThunk
T6e:_List_1_Add_m3591975577_gshared
nva:__ZN14GfxDeviceStats16CopyAllDrawStatsERKS_
g8b:__Z13RegisterClassI19LowerResBlitTextureEvv
Pm:FUNCTION_TABLE_iiiiiiiiiiii
LJj:_ChangeSceneOnClickScript_Update_m3064201586
cJi:_GUIUtility_Internal_GetPixelsPerPoint_m1075452981
BRa:__ZN16GraphicsSettingsD0Ev
dXj:_pthread_mutex_init__wrapper
n:cttz_i8
MUc:_UNITY_FT_GlyphLoader_Add
bli:_Display_FireDisplaysUpdated_m2197288612
y1d:_DateTimeFormatInfo_get_FullDateTimePattern_m2607507656
tBf:_HttpsClientStream_RaiseServerCertificateValidation_m3356770426
hxi:_RectTransform_INTERNAL_set_anchorMin_m3893342226
Kre:_Array_swap_TisUIVertex_t1204258818_TisUIVertex_t1204258818_m1163375424_gshared
Il:_emscripten_glViewport
L6b:__Z21GenerateTilingAreaJobP22GenerateTilingAreaInfoj
hAj:__ZN6il2cpp6icalls8mscorlib6System15MonoCustomAttrs17IsDefinedInternalEP12Il2CppObjectP20Il2CppReflectionType
mUa:__ZN4Mesh21UnswizzleVertexColorsEb
O6d:_DateTime_ToString_m2276663647_AdjustorThunk
A0c:_cff_parse_font_bbox
wdb:__ZN14PlayerSettings23VirtualRedirectTransferER18StreamedBinaryReadILb0EE
Bee:_Array_get_swapper_TisCustomAttributeTypedArgument_t1498197914_m2780757375_gshared
WIj:__ZN6il2cpp2os5Event5ResetEv
rkf:_ReadOnlyCollection_1_System_Collections_IList_Insert_m1130110335_gshared
DLi:_AesManaged__ctor_m2322442838
btj:__ZN6il2cpp8metadata15GenericMetadata17InflateParametersEPK13ParameterInfohPK20Il2CppGenericContextb
_Le:_Int64_System_IConvertible_ToUInt32_m850395426_AdjustorThunk
zPa:__ZN6Camera13AwakeFromLoadE17AwakeFromLoadMode
zid:_HMACSHA512__ctor_m2390736870
hC:__ZNK17AnimationPlayable27GetNextCompatibleDescendantEi
_eg:_TypeBuilder_GetInterfaces_m1818658502
ZLb:__Z25SetNeedToPerformRenderingb
vlg:_MonoMethod_GetPseudoCustomAttributes_m466965107
XKa:__ZN10GameObjectD2Ev
STb:__ZN14qsort_internal30FindAndMovePivotToLastPositionIP15RODataDepthPassi17ROSorterDepthPassEEvT_S4_T0_T1_
Vvh:_Enumerator_System_Collections_IDictionaryEnumerator_get_Value_m3005608231_gshared
oJh:_MaskUtilities_NotifyStencilStateChanged_m1527407683
I$b:__ZN12CullingGroup10SendEventsEPK17CullingGroupEventj
Gze:_DSAManaged_GenerateKeyPair_m2711647034
Q2a:__ZThn32_NK8Renderer8GetLayerEv
Ole:_Array_InternalArray__ICollection_Add_TisResourceCacheItem_t333236149_m1151081240_gshared
$Tf:_SoapServices_GetXmlTypeForInteropType_m3821579913
XXj:_emscripten_glTexParameterfv__wrapper
Ttb:__Z18Transfer_BlittableI14SafeBinaryReadLb1E9BoundsIntEvRK29SerializationCommandArgumentsR31RuntimeSerializationCommandInfo
dbj:_il2cpp_method_get_param_count
Lhc:__ZN10systeminfo19ISOToSystemLanguageERN4core12basic_stringIcNS0_20StringStorageDefaultIcEEEE
mhj:__ZNK15dense_hashtableINSt3__24pairIK10KeyWrapperINS1_IPK12PropertyInfoP11Il2CppClassEEEjEES9_17ReflectionMapHashIS8_EN14dense_hash_mapIS9_jSD_NS9_14EqualsComparerINS0_8equal_toIS8_EEEENS0_9allocatorISB_EEE9SelectKeyESI_SK_E3endEv
vNc:__ZN11Rigidbody2D8TransferI19StreamedBinaryWriteILb0EEEEvRT_
$Yc:_ps_dimension_done
zAd:_LayoutRebuilder_MarkLayoutForRebuild_m640589351
N3c:__Z46Register_UnityEngine_TextGenerator_Dispose_cppv
fyd:_PointerEventData_get_pressEventCamera_m724559964
nod:_String_IndexOfUnchecked_m3356721554
G1a:__ZN16LightmapSettings8TransferI14SafeBinaryReadEEvRT_
bha:__ZN17BufferManagerGLES13ReleaseBufferEP14DataBufferGLES
jAc:__Z18Transfer_BlittableI8JSONReadLb1EjEvRK29SerializationCommandArgumentsR31RuntimeSerializationCommandInfo
rri:_PKCS12_Decrypt_m1557069392
qRh:_VertexHelper_AddUIVertexQuad_m280792808
tIf:_WebHeaderCollection_ToString_m1246460752
WWh:_InternalEnumerator_1_System_Collections_IEnumerator_get_Current_m2842514953_AdjustorThunk
ep:stackSave
zcd:__ZN5Unity9rapidjson15GenericDocumentINS0_4UTF8IcEE13JSONAllocatorNS0_12CrtAllocatorEE6StringEPKcjb
sZc:_ps_dimension_end
doc:__Z41Register_UnityEngine_Mesh_Internal_Createv
sab:__ZN14SpriteRenderer23VirtualRedirectTransferER24GenerateTypeTreeTransfer
$sj:__ZNK15dense_hashtableI10KeyWrapperIP18Il2CppGenericClassES3_N6il2cpp8metadata22Il2CppGenericClassHashEN14dense_hash_setIS3_S6_NS3_14EqualsComparerINS5_25Il2CppGenericClassCompareEEENSt3__29allocatorIS3_EEE8IdentityESA_SD_E12test_deletedERK30dense_hashtable_const_iteratorIS3_S3_S6_SF_SA_SD_E
XLc:__ZNSt3__27__sort3IRN18Overlap2DQueryBase29ColliderHitsByDepthComparitorEPP10Collider2DEEjT0_S7_S7_T_
hIf:_ServicePointManager_get_SecurityProtocol_m1445189298
Pid:_MACTripleDES_Initialize_m1318099802
xuf:_MD5SHA1_VerifySignature_m507888141
tSd:_Byte_System_IConvertible_ToChar_m4188836679
pKe:_NumberFormatter_InitDecHexDigits_m2036076025
ywh:_Enumerator_get_CurrentKey_m3839846791_AdjustorThunk
i1b:__ZN6Camera9SetAspectEf
wa:invoke_viiffiii
EXg:__ZL79TouchInputModule_t2561058385_CustomAttributesCacheGenerator_m_ForceModuleActiveP21CustomAttributesCache
mZj:_emscripten_glBindVertexArray__wrapper
yDh:_Dictionary_2_InitArrays_m435313205_gshared
XLa:__ZN9Transform37InitializeTransformHierarchyRecursiveER18TransformHierarchyRii
w9b:__Z34DefaultPrepareDispatchBoundsUpdateR13RendererScene18MemLabelIdentifier
qGd:_Graphic_get_useLegacyMeshGeneration_m1366444625
Zza:__ZN26SinglePassStereoSupportExt23SetupStereoMatrixParamsE21MonoOrStereoscopicEye24BuiltinShaderMatrixParamRK10Matrix4x4f
gIf:_ServicePointManager_get_CheckCertificateRevocationList_m4009410230
BZg:__ZL65InputField_t1631627530_CustomAttributesCacheGenerator_m_InputTypeP21CustomAttributesCache
Vxe:_ModulusRing_Pow_m1137250399
RW:__Z46AudioListener_CUSTOM_GetNumExtensionPropertiesP12Il2CppObject
rTa:__ZN17MeshRenderingData4InitEP4MeshS1_iP15SharedGfxBufferS3_
_Yd:_Hashtable__cctor_m2952659675
zMf:_X509ChainStatus__ctor_m3628359961_AdjustorThunk
bxb:__ZN15SerializeTraitsI13dynamic_arrayIN4math12int3_storageELj4EEE19ResizeSTLStyleArrayERS3_i
Eod:_Evidence_get_HostEvidenceList_m2095478124
Fqc:__Z57Register_UnityEngine_Transform_INTERNAL_set_localPositionv
Cxf:_Context_Clear_m4000337070
Yka:__ZN13GfxDeviceGLES26SetRandomWriteTargetBufferEi15ComputeBufferID
jPf:_IntervalCollection_Normalize_m538796191
pPb:__ZZ23InitPlayerLoopCallbacksvEN49EarlyUpdateResetFrameStatsAfterPresentRegistrator7ForwardEv
y$d:_Console_SetEncodings_m342145566
hGd:_FontUpdateTracker_UntrackText_m3827316510
BBi:_Vector2_get_sqrMagnitude_m593717298_AdjustorThunk
Nte:_Array_InternalArray__get_Item_TisSingle_t2076509932_m1495809753_gshared
BUi:_Font_get_fontSize_m3125470578
vhc:__ZNK11ICallString6ToUTF8Ev
Jei:_CaptureAssertion_get_Alternate_m2729005740
YBj:_GC_number_stack_black_listed
TTb:__ZNSt3__211__sift_downIR17ROSorterDepthPassP15RODataDepthPassEEvT0_S5_T_NS_15iterator_traitsIS5_E15difference_typeES5_
Obg:_Default_SelectMethod_m3081239996
CYa:__ZN18UnityPropertySheet11UnityTexEnvC2Ev
oE:__ZN8Animator17ApplyOnAnimatorIKEiRNS_11AnimatorJobE
$9:__ZN12FileAccessor4ReadEyyPvPy
KXa:__ZN13dynamic_arrayI16ShaderKeywordSetLj4EE6insertEPS0_PKS0_S4_
MQf:_MethodDictionary_IsOverridenKey_m3922224650
l_d:_SyncHashtable_Contains_m3042906549
J9e:_List_1_System_Collections_IList_set_Item_m4016273526_gshared
QMf:_X509KeyUsageExtension_CopyFrom_m931530012
K0b:__ZN13RenderTexture9SetHeightEi
Px:__ZN7mecanim9animation17ClearMotionOutputEPNS0_18AnimationNodeStateE
cJh:_LayoutUtility_U3CGetMinHeightU3Em__4_m1769295917
hEf:_SslStreamBase_Read_m1036897444
cLh:_RectMask2D_PerformClipping_m1232012832
poj:__ZN6il2cpp6icalls8mscorlib6System2IO6MonoIO17GetFileAttributesEP12Il2CppStringPi
mxh:_Transform_1_Invoke_m4020530914_gshared
IXc:_tt_cmap8_char_index
$5:__Z24scripting_class_get_name17ScriptingClassPtr
Jba:__ZN13RuntimeStaticI15GUIEventManagerLb0EE13StaticDestroyEPv
uyj:__ZN6il2cpp2os6Thread15CurrentThreadIdEv
Kvb:__Z29Transfer_Blittable_ArrayFieldI14SafeBinaryReadjEvRT_R9ArrayInfoRK23StaticTransferFieldInfo
he:_emscripten_set_keydown_callback
JZd:_Enumerator_get_Value_m3684748062
MMa:__ZN19StreamedBinaryWriteILb0EE21TransferSTLStyleArrayINSt3__26vectorI17SortingLayerEntryNS2_9allocatorIS4_EEEEEEvRT_17TransferMetaFlags
v7f:_UInt32_Parse_m3371984903
haa:__ZN12FileAccessorC2Ev
zci:_PatternLinkStack_GetCurrent_m2994645935
$Pa:__ZN6Camera8TransferI19StreamedBinaryWriteILb0EEEEvRT_
x9i:__ZN6il2cpp2vm7Runtime12GetConfigDirEv
OQf:_MethodDictionary_set_Item_m3475146889
eph:__Z49RuntimeInvoker_Int32_t2071877448_Touch_t407273883PFvvEPK10MethodInfoPvPS4_
GRh:_Toggle_PlayEffect_m3950629415
Fje:_Array_IndexOf_TisRuntimeObject_m214763038_gshared
lKb:__Z39WriteQueueForTransferSignatureIntoCacheRK31TransferFunctionScriptingTraitsRK24TransferRequestSignature17ScriptingClassPtrR23CachedSerializationDataRb
Zgb:__ZN13RenderManager18UpdateAllRenderersEv
wJ:__ZN18AnimatorController19TransferRuntimeDataI18StreamedBinaryReadILb0EEEEvRT_
Fpi:_Mesh_Clear_m239607636
W9c:__ZN22BaseUnityConnectClient30OnEnteringStatePausedOrStoppedEv
ZGc:__ZN10ClipperLib7Clipper18SwapPositionsInAELEPNS_5TEdgeES2_
Xgj:__ZN15dense_hashtableINSt3__24pairIK10KeyWrapperINS1_IPK12PropertyInfoP11Il2CppClassEEEjEES9_17ReflectionMapHashIS8_EN14dense_hash_mapIS9_jSD_NS9_14EqualsComparerINS0_8equal_toIS8_EEEENS0_9allocatorISB_EEE9SelectKeyESI_SK_E12resize_deltaEjj
ay:__ZN7mecanim5human12HumanPoseAddERNS0_9HumanPoseERKS1_S4_
xgf:_Collection_1_IsFixedSize_m218241296_gshared
BLa:__Z24MergeTransformComponentsR9TransformS0_b
UPi:_DelegatePInvokeWrapper_AudioConfigurationChangeHandler_t3743753033
VQe:_MonoIO_get_PathSeparator_m2635828107
cWe:_MonoType_get_Name_m865859211
Pde:_CultureInfo__cctor_m2290268677
_rd:_String_Trim_m3982520224
mTf:_RemotingConfiguration__cctor_m2129988840
Oef:_Collection_1_Insert_m44548038_gshared
jAj:__ZN6il2cpp2vm13ComObjectBase19GetRuntimeClassNameEPP15Il2CppHString__
Rj:_emscripten_glVertexAttribPointer
oTa:__ZNK20IntermediateRenderer12GetSceneMaskEv
_fb:__ZN14PreloadManager26UpdatePreloadingSingleStepENS_21UpdatePreloadingFlagsEi
jmd:_SHA512Managed_Initialize_m891287980
Yod:_SecurityException__ctor_m1484114982
Ati:_X509Crl_GetHashName_m183504634
gPd:_Array_GetValue_m1507415734
Joc:__Z57Register_UnityEngine_RectTransform_INTERNAL_set_anchorMinv
zGe:_Object_MemberwiseClone_m2655589444
ora:__ZN6prcoreL25inner_stretch_i8_bilinearEPKNS_9InnerInfoE
qib:__ZL30RegisterFilteredObjectCallbackPP12Il2CppObjectiPv
Dlg:_MonoMethod_get_IsGenericMethod_m4276550811
Lxh:_Transform_1_BeginInvoke_m3826027984_gshared
gZ:__ZN11UnityEngine15CloudWebService16SessionContainer24GetSessionHeaderJsonDataERKN4core12basic_stringIcNS2_20StringStorageDefaultIcEEEERNS2_13StringBuilderE
d2d:_Decimal_op_Implicit_m2149927308
wba:__ZN13RuntimeStaticI21AssetReferenceStorageLb0EE13StaticDestroyEPv
i7f:_UInt16_System_IConvertible_ToUInt32_m1864968312
Xvj:__ZN6il2cpp6icalls8mscorlib6System9AppDomain22InternalGetProcessGuidEP12Il2CppString
cAe:_KeyPairPersistence_get_UseMachineKeyStore_m560802076
uuh:_Enumerator_System_Collections_IDictionaryEnumerator_get_Entry_m345330700_AdjustorThunk
GHa:__ZNK17FileSystemHandler10IsReadOnlyERK13FileEntryData
eAb:__Z18Transfer_BlittableI24GenerateTypeTreeTransferLb1EjEvRK29SerializationCommandArgumentsR31RuntimeSerializationCommandInfo
Wtf:_MD2Managed_Padding_m410163267
$8b:__ZNK28RectTransformPropertyBinding9BindValueER6ObjectRKN11UnityEngine9Animation14GenericBindingERNS3_10BoundCurveE
hTa:__ZN11ColorRGBA328TransferI14SafeBinaryReadEEvRT_
lUc:__ZN20TextRenderingPrivate8TextMesh8TransferI14SafeBinaryReadEEvRT_
Mf:_emscripten_glClearDepth
Kcc:__ZNK8GUILayer22GetTypeVirtualInternalEv
b4a:__ZN14SafeBinaryRead21TransferSTLStyleArrayINSt3__26vectorIN15QualitySettings14QualitySettingENS1_9allocatorIS4_EEEEEEvRT_17TransferMetaFlags
NOe:_File_OpenText_m4058508963
Xcb:__ZNSt3__26vectorINS_4pairIPKN5Unity4TypeE7Hash128EENS_9allocatorIS7_EEE8__appendEj
lUf:_WellKnownClientTypeEntry__ctor_m670594074
v5d:_DateTime_System_IConvertible_ToSingle_m3927769066_AdjustorThunk
O$c:_cff_font_load
BBf:_RecordProtocol_SendRecord_m2977889250
uic:__Z13IsPathCreatedRKN4core12basic_stringIcNS_20StringStorageDefaultIcEEEE
XK:__ZN13ProduceHelperI13AnimationClipLb0EE7ProduceE18MemLabelIdentifier18ObjectCreationMode
Vqa:__ZL22stbir__encode_scanlineP11stbir__infoiPvPfiii
R9g:__Z136RuntimeInvoker_Void_t1841601450_Byte_t3683104436_RuntimeObject_Int64U26_t763825331_ObjectU26_t597476745_SerializationInfoU26_t4051840202PFvvEPK10MethodInfoPvPS4_
BQc:__ZN20QuadTreeNodeRenderer13StaticDestroyEPv
c_:__ZN11UnityEngine15CloudWebService20WebRequestRestClient5AbortEv
aEi:_InvokableCall_1_Invoke_m2228071798_gshared
k9b:__ZN9Transform12CleanupClassEv
w4g:__Z50RuntimeInvoker_Void_t1841601450_Double_t4078015681PFvvEPK10MethodInfoPvPS4_
VJi:_GUILayoutGroup_CalcWidth_m877887811
Axf:_ClientContext_set_ClientHelloProtocol_m2246603449
yzi:_Texture_Internal_GetHeight_m3235768354
toa:__ZNSt3__26vectorIN9GfxDevice14SubPassActionsENS_9allocatorIS2_EEE26__swap_out_circular_bufferERNS_14__split_bufferIS2_RS4_EE
CMd:_U3CMouseDragOutsideRectU3Ec__Iterator1_MoveNext_m2845491958
Elb:__ZNSt3__26vectorIN9ShaderLab19SerializedSubShaderENS_9allocatorIS2_EEE26__swap_out_circular_bufferERNS_14__split_bufferIS2_RS4_EE
VD:__ZN11UnityEngine9Animation33SetGenericTransformPropertyValuesERKNS0_30AnimatorGenericBindingConstantERKN7mecanim10ValueArrayEP9Transformy
gu:__ZN11UnityEngine9Animation28AnimationClipBindingConstant8TransferI24GenerateTypeTreeTransferEEvRT_
qzd:_StandaloneInputModule_IsModuleSupported_m623598506
smj:__ZN6il2cpp2vmL24thread_cleanup_on_cancelEPv
fYf:_SByte_ToString_m4105923225_AdjustorThunk
Tde:_CultureInfo_ConstructCurrentUICulture_m3363349599
h9f:_UInt64_CompareTo_m2422461804_AdjustorThunk
b0g:__ZL75CanvasScaler_t2574720772_CustomAttributesCacheGenerator_m_FallbackScreenDPIP21CustomAttributesCache
BVe:_MonoType_GetEvent_m4160342003
OKh:_RawImage_set_texture_m2400157626
gOi:_PrimeHelper_ToPrime_m1606935350_gshared
ETa:__Z30ProcessDynamicBatchGeometryJobP25DynamicVBOGeometryJobDataj
Yih:__Z59RuntimeInvoker_Boolean_t3825574718_RaycastHit2D_t4063908774PFvvEPK10MethodInfoPvPS4_
nUb:__ZNSt3__27__sort4IRNS_6__lessI11CulledLightS2_EEPS2_EEjT0_S6_S6_S6_T_
xcj:__ZN6il2cpp2vm14TypeNameParser26ParseArrayModifierOptionalEv
pve:_MSCompatUnicodeTable_Level3_m260824928
q7:__Z26scripting_object_get_class18ScriptingObjectPtr
Efb:__ZNSt3__26vectorIN4core12basic_stringIcNS1_20StringStorageDefaultIcEEEE13stl_allocatorIS5_L18MemLabelIdentifier13ELi16EEE7reserveEj
zYi:_RectTransformUtility_GetTransposed_m1233793627
K8b:__ZNK28MonoBehaviourPropertyBinding15GenerateBindingERKN4core12basic_stringIcNS0_20StringStorageDefaultIcEEEEbRN11UnityEngine9Animation14GenericBindingE
hJe:_Int32_FindExponent_m3187554672
oAe:_KeyPairPersistence_Load_m1355205585
rLe:_Int32_ToString_m2960866144_AdjustorThunk
cXi:_Predicate_1_Invoke_m3539717340_gshared
Tqd:_Single_CompareTo_m2081476257_AdjustorThunk
rPi:_AudioExtensionManager_AddSpatializerExtension_m1881494443
txj:__ZN6il2cpp6icalls8mscorlib6System11Environment15internalGetHomeEv
ERj:dynCall_iiiiiiffiiiiiiiiiffffiiii
Wri:_PKCS12_get_Keys_m288413492
cCa:__ZNK5Unity9Component7GetNameEv
_Vf:__ZN21InterfaceFuncInvoker4IP12Il2CppObjectS1_P28SerializationInfo_t22898743028StreamingContext_t1417235061S1_E6InvokeEjP11Il2CppClassS1_S1_S3_S4_S1_
aIi:_ObjectPool_1_Get_m3724675538_gshared
kEc:__ZNK11b2RopeJoint16GetReactionForceEf
hF:__ZN7mecanim8skeleton26SkeletonPoseComputeGlobalQEPKNS0_8SkeletonEPKNS0_13SkeletonPoseTIN4math4trsXEEEPS7_ii
Vcd:__ZN18UnityConnectClient19RegisterVRCallbacksEv
VJj:_U3CStartDelayU3Ec__Iterator0_Reset_m3984307686
o4e:_List_1_GetEnumerator_m2672519407_gshared
S5b:__ZN10BootConfig4Data3SetEPKcjS2_j
JE:__ZN9BlobWrite8TransferI22OffsetPtrArrayTransferIiEEEvRT_PKc17TransferMetaFlags
eah:__Z82RuntimeInvoker_Boolean_t3825574718_SByte_t454417549_RuntimeObject_SByte_t454417549PFvvEPK10MethodInfoPvPS4_
$ue:_ContractionComparer_Compare_m314873025
JLe:_Int64_System_IConvertible_ToDouble_m638786774
dR:__ZN4FMOD6System7releaseEv
E9:__Z18PathToAbsolutePathRKN4core12basic_stringIcNS_20StringStorageDefaultIcEEEE
KYe:_Enumerator_MoveNext_m3078170540_AdjustorThunk
Hr:__ZN13AnimationClip23VirtualRedirectTransferER17RemapPPtrTransfer
nFj:__ZN6il2cpp6icalls8mscorlib6System10Reflection16MonoPropertyInfo16GetTypeModifiersEPvb
vLi:_Action_Invoke_m3801112262
I4g:__Z79RuntimeInvoker_Decimal_t724701077_RuntimeObject_Int32_t2071877448_RuntimeObjectPFvvEPK10MethodInfoPvPS4_
xqa:__ZL13BlitImageImplR14ImageReferenceiiRKS_NS_10ColorSpaceENS_8BlitModeEb
aec:__ZN15DirectorManager17AcquireOutputNodeEv
Y3g:__Z64RuntimeInvoker_RuntimeObject_Int16_t4041245914_Int16_t4041245914PFvvEPK10MethodInfoPvPS4_
Yya:__ZN16GeometryJobTasks20ScheduleGeometryJobsER9GfxDevicePFvP15GeometryJobDataEPK22GeometryJobInstructionjb
jP:__ZN12AudioManager29ShutdownReinitializeAndReloadEv
bri:_NetscapeCertTypeExtension_Decode_m2210025005
uUf:_BaseFixupRecord_DoFixup_m1821597450
t$i:__ZN15dense_hashtableINSt3__24pairIK10KeyWrapperIPK22Il2CppGenericParameterEP11Il2CppClassEES6_N6il2cpp5utils11PointerHashIS4_EEN14dense_hash_mapIS6_S9_SE_NS6_14EqualsComparerINS0_8equal_toIS5_EEEENS0_9allocatorISA_EEE9SelectKeyESJ_SL_E6insertERKSA_
ROe:_FileLoadException__ctor_m1356374414
MEi:_InvokableCall_4_Invoke_m1140294390_gshared
Mzi:_Time_set_timeScale_m2966928564
Qna:__ZN14DataBufferGLES16RecreateWithDataEjPKv
zCa:__Z29GetGlobalAllowNameConversionsv
r2b:__ZN8Material8SetColorEN9ShaderLab16FastPropertyNameERK10ColorRGBAf
Sjg:_Module_GetCustomAttributes_m3581287913
US:__ZN11AudioSource23VirtualRedirectTransferER18StreamedBinaryReadILb0EE
zba:__ZN21AssetReferenceStorageC2Ev
d6:__ZL41AssemblyNameMatchesWithOrWithoutExtensionPKcS0_
TCc:__ZN23ColliderTilingExtension5ResetEv
Uva:__ZN14GfxContextGLES43AddRenderSurfaceToDeferredFBOInvalidateListEPK17RenderSurfaceGLES
Unj:__ZN6il2cpp6icalls8mscorlib6System9Threading6Thread15Thread_internalEP12Il2CppThreadP14Il2CppDelegate
AEa:__ZN11NamedObject23VirtualRedirectTransferER14SafeBinaryRead
xPi:_AudioListener_GetNumExtensionProperties_m2652400521
MTc:__ZNSt3__26vectorIN20TextRenderingPrivate8FontImpl13CharacterInfoE13stl_allocatorIS3_L18MemLabelIdentifier1ELi16EEE6insertENS_11__wrap_iterIPKS3_EERS9_
uFa:__ZN23PreloadManagerOperation6IsDoneEv
uT:__ZN4FMOD7Channel20get3DConeOrientationEP11FMOD_VECTOR
VDe:_X509Certificate_get_RawData_m3000055075
Rec:__Z33GetHasChangedDeprecatedSystemMaskv
aJc:__ZN10Effector2D10EndContactEP9b2Contact
Lzj:__ZN6il2cpp5utils11StringUtils11Utf16ToUtf8ERKNSt3__212basic_stringIDsNS2_11char_traitsIDsEENS2_9allocatorIDsEEEE
Fvh:_Enumerator_VerifyState_m1165543189_AdjustorThunk
h6d:_DateTime_AddSeconds_m722082155_AdjustorThunk
aXd:_SynchronizedArrayListWrapper_CopyTo_m956887031
xhb:__ZN21LightProbeProxyVolume18HasHardwareSupportEv
XXi:_CanvasRenderer_set_materialCount_m1703953120
iLc:__ZNK20b2SeparationFunction17FindMinSeparationEPiS0_f
jra:__ZN6prcoreL31inner_stretch_argb8888_bilinearEPKNS_9InnerInfoE
eEb:__Z18Transfer_BlittableI18StreamedBinaryReadILb1EELb1E8BitFieldEvRK29SerializationCommandArgumentsR31RuntimeSerializationCommandInfo
XVc:_UNITY_FT_Outline_Decompose
Mzf:_TlsClientCertificate_get_ClientCertificate_m3062440489
uod:_StrongNamePublicKeyBlob_ToString_m3721281223
iEj:_GC_init_size_map
mWh:_InternalEnumerator_1_get_Current_m198513457_AdjustorThunk
HQa:__Z20scripting_object_new17ScriptingClassPtr
eHe:_TextInfo__ctor_m2782608694
Laf:_Queue_1_System_Collections_ICollection_CopyTo_m772787461_gshared
nHe:_TextInfo_ToUpper_m299550697
vyc:__ZN9JSONWrite8TransferI13dynamic_arrayI8BitFieldLj4EEEEvRT_PKc17TransferMetaFlags
wGd:_Graphic_OnRectTransformDimensionsChange_m1610753363
a4d:_Convert_ToUInt16_m3265369225
P:Math_exp
gVe:_MonoEnumInfo_get_Cache_m3551569711
Ho:FUNCTION_TABLE_iiifi
Lvj:__ZN6il2cpp2os5posix13PosixAutoLockD2Ev
Pfe:_Array_InternalArray__ICollection_Contains_TisVector3_t2243707580_m3625701788_gshared
hOc:__ZN13BoxCollider2D15InitializeClassEv
YMc:__GLOBAL__sub_I_modules_physics2d_public_0_cpp
IJb:__ZN13MonoBehaviour9SetScriptERK4PPtrI10MonoScriptE18ScriptingObjectPtr
Efe:_Array_InternalArray__ICollection_Contains_TisPlayableBinding_t2498078091_m4267109606_gshared
gOc:__ZN13ProduceHelperI13BoxCollider2DLb0EE7ProduceE18MemLabelIdentifier18ObjectCreationMode
DVc:_UNITY_FT_Create_Class_sfnt_module_class
Q8d:_Decimal_IsZero_m3557909184_AdjustorThunk
HUd:_Char_ToString_m1401375624
Xid:_MD5CryptoServiceProvider__cctor_m3309191799
gKa:__ZNK10FileSystem16LastErrorMessageEv
hih:__Z74RuntimeInvoker_Vector2_t2243707579_Vector2_t2243707579_Vector2_t2243707579PFvvEPK10MethodInfoPvPS4_
k_e:_Enumerator_System_Collections_IEnumerator_Reset_m3052395060_gshared
dsf:_Kernel_DwordDivMod_m3728402123
ZIb:__ZN13MonoBehaviour13AwakeFromLoadE17AwakeFromLoadMode
lyb:__ZL26Transfer_SimpleNativeClassI17RemapPPtrTransfer8GradientLb1EEvRK29SerializationCommandArgumentsR31RuntimeSerializationCommandInfo
dfc:__ZN12CachedWriter9InitWriteER15CacheWriterBase
Wdc:__Z21UnsignedInt64ToStringy
c1f:_UTF7Decoder__ctor_m549434986
W0h:_InternalEnumerator_1_get_Current_m1025321669_AdjustorThunk
Qqc:__Z66Register_UnityEngine_Transform_INTERNAL_CALL_InverseTransformPointv
Wda:__ZZN15DirectorManager15InitializeClassEvEN41FixedUpdateDirectorFixedUpdateRegistrator7ForwardEv
BNf:_Group__ctor_m4103922028
XYj:_glLinkProgram__wrapper
hqb:__ZN18ScriptingArguments8AddInt64Ex
Tra:__ZN6prcoreL12RemapGenericI17TexFormatARGB888815TexFormatBGR888EEvPKNS_9InnerInfoE
Oqb:__ZN12HandlerChain4LockER13FileEntryData12FileLockMode
bjd:_MD5CryptoServiceProvider_ProcessFinalBlock_m1052610785
qXd:_BitArray_Set_m2878881714
Ydd:__ZN28UnityConnectScriptingClasses23CallSessionStateChangedEixxbP21ScriptingExceptionPtr
RHe:_Guid_CompareTo_m2203922782_AdjustorThunk
JOh:_Selectable_get_colors_m3501193396
prj:__ZN6il2cpp6icalls8mscorlib6System13Globalization11CultureInfo35construct_internal_locale_from_nameEP17Il2CppCultureInfoP12Il2CppString
tAb:__ZL22Transfer_ManagedObjectI24GenerateTypeTreeTransferLb1EEvRK29SerializationCommandArgumentsR31RuntimeSerializationCommandInfo
O9h:_ContextAttribute_Equals_m53324298
Zj:_emscripten_set_main_loop_timing
Vii:_Camera_ScreenToViewportPoint_m3458250415
rag:_WeakReference_AllocateHandle_m1783929473
Lna:__ZN14DataBufferGLES12RecordRenderEv
Lqe:_Array_Sort_TisRuntimeObject_m3674422195_gshared
Y1b:__ZN14ImageReference10FlipImageYEv
otc:__Z14GetDefaultSkini
xM:__ZN4FMOD3DSP9setBypassEb
u5b:__Z19NormalizeWheelInputf
Xfe:_Array_InternalArray__ICollection_Remove_TisLink_t865133271_m1984184141_gshared
kCc:__Z29Transfer_Blittable_ArrayFieldI8JSONReadhEvRT_R9ArrayInfoRK23StaticTransferFieldInfo
MNd:_LayoutRebuilder_IsDestroyed_m3442208294
gvh:_Enumerator_VerifyState_m1547102902_AdjustorThunk
EIj:__ZN6il2cpp2os20ThreadLocalValueImpl8SetValueEPv
iRa:__ZN22RenderingCommandBuffer20CleanupCommandBufferEv
rah:__Z165RuntimeInvoker_Void_t1841601450_UInt32U26_t2197289955_Int32_t2071877448_UInt32U26_t2197289955_Int32_t2071877448_Int32_t2071877448_Int32_t2071877448_Int32_t2071877448PFvvEPK10MethodInfoPvPS4_
$wc:__Z18Transfer_BlittableI9JSONWriteLb1EtEvRK29SerializationCommandArgumentsR31RuntimeSerializationCommandInfo
SOe:_FileLoadException__ctor_m918124939
qk:___syscall85
wga:__ZN15dense_hashtableINSt3__24pairIKN4core12basic_stringIcNS2_20StringStorageDefaultIcEEEE13dynamic_arrayI4PPtrI6SpriteELj4EEEES6_20StringHash32FunctionIS6_EN14dense_hash_mapIS6_SC_SF_NS0_8equal_toIS6_EE13stl_allocatorISD_L18MemLabelIdentifier81ELi16EEE9SelectKeyESI_SL_E5clearEv
YRb:__ZNSt3__26__sortIRPFbP10GUIElementS2_EPS2_EEvT0_S7_T_
Msf:_SequentialSearchPrimeGeneratorBase_GenerateSearchBase_m2930465198
Qcc:__ZN16GraphicsSettings12CleanupClassEv
vyj:__ZN6il2cpp2os6Thread19DetachCurrentThreadEv
O$i:__ZN6il2cpp2vmL21SetupInterfacesLockedEP11Il2CppClassRKNS_2os12FastAutoLockE
Zsb:__ZN11MonoManager23VirtualRedirectTransferER24GenerateTypeTreeTransfer
SC:__ZN23AnimationPlayableOutput17SetSourcePlayableEP8Playable
bNf:_Capture__ctor_m885749277
DJd:_SubmitEvent__ctor_m222860306
cZ:__ZN11UnityEngine15CloudWebService14DataDispatcher15SetupWebRequestEv
_Se:_TextWriter__cctor_m4047845042
bbd:__ZN11UnityEngine15PlatformWrapper13GetShaderCapsEv
rqi:_Object_ToString_m2938729670
FZb:__ZNSt3__211__sift_downIR26RenderDeferredObjectSorterP16RenderObjectDataEEvT0_S5_T_NS_15iterator_traitsIS5_E15difference_typeES5_
XJd:_InputField_CaretBlink_m3960486606
ak:_emscripten_glGetProgramiv
OAe:_SmallXmlParser_ReadCharacters_m1966365555
HDf:_InternalAsyncResult_get_CompletedWithError_m3993955322
ydc:__ZN21FixedBehaviourManager6UpdateEv
eic:__ZN9Transform9SetParentEPS_NS_15SetParentOptionE
JHd:_GridLayoutGroup_set_startCorner_m1660251450
WOa:__ZN19ShaderPropertySheet8SetFloatEN9ShaderLab16FastPropertyNameEfNS_8SetFlagsE
CZg:__ZL68InputField_t1631627530_CustomAttributesCacheGenerator_m_AsteriskCharP21CustomAttributesCache
mgb:__ZN19RuntimeSceneManager24BeginIntegrateMainThreadEP10UnityScene
Zwj:__ZNSt3__2plIcNS_11char_traitsIcEENS_9allocatorIcEEEENS_12basic_stringIT_T0_T1_EERKS9_S6_
RTe:_LocalDataStoreSlot__cctor_m1192669356
hlb:__ZN9ShaderLab20SerializedSubProgramaSERKS0_
wPj:_roundf
rtd:_String_CreateString_m2556700934
KMa:__ZN18StreamedBinaryReadILb0EE21TransferSTLStyleArrayINSt3__26vectorI17SortingLayerEntryNS2_9allocatorIS4_EEEEEEvRT_17TransferMetaFlags
ww:__ZN8Animator15SetPrepareStageEv
cQh:_Slider_get_axis_m162140813
P$i:__ZN6il2cpp2vmL24SetupTypeHierarchyLockedEP11Il2CppClassRKNS_2os12FastAutoLockE
C5b:__ZL11TextHandleriPK23EmscriptenKeyboardEventPv
XNd:_LayoutRebuilder_U3Cs_RebuildersU3Em__0_m3768099182
AOh:_ScrollRect_SetLayoutHorizontal_m3486408020
kTc:_destroy_face
doi:_Material_SetIntImpl_m1039479734
Puh:_Enumerator_VerifyState_m1547102902_gshared
EFj:__ZN6il2cpp6icalls8mscorlib6System8Security12Cryptography24RNGCryptoServiceProvider13RngInitializeEP11Il2CppArray
$ch:__Z99RuntimeInvoker_Void_t1841601450_Int32_t2071877448_Int16_t4041245914_Int16_t4041245914_RuntimeObjectPFvvEPK10MethodInfoPvPS4_
lHf:_IPAddress__cctor_m3624830012
bT:__ZN20SoundChannelInstance7setMuteEb
XIf:_AsnEncodedData_EnhancedKeyUsageExtension_m1452131166
dFb:__Z19TransferField_ArrayI18StreamedBinaryReadILb1EE27Converter_SimpleNativeClassI17AnimationCurveTplIfEEEvRK23StaticTransferFieldInfoR31RuntimeSerializationCommandInfoRT0_
Kyi:_SendMouseEvents__cctor_m1448404407
JOc:__ZN7b2World18SetContactListenerEP17b2ContactListener
xLc:__ZN14PhysicsQuery2D11LinecastAllERK8Vector2fS2_RKN10Collider2D13ContactFilterEPKS3_bP13dynamic_arrayI12RaycastHit2DLj4EE
zoa:__ZN18GfxFramebufferGLES22MakeCurrentFramebufferENS_7BuiltinE
hOf:_Interpreter_Close_m1500459069
uk:_JS_SystemInfo_GetWidth
BKa:__ZN12CachedReader4ReadEPvj
v_c:_cf2_blues_init
qWh:_InternalEnumerator_1_System_Collections_IEnumerator_get_Current_m3600601141_gshared
zld:_SHA1Internal_HashFinal_m3188468925
nWb:__Z24CalculateLightShadowFadeRK6CamerafffR8Vector4f
j6:__ZN19RuntimeSceneManagerD2Ev
z7h:_ChannelData_get_CustomProperties_m1470957369
Xre:_Dictionary_2_Do_ICollectionCopyTo_TisRuntimeObject_m545661084_gshared
s_:__ZN11UnityEngine15CloudWebService25WebRequestDownloadHandler17OnCompleteContentEv
ira:__ZN6prcore17GetIntegerBlitterE13TextureFormatS0_N14ImageReference8BlitModeE
sCc:__ZN13BoxCollider2DD0Ev
kgj:__ZN6il2cpp2gc19AppendOnlyGCHashMapINSt3__24pairIPK11Il2CppImageP11Il2CppClassEEP22Il2CppReflectionModule17ReflectionMapHashIS9_ENS2_8equal_toIS9_EEE11TryGetValueERKS9_PSB_
cwh:_Enumerator_VerifyState_m3173176371_AdjustorThunk
tGf:_TypeConverterAttribute__cctor_m506796812
kkc:__ZN9BlobWrite14ReduceCopyImplERK14ReduceCopyDataj
P3:__ZNSt3__26__treeI19RepeatingLogMessageNS_4lessIS1_EE13stl_allocatorIS1_L18MemLabelIdentifier73ELi16EEE12__find_equalIS1_EERPNS_16__tree_node_baseIPvEESD_RKT_
GW:__ZN11AudioSource18IsPlayingScriptingEv
D3h:_Comparer_1_System_Collections_IComparer_Compare_m1790257529_gshared
REc:__ZNK12b2WheelJoint10GetAnchorAEv
$Tj:_glShaderSource__wrapper
JIa:__ZN25MultiBlocksMemoryFileData17AdjustBlocksCountEj
Enj:__ZNSt3__214__split_bufferIN6il2cpp2vm22EmbeddedResourceRecordERNS_9allocatorIS3_EEED2Ev
Hxf:_TlsClientHello__ctor_m1699671541
qRc:__ZN13TextRendering4Font8TransferI24GenerateTypeTreeTransferEEvRT_
h9h:_Context_NotifyGlobalDynamicSinks_m2916447645
Clc:__Z27CullingGroup_CUSTOM_DisposeP12Il2CppObject
ved:__ZNSt3__26vectorIP19BaseConnectSettings13stl_allocatorIS2_L18MemLabelIdentifier6ELi16EEE21__push_back_slow_pathIKS2_EEvRT_
gRb:__ZN13ComputeShader15SetTextureParamEjRKN9ShaderLab16FastPropertyNameE9TextureID16TextureDimension
tPh:_Shadow_set_effectDistance_m1951993364
GDh:_Dictionary_2_ContainsKey_m416495915_gshared
Am:_glStencilMask
Bwj:__ZN6il2cpp2os10ThreadImpl16GetCurrentThreadEv
tyf:_TlsServerHelloDone__ctor_m2125611008
WYd:_Hashtable__ctor_m2337481811
Jvh:_Enumerator_System_Collections_IEnumerator_get_Current_m2010873149_gshared
C$g:__ZL74SpriteState_t1353336012_CustomAttributesCacheGenerator_m_HighlightedSpriteP21CustomAttributesCache
bu:__ZN24GenerateTypeTreeTransfer21TransferSTLStyleArrayINSt3__26vectorI24CompressedAnimationCurve13stl_allocatorIS3_L18MemLabelIdentifier26ELi16EEEEEEvRT_17TransferMetaFlags
jDj:_GC_push_conditional_with_exclusions
f8f:_UInt32_System_IConvertible_ToUInt16_m2798641702_AdjustorThunk
TUf:_BinaryFormatter_get_DefaultSurrogateSelector_m219714691
IF:__ZN12_GLOBAL__N_121ProcessAnimationBeginER35AnimationPlayableEvaluationConstantR32AnimationPlayableEvaluationInputR33AnimationPlayableEvaluationOutput
P6g:__Z136RuntimeInvoker_Void_t1841601450_Int32_t2071877448_RuntimeObject_RuntimeObject_RuntimeObject_RuntimeObject_RuntimeObject_SByte_t454417549PFvvEPK10MethodInfoPvPS4_
iuf:_MD4Managed_Encode_m2097839378
gmg:_MonoProperty_GetOptionalCustomModifiers_m3827844355
zMj:_strrchr
Xve:_SimpleCollator_GetSortKey_m2188419329
u0g:__ZL56LayoutElement_t2808691390_CustomAttributesCacheGeneratorP21CustomAttributesCache
FVa:__ZN14RenderSettings27UpdateIndirectSpecularColorEv
Vdb:__ZN14PlayerSettings8TransferI18StreamedBinaryReadILb0EEEEvRT_
A8i:__ZN6il2cpp6icalls8mscorlib6System8MonoType16GetMethodsByNameEP20Il2CppReflectionTypeP12Il2CppStringibS5_
Sni:_Logger_Log_m302200299
j6h:_GCHandle__ctor_m2952050298
sJh:_Mask_IsRaycastLocationValid_m62488857
JNb:__ZNSt3__27__sort3IRNS_4lessIN22BuiltinResourceManager8ResourceEEEPS3_EEjT0_S7_S7_T_
T2h:_DefaultComparer_Compare_m3472472212_gshared
oPe:_MonoIO_GetLength_m2812344043
hZc:_ps_hints_t2mask
Jkj:__ZN14dense_hash_mapI10KeyWrapperINSt3__24pairIP11Il2CppClassjEEES4_N6il2cpp8metadata14ArrayClassHashENS6_14EqualsComparerINS8_17ArrayClassCompareEEENS1_9allocatorINS2_IKS6_S4_EEEEEC2EjRKS9_RKSC_
k9a:__ZN10BlendShape8TransferI19StreamedBinaryWriteILb0EEEEvRT_
JMe:__Z21il2cpp_codegen_sizeofP11Il2CppClass
qva:__Z19GetTimeSinceStartupv
$pd:_SecurityFrame_get_Assembly_m2816566490
VXi:_CanvasRenderer_set_hasPopInstruction_m3302400555
l2c:_TT_Load_Composite_Glyph
HPd:_Array_Sort_m2994254654
t9e:_List_1__ctor_m593058937_gshared
GUb:__ZN29RenderNodeQueuePrepareContextC2Ev
FV:__ZN10SampleClipC2E18MemLabelIdentifier18ObjectCreationMode
jmb:__ZN9ShaderLab20SerializedSubProgram16TextureParameter8TransferI24GenerateTypeTreeTransferEEvRT_
Rha:__ZN9GfxDevice19SaveStereoConstantsEv
bGj:__ZN6il2cpp2os11MutexHandle4WaitEj
Zic:__ZL34GetComponentsImplementationRecurseILb1ELi1ELi1EEbR10GameObjectbRK17CompareParametersRK39GetComponentsImplementation_ReturnValue
aGj:__ZN6il2cpp2os11MutexHandle4WaitEv
aVd:_ArrayList_set_Capacity_m592558035
bta:__ZN6prcoreL17RemapGenericFloatI15TexFormatRGHalf18TexFormatARGBFloatEEvPKNS_9InnerInfoE
mMb:__Z18SimulateMouseInputi
AQb:__ZN13RenderManager23AddRemoveCamerasDelayedEv
eyc:__ZN9JSONWrite8TransferI13dynamic_arrayIdLj8EEEEvRT_PKc17TransferMetaFlags
xji:_Color_op_Multiply_m2110750533
qge:_Array_InternalArray__ICollection_Remove_TisILTokenInfo_t149559338_m1523907845_gshared
nZd:_Hashtable_Rehash_m2877670513
J0b:__ZN13RenderTexture8SetWidthEi
VLd:_InputField_Insert_m1593238693
LUc:_UNITY_FT_GlyphLoader_CheckSubGlyphs
i7i:__ZN6il2cpp2vm21ThreadPoolCompartment20SpawnNewWorkerThreadEv
Hle:_Array_InternalArray__ICollection_Add_TisCustomAttributeTypedArgument_t1498197914_m3260005285_gshared
SWb:__Z25SetupObjectBakedOcclusionbRK15SharedLightDataRK26SharedLightmapSettingsDataRK15LightmapIndicesR17ShaderPassContext
UHe:_Guid_GetHashCode_m1401300871
_3:__ZN9ShaderLab16FastPropertyName4InitEPKc
c8b:__Z13RegisterClassIN2UI13RectTransformEEvv
tve:_MSCompatUnicodeTable_ToWidthCompat_m2299599532
QWe:_NumberFormatter_get_IsFloatingSource_m2830957202
hcc:__ZL31MeshRendererTransformChangedJobP13BoundsJobDatajPK23TransformAccessReadOnlyPKyj
Jad:__ZN11UnityEngine15PlatformWrapper19GetPhysicalMemoryMBEv
pWa:__ZN13RenderTexture9SetMipMapEb
ANh:_ScrollRect_set_verticalScrollbarSpacing_m2356851539
Eda:__Z18GetDirectorManagerv
nqc:__Z38Transform_CUSTOM_INTERNAL_get_rotationP12Il2CppObjectP11Quaternionf
fdj:__ZNSt3__26vectorIN6il2cpp2vm17TypeNameParseInfoENS_9allocatorIS3_EEE8allocateEj
$fj:__ZNK15dense_hashtableINSt3__24pairIK10KeyWrapperINS1_IPK10MethodInfoP11Il2CppClassEEEjEES9_17ReflectionMapHashIS8_EN14dense_hash_mapIS9_jSD_NS9_14EqualsComparerINS0_8equal_toIS8_EEEENS0_9allocatorISB_EEE9SelectKeyESI_SK_E5beginEv
gua:__ZN7ApiGLES19UploadBufferSubDataEjN2gl12BufferTargetEllPKv
iga:__ZNSt3__216__rotate_forwardINS_11__wrap_iterIPN4core12basic_stringIcNS2_20StringStorageDefaultIcEEEEEEEET_S9_S9_S9_
yrd:_String_System_IConvertible_ToInt32_m1927223638
wI:__ZN7mecanim12statemachine20StateMachineConstant8TransferI14SafeBinaryReadEEvRT_
Ftd:_ASCIIEncoding__ctor_m4127831672
Oji:_GameObject_GetComponent_m724360550
IXi:_CanvasGroup_get_alpha_m4171392097
ovb:__Z19TransferField_ArrayI14SafeBinaryRead27Converter_SimpleNativeClassI8GUIStyleEEvRK23StaticTransferFieldInfoR31RuntimeSerializationCommandInfoRT0_
edh:__Z63RuntimeInvoker_Void_t1841601450_RuntimeObject_Int16_t4041245914PFvvEPK10MethodInfoPvPS4_
c$f:_UTF8Encoding__ctor_m3336862259
RFj:__ZN6il2cpp5utils10MemoryPoolC2Ej
qLf:_X509Chain_GetAuthorityKeyIdentifier_m2607407678
NFj:__ZN6il2cpp5utils10MemoryPoolC2Ev
bVa:__ZN14RenderSettings5ResetEv
G6b:__ZN6Sprite9BindAtlasERK4PPtrI11SpriteAtlasE
Ruc:__ZN5Unity9rapidjson12GenericValueINS0_4UTF8IcEE13JSONAllocatorE10FindMemberIS4_EENS0_21GenericMemberIteratorILb0ES3_S4_EERKNS1_IS3_T_EE
Roj:__ZNSt3__212basic_stringIDsNS_11char_traitsIDsEENS_9allocatorIDsEEE6appendEPKDsj
qvc:__ZN5Unity9rapidjson13GenericReaderINS0_4UTF8IcEES3_13JSONAllocatorE11ParseNumberILj1ENS0_25GenericInsituStringStreamIS3_EENS0_15GenericDocumentIS3_S4_S4_EEEEvRT0_RT1_
wab:__ZN14SpriteRenderer14OnChangeSpriteEv
ose:_Dictionary_2_Do_ICollectionCopyTo_TisKeyValuePair_2_t3716250094_m1740410536_gshared
lwj:__ZN6il2cpp2os10ThreadImplD2Ev
UBe:_RSAManaged_Dispose_m3018788098
RFc:__ZN12b2MouseJoint23InitVelocityConstraintsERK12b2SolverData
hwc:__ZN8Gradient8TransferI9JSONWriteEEvRT_
Mri:_X509CertificateEnumerator_MoveNext_m1422952050
$Ea:__ZNK12TLSAllocatorI14StackAllocatorE22GetAllocatedMemorySizeEv
Sv:__ZN7mecanim6memory16ChainedAllocator8AllocateEjj
n4d:_Convert_ToUInt32_m3394039268
TCa:__ZN17RemapPPtrTransfer12PushMetaFlagE17TransferMetaFlags
zqb:__ZN12HandlerChain4NameEv
$wb:__Z29Transfer_Blittable_ArrayFieldI14SafeBinaryReadN4math12int3_storageEEvRT_R9ArrayInfoRK23StaticTransferFieldInfo
hcb:__ZNSt3__26vectorI9InputAxisNS_9allocatorIS1_EEE10deallocateEv
SIe:_Int16_Equals_m3925135434_AdjustorThunk
L8c:__Z44Register_UnityEngine_CanvasRenderer_get_cullv
psg:__ZL60IHashCodeProvider_t1980576455_CustomAttributesCacheGeneratorP21CustomAttributesCache
z8b:__ZN13ProduceHelperI13MonoBehaviourLb0EE7ProduceE18MemLabelIdentifier18ObjectCreationMode
AZe:_Enumerator_VerifyState_m1677639504_AdjustorThunk
Rwf:_CipherSuiteCollection_get_Item_m280627160
rtb:__Z44InitializeTransferFunctionScriptingTraitsForI17RemapPPtrTransferEvR31TransferFunctionScriptingTraits
$Pf:_SerializationInfoEnumerator_MoveNext_m1876990879
D4f:_TimeSpan_Duration_m4205681645
F2b:__ZN14UnityWebStream24UpdateAllUnityWebStreamsEv
O8b:__ZNSt3__26vectorI16MessageForwarder13stl_allocatorIS1_L18MemLabelIdentifier7ELi8EEE6resizeEj
Rqg:__ZL60ObsoleteAttribute_t3878847927_CustomAttributesCacheGeneratorP21CustomAttributesCache
hgi:_Uri_ParseAsWindowsAbsoluteFilePath_m1108586962
kne:_Array_InternalArray__ICollection_CopyTo_TisRaycastHit2D_t4063908774_m3837098618_gshared
kgb:__ZN18LoadSceneOperation21MustCompleteNextFrameEv
fzi:_DataUtility_GetInnerUV_m593541260
cT:__ZNK12AudioManager16GetAudioListenerEv
WIg:__ZL48Camera_t189460977_CustomAttributesCacheGeneratorP21CustomAttributesCache
p0b:__ZNSt3__26vectorI11CameraStackNS_9allocatorIS1_EEE8__appendEj
CJc:__ZNK11Rigidbody2D20GetAttachedCollidersER13dynamic_arrayIP10Collider2DLj4EE
cLd:_InputField_OnDisable_m1865339380
c8f:_UInt32_System_IConvertible_ToType_m747769316
Vx:__ZN7mecanim9animation12GetHumanPoseERKNS0_18ClipMuscleConstantEPKNS0_10ValueDeltaERNS_5human9HumanPoseE
vte:_Array_InternalArray__get_Item_TisInt16_t4041245914_m2533263979_gshared
Kz:__ZN22AnimationMixerPlayable17ProcessRootMotionEP35AnimationPlayableEvaluationConstantP32AnimationPlayableEvaluationInputP33AnimationPlayableEvaluationOutput
K9:__Z13GetFileSystemv
bba:__ZNK5Unity4Type21FindAllDerivedClassesER13dynamic_arrayIPKS0_Lj4EENS0_17TypeFilterOptionsE
Iba:__ZN13RuntimeStaticI15GUIEventManagerLb0EE16StaticInitializeEPv
tbb:__ZN14SafeBinaryRead8TransferIfEEvRT_PKc17TransferMetaFlags
IFe:_DaylightTime_get_Delta_m2316831491
JLc:__ZNSt3__27__sort5IR24RayHitsByDepthComparitorP12RaycastHit2DEEjT0_S5_S5_S5_S5_T_
Lfe:_Array_InternalArray__ICollection_Contains_TisUILineInfo_t3621277874_m1175659630_gshared
U3f:_WaitHandle_WaitOne_m370363697
wNf:_FactoryCache_Lookup_m1681894361
K6d:_DateTime_Subtract_m698282245_AdjustorThunk
Aab:__ZThn32_N14SpriteRenderer15AddAsRenderNodeER15RenderNodeQueueRK20DeprecatedSourceData
wke:_Array_InternalArray__IndexOf_TisResourceCacheItem_t333236149_m761772858_gshared
tRb:__ZN19ShaderPropertySheet9SetMatrixEN9ShaderLab16FastPropertyNameERK10Matrix4x4fNS_8SetFlagsE
_jd:_RIPEMD160Managed_Initialize_m3365407578
K0a:__Z29GetTextureSizeAllowedMultiple13TextureFormat
kHf:_IPAddress_HostToNetworkOrder_m1092199707
Bhe:_SetPropertyUtility_SetStruct_TisSpriteState_t1353336012_m2898060836_gshared
god:_SecurityAttribute__ctor_m3425755778
Odc:__ZN21IntermediateRenderers3AddEP20IntermediateRenderer
aaj:_il2cpp_array_element_size
Zf:_glCheckFramebufferStatus
Uie:_Array_compare_TisInt32_t2071877448_m840310202_gshared
jwh:_Enumerator_System_Collections_IEnumerator_get_Current_m229223308_AdjustorThunk
Mrj:__ZN15dense_hashtableINSt3__24pairIK10KeyWrapperINS1_IPKcS4_EEEiEES6_24NamespaceAndNamePairHashN14dense_hash_mapIS6_iS9_NS6_14EqualsComparerI26NamespaceAndNamePairEqualsEENS0_9allocatorIS8_EEE9SelectKeyESD_SF_E12resize_deltaEjj
q2h:_InternalEnumerator_1_System_Collections_IEnumerator_get_Current_m442726479_AdjustorThunk
C$:__ZN19CloudServiceHandler20StartEventDispatcherERKN11UnityEngine15CloudWebService18CloudServiceConfigERNS1_23WebRequestRestHeaderMapE
o0h:_InternalEnumerator_1_System_Collections_IEnumerator_get_Current_m790514740_AdjustorThunk
hve:__Z37il2cpp_codegen_get_executing_assemblyPK10MethodInfo
eJ:__ZN15SerializeTraitsINSt3__24pairI8StateKey10StateRangeEEE8TransferI24GenerateTypeTreeTransferEEvRS4_RT_
KJ:__ZN15SerializeTraitsI9OffsetPtrIN7mecanim12statemachine21SelectorStateConstantEEE8TransferI18StreamedBinaryReadILb0EEEEvRS4_RT_
Wje:_Array_InternalArray__IndexOf_TisByte_t3683104436_m3605266236_gshared
ePc:__ZN15dense_hashtableINSt3__24pairIKNS1_IPK10Collider2DS4_EE11Collision2DEES5_NS2_23ColliderPairHashFunctorEN14dense_hash_mapIS5_S7_S9_NS0_8equal_toIS5_EE13stl_allocatorIS8_L18MemLabelIdentifier67ELi16EEE9SelectKeyESC_SF_E13set_empty_keyERKS8_
DLh:_RaycastAllCallback_Invoke_m981876639
Q_f:_UnicodeEncoding__ctor_m72484327
Dzi:_Texture_INTERNAL_get_texelSize_m3335010007
qqj:__ZN14dense_hash_mapI10KeyWrapperIP14Il2CppIUnknownEjN6il2cpp5utils11PointerHashIS1_EENS3_14EqualsComparerINSt3__28equal_toIS2_EEEENS9_9allocatorINS9_4pairIKS3_jEEEEE15set_deleted_keyERSF_
qba:__ZN22BuiltinResourceManager16StaticInitializeEPv
Cv:__ZN7mecanim4hand8HandPose8TransferI19StreamedBinaryWriteILb0EEEEvRT_
bKe:_NumberFormatter_ScaleOrder_m1915154678
Cij:__ZN13Il2CppHashMapIPK14Il2CppAssemblyPK22Il2CppMonoAssemblyNameN6il2cpp5utils11PointerHashIS1_EENSt3__28equal_toIS2_EENSA_9allocatorINSA_4pairIK10KeyWrapperIS2_ES5_EEEEEC2EjRKS9_RKSC_
Myf:_ClientSessionInfo_SetContext_m2649357891
QKe:_Int32_System_IConvertible_ToInt64_m3790029067_AdjustorThunk
LCc:__ZN13BoxCollider2D13PrepareShapesER13dynamic_arrayIP7b2ShapeLj4EERK10Matrix4x4f
fs:__ZN14AnimationEvent8TransferI14SafeBinaryReadEEvRT_
Rvd:_RaycasterManager_GetRaycasters_m1154876874
ZDf:_SslStreamBase_InternalReadCallback_m2524917586
P8:__ZN8Remapper6RemoveEi
z2e:_List_1_CheckCollection_m2608305187_gshared
xjc:__ZN9Scripting27CreateArgumentNullExceptionEPKc
TTc:__ZL36CleanupTextRenderingScriptingClassesv
Smf:_ReadOnlyCollection_1__ctor_m3532148437_gshared
nPd:_Array_BinarySearch_m3270245097
Znc:__Z34Mesh_CUSTOM_SetArrayForChannelImplP12Il2CppObject30InternalScriptingShaderChannel34InternalScriptingVertexChannelTypeiP11Il2CppArrayi
EOe:_MonoIO_DeleteFile_m3273821223
dxe:_BigInteger_GenerateRandom_m2507308768
l5d:_DateTime_System_IConvertible_ToDouble_m1431748426_AdjustorThunk
wfe:_Array_InternalArray__ICollection_Contains_TisUInt16_t986882611_m510319131_gshared
qoe:_Array_InternalArray__Insert_TisRaycastHit2D_t4063908774_m3174907903_gshared
e9d:_Decimal_ToString_m541380585
saj:_il2cpp_class_is_valuetype
RK:__ZN11UnityEngine9Animation28GenericAnimationBindingCache25RegisterIAnimationBindingEPKN5Unity4TypeEiP17IAnimationBinding
P8c:__Z70RectTransformUtility_CUSTOM_INTERNAL_CALL_RectangleContainsScreenPointP12Il2CppObjectRK13Vector2fIcallS0_
Ube:_Enum_ToObject_m2601523252
ZPj:dynCall_viiffiii
g$b:__Z40ProcessCameraIndexListIsNodeVisibleInOutRK22SceneCullingParametersPK9SceneNodePK4AABBR9IndexList
noi:_Mathf_Sqrt_m3274009347
SSa:__ZN16GraphicsSettings8TransferI17RemapPPtrTransferEEvRT_
JRe:_StreamReader__ctor_m2654332332
r6c:__ZN2UI6Canvas13UpdateBatchesEb
Jqi:_Playable__cctor_m3745623656
PC:__ZNK23AnimationPlayableOutput11DerivesFromE17ScriptingClassPtr
tji:_Color_op_Implicit_m3487763211
F0e:_List_1_CheckCollection_m3968030679_gshared
K$f:_StringBuilder_ToString_m617673931
Dbd:__ZN11UnityEngine7Connect13ConfigHandler12GetListenersERKN4core12basic_stringIcNS2_20StringStorageDefaultIcEEEE
hja:__ZN9GfxDevice18AllocRenderSurfaceEb
sLh:_GetRayIntersectionAllNonAllocCallback_BeginInvoke_m273046189
A6b:__ZN10TagManager32GetSortingLayerUniqueIDFromValueEi
iei:_AnchorInfo_get_IsComplete_m1247624133
ZEd:_Dropdown_Show_m324374589
N5:__ZL27CleanupCoreScriptingClassesv
e7g:__Z68RuntimeInvoker_RuntimeObject_RuntimeObject_DSAParameters_t1872138834PFvvEPK10MethodInfoPvPS4_
Rlh:__Z101RuntimeInvoker_Void_t1841601450_RuntimeObject_Int32_t2071877448_Single_t2076509932_Single_t2076509932PFvvEPK10MethodInfoPvPS4_
kyd:_RaycastResult_get_isValid_m2482925612
Unc:__Z26AnimationCurve_CUSTOM_InitP12Il2CppObjectP11Il2CppArray
DXj:_glUniform1uiv__wrapper
_Cc:__ZNK14b2PolygonShape5CloneEP16b2BlockAllocator
nij:__ZN6il2cpp2vm10Reflection7IsEventEP12Il2CppObject
W6:__ZN17PersistentManager26GetStreamNameSpaceInternalEi
Pvi:_Rect_set_y_m3273335367
kN:__ZN4FMOD6System11createSoundEPKcjP22FMOD_CREATESOUNDEXINFOPPNS_5SoundE
$n:FUNCTION_TABLE_iiifiiii
Gdj:__ZN6il2cpp2vm4Type14IsSystemDBNullEPK10Il2CppType
U4:__ZN9ShaderLab19CommonPropertyNames13StaticCleanupEPv
f8:__Z31scripting_method_get_returntype18ScriptingMethodPtr
INh:_ScrollRect_UpdateBounds_m3266596336
Z1a:__ZN15SerializeTraitsI12LightmapDataE8TransferI24GenerateTypeTreeTransferEEvRS0_RT_
IAi:_Transform_INTERNAL_set_localScale_m1610244689
CCd:_ColorBlock_GetHashCode_m649325222
bUj:_glStencilOpSeparate__wrapper
kgc:__ZN4Mesh5SetUvEiPKfjj
u4a:__ZN7Texture13SetAnisoLimitENS_20AnisotropicFilteringE
ihb:__ZN28LightProbeProxyVolumeManager25UpdateSHCoeffsTextureDataER21LightProbeProxyVolume
FJa:__Z18CreateDecompressor15CompressionType18MemLabelIdentifier
WU:__ZN11AudioModule16SetListenerPauseEb
Sh:_emscripten_glCompressedTexSubImage2D
Jva:__ZN13GfxDeviceGLES22MemoryBarrierImmediateEyN2gl17MemoryBarrierTypeE
Vfa:__ZZN18SpriteAtlasManagerC1EvEN46EarlyUpdateSpriteAtlasManagerUpdateRegistrator7ForwardEv
pta:__ZN6prcoreL26RemapGenericFloatToIntegerI18TexFormatARGBFloat17TexFormatARGB8888EEvPKNS_9InnerInfoE
Tic:__Z46GetShaderModelNumericValueFromRequirementsMask18ShaderRequirements
y0c:_cff_ps_has_glyph_names
Ybi:_PatternCompiler_EmitPosition_m3013268572
UMf:_X509SubjectKeyIdentifierExtension__ctor_m1109455121
jHd:_Graphic_CreateColorFromAlpha_m2614574534
Duc:__Z44Register_UnityEngine_GUIStyle_SetDefaultFontv
mDb:__Z18Transfer_BlittableI18StreamedBinaryReadILb1EELb1EiEvRK29SerializationCommandArgumentsR31RuntimeSerializationCommandInfo
HE:__ZN9BlobWrite8TransferI22OffsetPtrArrayTransferIKN4math7_float3EEEEvRT_PKc17TransferMetaFlags
cnd:_TripleDES_IsWeakKey_m483013953
chj:__ZN15dense_hashtableINSt3__24pairIK10KeyWrapperINS1_IPK12PropertyInfoP11Il2CppClassEEEjEES9_17ReflectionMapHashIS8_EN14dense_hash_mapIS9_jSD_NS9_14EqualsComparerINS0_8equal_toIS8_EEEENS0_9allocatorISB_EEE9SelectKeyESI_SK_E12maybe_shrinkEv
udh:__Z75RuntimeInvoker_RuntimeObject_RuntimeObject_Single_t2076509932_RuntimeObjectPFvvEPK10MethodInfoPvPS4_
NDb:__Z18Transfer_BlittableI18StreamedBinaryReadILb1EELb1EsEvRK29SerializationCommandArgumentsR31RuntimeSerializationCommandInfo
olh:__Z54RuntimeInvoker_Void_t1841601450_ColorBlock_t2652774230PFvvEPK10MethodInfoPvPS4_
Dqd:_Single_System_IConvertible_ToSByte_m3757385387
zAi:_Vector3_get_forward_m1316319684
CPe:_StreamAsyncResult_SetComplete_m2141125667
y4a:__ZL21SetAnisoLimitEnumImplN7Texture20AnisotropicFilteringEb
T9c:__ZN22BaseUnityConnectClient17OnEnterStateReadyEv
gRa:__ZN14GrowableBufferD2Ev
KJi:_GUIStyle_get_stretchWidth_m813991504
inc:__Z29Input_CUSTOM_GetMouseButtonUpi
_8i:__ZN6il2cpp6icalls8mscorlib6System8MonoType16InternalGetEventEP20Il2CppReflectionTypeP12Il2CppStringi
i2f:_Interlocked_CompareExchange_m3339239614
qWc:_UNITY_tt_face_load_maxp
wnc:__Z46Input_CUSTOM_INTERNAL_set_compositionCursorPosRK13Vector2fIcall
Yw:__ZN7mecanim5human12FullBodyMaskEv
rAi:_Transform_set_position_m2942701431
bbb:__ZN19ShaderPropertySheet11ComputeHashEv
r3i:__ZN30dense_hashtable_const_iteratorI10KeyWrapperIPK19Il2CppGenericMethodES4_N6il2cpp8metadata23Il2CppGenericMethodHashEN14dense_hash_setIS4_S7_NS4_14EqualsComparerINS6_26Il2CppGenericMethodCompareEEENSt3__29allocatorIS4_EEE8IdentityESB_SE_EppEv
SKc:__ZN12b2EPCollider24ComputePolygonSeparationEv
b_:__ZN11UnityEngine15CloudWebService20WebRequestRestClient6IsDoneEv
Oi:_llvm_fabs_f32
GBd:_CanvasScaler_HandleScaleWithScreenSize_m80056230
GZ:__ZN11UnityEngine15CloudWebService16SessionContainer16GetJsonDataBlockEjRKN4core12basic_stringIcNS2_20StringStorageDefaultIcEEEERS6_PjSA_
SXf:_SByte_System_IConvertible_ToUInt64_m2174352876_AdjustorThunk
ts:__ZN7mecanim9animation18ClipMuscleConstant8TransferI14SafeBinaryReadEEvRT_
V0f:_UTF7Encoding_InternalGetBytes_m2772055844
l9g:__Z76RuntimeInvoker_Void_t1841601450_Int64_t909078037_ResourceInfoU26_t3126209420PFvvEPK10MethodInfoPvPS4_
Fve:_SimpleCollator__cctor_m2693747668
Z8d:_Decimal_CompareTo_m2454501434_AdjustorThunk
k7:__ZN14SafeBinaryReadD2Ev
P6f:_UInt16_System_IConvertible_ToChar_m4055364664
X7b:__Z13RegisterClassI7TextureEvv
bFb:__ZN8Gradient8TransferI18StreamedBinaryReadILb1EEEEvRT_
u8f:_UInt32_ToString_m554020223_AdjustorThunk
Rmi:_GameObject_SendMessage_m3423113156
Epj:__ZN6il2cpp6icalls8mscorlib6System4Type15MakeGenericTypeEP20Il2CppReflectionTypeP11Il2CppArray
nj:_SDL_PauseAudio
xaj:_il2cpp_class_from_type
VPd:_Array_Sort_m2323017822
kMh:_Scrollbar_UpdateDrag_m3839695926
T4:__ZN9ShaderLab19CommonPropertyNames16StaticInitializeEPv
nUe:_MissingMemberException__ctor_m3710131950
JG:__ZN7mecanim9animation18CreateAvatarOutputEPKNS0_14AvatarConstantEbbRNS_6memory9AllocatorE
Dfh:__Z91RuntimeInvoker_Void_t1841601450_RuntimeObject_Int32_t2071877448_RuntimeObject_RuntimeObjectPFvvEPK10MethodInfoPvPS4_
RYf:_CspParameters__ctor_m2546931874
WS:__ZN11AudioSource23VirtualRedirectTransferER24GenerateTypeTreeTransfer
Rfc:__ZN7Texture11SetWrapModeE15TextureWrapMode
U6a:__ZN14Texture2DArray23VirtualRedirectTransferER14SafeBinaryRead
iWb:__ZNK6Camera21CalculateCanDoShadowsEv
nHd:_Graphic__cctor_m1643894470
oyj:__ZN6il2cpp2os6Thread12SetStackSizeEj
DKf:_X509ChainElementEnumerator_get_Current_m2232618221
Pki:_DebugLogHandler_LogFormat_m2866699703
cBd:_U3COnFinishSubmitU3Ec__Iterator0_Reset_m2080388334
Kfc:__ZNK8Renderer16IsVisibleInSceneEv
CNh:_ScrollRect_set_onValueChanged_m3957749575
X2:__Z13VFormatBufferPciPKcz
iGb:__Z18Transfer_BlittableI18StreamedBinaryReadILb0EELb1EhEvRK29SerializationCommandArgumentsR31RuntimeSerializationCommandInfo
oWi:_U3CCreateWhereIteratorU3Ec__Iterator1D_1_Dispose_m1879652802_gshared
gJd:_Image_GenerateSimpleSprite_m4275440988
E7f:_UInt16_ToString_m3280699191
tta:__ZN6prcoreL27StretchGenericFloatBilinearI15TexFormatRFloatEEvPKNS_9InnerInfoE
gKj:_PersoController2_Start_m114850156
Nz:__Z24ProcessAnimationMixBeginP35AnimationPlayableEvaluationConstantP32AnimationPlayableEvaluationInputP33AnimationPlayableEvaluationOutput
Hje:_Array_IndexOf_TisCustomAttributeNamedArgument_t94157543_m745056346_gshared
wqa:__Z14PadImageBorderR14ImageReferenceii
Hfj:__ZN15dense_hashtableINSt3__24pairIK10KeyWrapperINS1_IPK10MethodInfoP11Il2CppClassEEEjEES9_17ReflectionMapHashIS8_EN14dense_hash_mapIS9_jSD_NS9_14EqualsComparerINS0_8equal_toIS8_EEEENS0_9allocatorISB_EEE9SelectKeyESI_SK_E4findERSA_
v6i:__ZN6il2cpp2vm13MetadataCache28GetFieldDefaultValueForFieldEPK9FieldInfo
cTh:_ArrayReadOnlyList_1_ReadOnlyError_m2289309720_gshared
pA:__ZN27AnimationLayerMixerPlayableD2Ev
m9i:__ZN6il2cpp2vm8basepathEPKc
Iuf:_PKCS1_Verify_v15_m478274703
pP:__ZN12AudioManager39HandlePendingAudioConfigurationCallbackEv
F6g:__Z119RuntimeInvoker_Int32_t2071877448_RuntimeObject_RuntimeObject_Int32_t2071877448_Int32_t2071877448_BooleanU26_t3168250738PFvvEPK10MethodInfoPvPS4_
jk:_emscripten_glIsFramebuffer
MNa:__ZN12_GLOBAL__N_16qAtan2Eff
x3d:_Convert_ToInt64_m954367741
nk:_JS_Sound_SetLoopPoints
UUd:_ArrayList__ctor_m1467563650
gU:__ZN12AudioManager17ShouldSourcePauseEb
hGj:__ZN6il2cpp2vm26MetadataAllocGenericMethodEv
Zya:__ZN19ConstantBuffersGLES12RecordRenderEv
Zxc:__ZN9JSONWrite8TransferI10RectOffsetEEvRT_PKc17TransferMetaFlags
bqa:__ZN4crnd12symbol_codec11decode_bitsEj
dLc:__ZN15b2CircleContact8EvaluateEP10b2ManifoldRK11b2TransformS4_
Yqe:_Array_Sort_TisRaycastResult_t21186376_TisRaycastResult_t21186376_m38820193_gshared
hsi:_PKCS12_EncryptedContentInfo_m938119256
OOe:_StreamReader__ctor_m3454466728
tP:__ZN4FMOD6System12createReverbEPPNS_6ReverbE
exi:_RectTransform_get_anchorMin_m3466802567
gA:__ZN7mecanim19ValueArrayBlendNodeILb1EEEvRKNS_10ValueArrayERKNS_14ValueArrayMaskERS1_RS4_RNS_16ValueArrayWeightEf
wib:__Z16MarkDependenciesR27GarbageCollectorThreadStatej
vMf:_X509ChainElementEnumerator_Reset_m3832280427
tWe:_MulticastDelegate_RemoveImpl_m2024746777
QBd:_CanvasUpdateRegistry_ParentCount_m2367607495
nWe:_MulticastDelegate_Equals_m3064081489
OEe:_Activator_CreateInstance_m1465989661
Rga:__ZNK9Transform11GetPositionEv
Jfi:_PositionAssertion_GetWidth_m2294218483
UTa:__ZN23SharedMeshRenderingData18UnloadVertexStreamEi
Ndc:__ZN31CanvasBatchIntermediateRenderer11AddSubBatchERK16DrawBuffersRangePK19ShaderPropertySheet
C5g:__Z99RuntimeInvoker_Void_t1841601450_RuntimeObject_Int32_t2071877448_Int32_t2071877448_Int32_t2071877448PFvvEPK10MethodInfoPvPS4_
vcc:__ZN19RenderEventsContextC2Ei
UX:__Z6simd4fRKf
ene:_Array_InternalArray__ICollection_CopyTo_TisColor32_t874517518_m379086718_gshared
aQh:_Slider_ClampValue_m2851810895
Rk:_emscripten_glEnable
duj:__ZN6il2cpp2gc16GarbageCollector29RegisterFinalizerForNewObjectEP12Il2CppObject
nMa:__ZN10TagManager23VirtualRedirectTransferER14SafeBinaryRead
MVc:_UNITY_FT_Init_Class_ft_grays_raster
Gda:__ZN14PlayableOutput26ClearInvalidSourcePlayableEv
XYb:__Z15InitLightMeshesv
qCg:__ZL97WaitHandle_t677569169_CustomAttributesCacheGenerator_WaitHandle_t677569169____Handle_PropertyInfoP21CustomAttributesCache
NXe:_KeyValuePair_2_ToString_m1391611625_AdjustorThunk
Dn:FUNCTION_TABLE_iifiii
B2d:_Double_Parse_m1617409931
KVi:_Comparison_1_BeginInvoke_m4056757384_gshared
p4a:__ZN15QualitySettings8TransferI19StreamedBinaryWriteILb0EEEEvRT_
C_c:_cf2_arrstack_init
$vg:__ZL65ClassInterfaceAttribute_t910653559_CustomAttributesCacheGeneratorP21CustomAttributesCache
Vdj:__ZN15dense_hashtableINSt3__24pairIK10KeyWrapperINS1_IPK14Il2CppAssemblyP11Il2CppClassEEEjEES9_17ReflectionMapHashIS8_EN14dense_hash_mapIS9_jSD_NS9_14EqualsComparerINS0_8equal_toIS8_EEEENS0_9allocatorISB_EEE9SelectKeyESI_SK_E15insert_noresizeERKSB_
O1:__Z15CleanLogHandler7LogTypePKcz
Nmb:__ZN9ShaderLab19SerializedSubShader8TransferI19StreamedBinaryWriteILb0EEEEvRT_
A0f:_UTF32Encoding_GetBytes_m2290150495
tJb:__ZN6Camera17RemoveImageFilterERK11ImageFilter
Xua:__ZNSt3__218__insertion_sort_3IR25ValueParameterArraySorterPN20GpuProgramParameters14ValueParameterEEEvT0_S6_T_
IGc:__ZN10ClipperLib7Clipper27ProcessEdgesAtTopOfScanbeamEx
RIh:_LayoutUtility_GetLayoutProperty_m4052007472
Rxa:__ZNSt3__214__split_bufferI20ComputeShaderVariantRNS_9allocatorIS1_EEED2Ev
EGb:__Z18Transfer_BlittableI18StreamedBinaryReadILb0EELb1E9BoundsIntEvRK29SerializationCommandArgumentsR31RuntimeSerializationCommandInfo
izf:_Context_set_WriteSequenceNumber_m3356252710
nBj:__ZN6il2cpp2vm13ManagedObject7GetIidsEPjPP10Il2CppGuid
Y6c:__ZN2UI26InitializeDeviceForOverlayEi
SHe:_Guid_Equals_m2389236871
N3:__Z27LogRepeatingStringWithFlagsRKN4core12basic_stringIcNS_20StringStorageDefaultIcEEEE15LogMessageFlagsi
C_e:_Enumerator_MoveNext_m3483405135_gshared
yx:__ZN17AnimationPlayable28ComputeNeedsBindingRebuildedEv
Ew:__ZN17AnimationPlayable23RequestAllocateBindingsEv
Lle:_Array_InternalArray__ICollection_Add_TisMonoResource_t3127387157_m2070096275_gshared
H$e:_List_1_CheckIndex_m3609163576_gshared
ZJj:_HealthPerso1Script_Start_m3531544672
dKf:_X509ExtensionCollection__ctor_m1324282194
Ncd:__ZN18UnityConnectClient33OnPlayerSessionStateChangedStaticEPS_jyy
Vrg:__ZL74CaseInsensitiveHashCodeProvider_t2307530285_CustomAttributesCacheGeneratorP21CustomAttributesCache
L_:__ZNK11UnityEngine15CloudWebService23WebRequestUploadHandler11GetProgressEv
$ma:__ZN7ApiGLES4LoadE16GfxDeviceLevelGL
l2a:__ZN18StreamedBinaryReadILb0EE21TransferSTLStyleArrayI13dynamic_arrayI31EnlightenSystemAtlasInformationLj8EEEEvRT_17TransferMetaFlags
Wpa:__ZN4crnd12crn_unpacker22decode_color_endpointsEv
ktj:__ZN15dense_hashtableI10KeyWrapperIP18Il2CppGenericClassES3_N6il2cpp8metadata22Il2CppGenericClassHashEN14dense_hash_setIS3_S6_NS3_14EqualsComparerINS5_25Il2CppGenericClassCompareEEENSt3__29allocatorIS3_EEE8IdentityESA_SD_E15insert_noresizeERKS3_
Ylf:_ReadOnlyCollection_1_System_Collections_IList_Clear_m3006875897_gshared
Cbc:__ZZL31RegisterOtherRendererPropertiesR22GenericPropertyBindingEN30Wrapper_RendererReceiveShadows13GetFloatValueEPv
U_e:_Enumerator_System_Collections_IEnumerator_get_Current_m3866069145_gshared
FMb:__ZN8Material11SetPassFastEPN9ShaderLab4PassER17ShaderPassContextP6Shaderib
Lcd:__ZN11UnityEngine7Connect20BasePersistentValues10SaveValuesER9JSONWrite
sPi:_AudioListener_AddExtension_m2954727157
Rwd:_ExecuteEvents_get_pointerDownHandler_m1172742772
ILc:__ZNSt3__27__sort4IR24RayHitsByDepthComparitorP12RaycastHit2DEEjT0_S5_S5_S5_T_
_gc:__Z14ScaleCurveTimeR17AnimationCurveTplIfEf
Oba:__ZN22VirtualJoystickManagerC2Ev
eTb:__Z12SetupLODFadeR9GfxDeviceR17ShaderPassContextf
z_a:__ZNK14PlayableOutput7GetTypeEv
pKc:__ZN26b2PolygonAndCapsuleContact6CreateEP9b2FixtureiS1_iP16b2BlockAllocator
L6g:__Z203RuntimeInvoker_Boolean_t3825574718_RuntimeObject_Int32U26_t455636984_Int32_t2071877448_Int32_t2071877448_RuntimeObject_SByte_t454417549_Int32_t2071877448_ContractionU26_t2019974048_ContextU26_t3131521781PFvvEPK10MethodInfoPvPS4_
KYb:__ZL24CollectForwardObjectsJobP27CollectForwardObjectsHeader
tuh:_Enumerator_System_Collections_IDictionaryEnumerator_get_Entry_m345330700_gshared
h0b:__ZNK25CameraStackRenderingState24ResolveTempToEyeTexturesEv
H_b:__Z13IsNodeVisibleRK9SceneNodeRK4AABBRK22SceneCullingParameters
R8c:__Z57RectTransformUtility_CUSTOM_INTERNAL_CALL_PixelAdjustRectP12Il2CppObjectS0_R5RectTIfE
F$b:__Z24ScheduleCullingAllGroupsR8JobFenceRK22SceneCullingParametersiRK13CullingOutputRK13dynamic_arrayIP12CullingGroupLj4EERKS_
zUf:_DelayedFixupRecord_FixupImpl_m4249966635
zZj:_emscripten_glStencilMask__wrapper
h3i:__ZN15dense_hashtableI10KeyWrapperIPK19Il2CppGenericMethodES4_N6il2cpp8metadata23Il2CppGenericMethodHashEN14dense_hash_setIS4_S7_NS4_14EqualsComparerINS6_26Il2CppGenericMethodCompareEEENSt3__29allocatorIS4_EEE8IdentityESB_SE_EC2ERKSH_j
pxe:_BigInteger_ToString_m3837784224
X8d:_Decimal_decimalCompare_m26009298
YPc:__ZN16NovodexAllocator8allocateEjPKcS1_i
jYb:__Z17PrepareShadowMapsRK11CullResultsRK11ActiveLightRK10MinMaxAABB
X1f:_NativeEventCalls_CreateEvent_internal_m1605829321
mOg:__ZL73RuntimePlatform_t1869584967_CustomAttributesCacheGenerator_MetroPlayerX64P21CustomAttributesCache
OYh:_InternalEnumerator_1_System_Collections_IEnumerator_get_Current_m3239681450_AdjustorThunk
HYb:__ZN9ShaderLab10GrabPassesD2Ev
d7a:__ZN14Texture2DArray13UploadTextureEv
$Xc:_tt_cmap14_done
ngb:__ZN18AwakeFromLoadQueue25RegisterObjectInstanceIDsEv
lSd:_Buffer_BlockCopy_m1586717258
bzg:__ZL93X509Certificate_t283079845_CustomAttributesCacheGenerator_X509Certificate_GetName_m2354987368P21CustomAttributesCache
uA:__ZNK27AnimationLayerMixerPlayable11DerivesFromE17ScriptingClassPtr
aSc:__ZN20TextRenderingPrivate19NativeTextGenerator15InsertCharacterEiPj
Ade:_CompareInfo_GetSortKey_m3691382873
pEc:__ZN11b2RopeJoint24SolveVelocityConstraintsERK12b2SolverData
T7d:_DBNull_ToString_m3228904745
pIf:_WebHeaderCollection_AddWithoutValidate_m1479880592
l_i:_Physics2D_Raycast_m608778191
Zuf:_RC4_get_IV_m506011366
vti:_X509Crl__ctor_m2469408229
Guh:_Enumerator_get_CurrentValue_m3562053380_AdjustorThunk
_Mf:_X509SubjectKeyIdentifierExtension_CopyFrom_m136762226
aZe:_Enumerator_System_Collections_IEnumerator_Reset_m610822832_AdjustorThunk
WTc:__ZN20TextRenderingPrivate15DynamicFontData21GetFontMetricsForFaceERK13dynamic_arrayIN4core17string_with_labelILi35EEELj4EEiRKS1_I4PPtrIN13TextRendering4FontEELj4EEPfSF_
WSc:_UNITY_FT_Open_Face
qVj:_glGenRenderbuffers__wrapper
kye:_BigInteger_op_Division_m1581119694
NVf:_CallbackHandler_Invoke_m1498072969
ahd:_DSACryptoServiceProvider__ctor_m701823690
jcg:_CustomAttributeData_GetCustomAttributes_m2421330738
$Ui:_TextGenerator_GetVerticesInternal_m514005870
_rj:__ZN30dense_hashtable_const_iteratorINSt3__24pairIK10KeyWrapperINS1_IPKcS4_EEEiEES6_24NamespaceAndNamePairHashN14dense_hash_mapIS6_iS9_NS6_14EqualsComparerI26NamespaceAndNamePairEqualsEENS0_9allocatorIS8_EEE9SelectKeyESD_SF_EppEv
z5f:_Type_get_IsEnum_m313908919
zlc:__Z44Register_UnityEngine_Component_get_transformv
sef:_Collection_1_System_Collections_ICollection_CopyTo_m1335644572_gshared
LF:__ZN12_GLOBAL__N_120ProcessPlayableGraphERN8Animator11AnimatorJobER35AnimationPlayableEvaluationConstantR32AnimationPlayableEvaluationInputR33AnimationPlayableEvaluationOutputPFvS4_R17AnimationPlayableEPFvS4_S6_S8_EPFvS8_S4_S6_S8_fESE_MS9_FvPS3_PS5_PS7_E
j5e:_List_1_CheckMatch_m2830747427_gshared
ROb:__ZN17ArchiveFileSystem12MountArchiveEPKcS1_
cxc:__Z18Transfer_BlittableI9JSONWriteLb1E8Vector4fEvRK29SerializationCommandArgumentsR31RuntimeSerializationCommandInfo
zn:FUNCTION_TABLE_viififiii
eNa:__Z30GetScriptableCullingParametersR6CameraR27ScriptableCullingParameters
ovh:_Enumerator_System_Collections_IEnumerator_Reset_m70453843_gshared
T2a:__ZThn32_NK8Renderer14GetSubsetIndexEi
gse:_Dictionary_2_Do_CopyTo_TisKeyValuePair_2_t1174980068_TisRuntimeObject_m3279061992_gshared
nac:__ZN13ProduceHelperI15ResourceManagerLb0EE7ProduceE18MemLabelIdentifier18ObjectCreationMode
aka:__ZN9GfxDevice15ImmediateVertexEfff
E7b:__Z13RegisterClassI8MaterialEvv
A1a:__ZNK16LightmapSettings22GetTypeVirtualInternalEv
kJi:_WindowFunction_BeginInvoke_m87819360
Hce:_FieldAccessException__ctor_m3893881490
DBc:__ZN8JSONRead21TransferSTLStyleArrayI13dynamic_arrayItLj2EEEEvRT_17TransferMetaFlags
xha:__ZN13GfxDeviceGLES15SetStencilStateEPK18DeviceStencilStatei
Ogh:__Z107RuntimeInvoker_Void_t1841601450_Single_t2076509932_Single_t2076509932_Single_t2076509932_Single_t2076509932PFvvEPK10MethodInfoPvPS4_
CLj:_cycle
Hd:_emscripten_glUniform1iv
xRh:_Text_get_preferredHeight_m452532789
VJc:__ZN15b2DistanceProxy3SetEPK7b2Shapei
wrd:_String_System_IConvertible_ToDouble_m3860911722
Vrb:__ZN16MemoryFileSystemD2Ev
y1h:_InternalEnumerator_1_get_Current_m3732458101_AdjustorThunk
rtf:_ARC4Managed__ctor_m2922048522
lSc:__Z17dynamic_pptr_castIP9Texture2D7TextureET_RK4PPtrIT0_E
Lmf:_ReadOnlyCollection_1_System_Collections_IList_set_Item_m1272038804_gshared
gUh:_InternalEnumerator_1_System_Collections_IEnumerator_get_Current_m1931522460_AdjustorThunk
cod:_SecurityPermission_IsEmpty_m1869313067
ilc:__Z37Register_UnityEngine_Camera_get_depthv
xBe:_EncryptedPrivateKeyInfo_get_Salt_m2734354394
Hof:_ReadOnlyCollection_1_System_Collections_Generic_IListU3CTU3E_set_Item_m1918537449_gshared
Hdf:_Collection_1_System_Collections_ICollection_CopyTo_m3896480607_gshared
xxd:_PointerEventData_set_position_m794507622
hmi:_UnityEvent_GetDelegate_m1261032859
_4b:__Z23ConvertIntegerToTypePtrItEbPvR14SafeBinaryRead
nG:__ZN7mecanim5human29HumanGetGoalOrientationOffsetENS0_4GoalE
Yd:_emscripten_glStencilFunc
KWd:_SynchronizedArrayListWrapper_get_Capacity_m2541698837
Alg:_MonoMethod_MakeGenericMethod_impl_m2063853616
Spd:__Z46il2cpp_codegen_get_marshal_directive_exceptionPKc
Ynb:__ZN9ShaderLab20SerializedSubProgram14AddMatrixParamEPKcii15ShaderParamTypei
ce:_glGetActiveUniformBlockName
Nf:_emscripten_glUniform1fv
_He:_Guid_AppendByte_m2890893073
xTd:_Char_System_IConvertible_ToType_m3106771703_AdjustorThunk
bPf:_Interval_Intersects_m3480157390_AdjustorThunk
Pnc:__Z39Quaternion_CUSTOM_INTERNAL_CALL_InverseRK11QuaternionfRS_
q6h:_GCHandle_Alloc_m1063472408
nQ:__ZN4FMOD7Channel20set3DConeOrientationEP11FMOD_VECTOR
qn:FUNCTION_TABLE_iiifii
EYf:_CryptoConfig_CreateFromName_m391442950
tYi:_RectTransformUtility_INTERNAL_CALL_PixelAdjustRect_m3338747528
ovj:__ZN6il2cpp2vm12GenericClass11SetupEventsEP11Il2CppClass
W1c:_tt_delta_interpolate
UXc:_tt_cmap12_get_info
Tqj:__ZN6il2cpp2vm15ReboxIReferenceEP14Il2CppIUnknownP11Il2CppClass
mSe:_StreamWriter_LowLevelWrite_m4205372900
OYi:__ZN6il2cpp6icalls8mscorlib6System7Decimal14decimalCompareEP19il2cpp_decimal_reprS5_
rBj:__ZThn4_N6il2cpp2vm13CachedCCWBaseINS0_13ManagedObjectEE7ReleaseEv
aYd:_CollectionBase_System_Collections_IList_get_Item_m2370387510
Qqe:_Array_Sort_TisCustomAttributeNamedArgument_t94157543_m3436077809_gshared
CWj:_glCopyTexImage2D__wrapper
LMd:_LayoutElement__ctor_m789941073
GOc:__ZN16PhysicsManager2D11CreateWorldERK8Vector2f
o2:__GLOBAL__sub_I_runtime_graphics_billboard_0_cpp
MMb:__Z18ClearByDrawingQuad13GfxClearFlagsRK10ColorRGBAffjR17ShaderPassContext
b9h:_DynamicPropertyCollection_FindProperty_m1233265924
Ssa:__ZN6prcoreL17RemapGenericFloatI14TexFormatRHalf15TexFormatRFloatEEvPKNS_9InnerInfoE
VSb:__Z16ShouldUseShadowsb
zda:__ZN15DirectorManager21RebuildStageCallbacksEv
ZMb:__ZN19RuntimeSceneManager9LoadSceneERKN4core12basic_stringIcNS0_20StringStorageDefaultIcEEEES6_S6_RK9UnityGUIDiNS_11LoadingModeE
aua:__ZN7ApiGLES10DrawArraysE16GfxPrimitiveTypejjj
NN:__ZN10SampleClip13LoadBaseSoundEv
Swi:_RectOffset_get_left_m1496351507
bX:__Z57AudioSource_CUSTOM_INTERNAL_CALL_ClearExtensionPropertiesP12Il2CppObjectRK12PropertyName
wv:__ZN7mecanim9animation4Clip8TransferI19StreamedBinaryWriteILb0EEEEvRT_
ruj:__ZN15dense_hashtableINSt3__24pairIK10KeyWrapperIP12Il2CppObjectEN6il2cpp2gc9CachedCCWEEES5_NS7_5utils11PointerHashIS3_EEN14dense_hash_mapIS5_S9_SD_NS5_14EqualsComparerINS0_8equal_toIS4_EEEENS0_9allocatorISA_EEE9SelectKeyESI_SK_E15insert_noresizeERKSA_
Chf:_Collection_1_Contains_m643401393_gshared
WZa:__ZN22DeviceMVPMatricesStateC2ER9GfxDevice
ord:_String__ctor_m372528291
$m:FUNCTION_TABLE_iifii
x5a:__ZNSt3__26vectorI13dynamic_arrayI8Vector2fLj4EENS_9allocatorIS3_EEE6assignINS_11__wrap_iterIPS3_EEEENS_9enable_ifIXaasr21__is_forward_iteratorIT_EE5valuesr16is_constructibleIS3_NS_15iterator_traitsISC_E9referenceEEE5valueEvE4typeESC_SC_
H1a:__ZN21EnlightenSceneMapping8TransferI14SafeBinaryReadEEvRT_
p_f:_Encoding_SetFallbackInternal_m1682842442
jmi:_UnityEvent_FindMethod_Impl_m947332673
cGa:__ZNSt3__26__treeIiNS_4lessIiEE13stl_allocatorIiL18MemLabelIdentifier1ELi16EEE7destroyEPNS_11__tree_nodeIiPvEE
lc:invoke_viiifi
kVe:_LongComparer_Compare_m3981323622
fHh:_EqualityComparer_1__cctor_m3033994022_gshared
dGa:__ZNK11AssetBundle14GetPreloadDataEiR13dynamic_arrayIiLj4EE
FCe:_EncryptedData_get_EncryptedContent_m2732115576
MBi:_Vector3__ctor_m2761639014
mf:_JS_Sound_SetPosition
mdi:_Assertion_set_FalseExpression_m1781616372
WMf:_X509SubjectKeyIdentifierExtension_FromHexChars_m2515150420
dWa:__ZN19RenderBufferManager13GetTempBufferEii17DepthBufferFormat19RenderTextureFormatj22RenderTextureReadWrite14VRTextureUsagei23RenderTextureMemoryless
X5i:__ZL13GetSharedInstPK17Il2CppGenericInst
Hqg:__ZL51IReflect_t3412036974_CustomAttributesCacheGeneratorP21CustomAttributesCache
xzd:_StandaloneInputModule_SendSubmitEventToSelectedObject_m3421155293
ivi:_Quaternion_Equals_m798965363_AdjustorThunk
e_b:__Z17PrepareSceneNodesP11CullResults
uXi:_Canvas_get_sortingLayerID_m137448982
Pai:_CallContextRemotingData_Clone_m2226242476
J6:__Z63ThreadAndSerializationSafeCheckSetMonoBehaviourBeingTransferredP13MonoBehaviour
NYb:__Z24SetupActiveLightsContextR21ActiveLightingContextRK12ActiveLightsRK11CullResultsP14ShadowMapCacheRK10MinMaxAABB
rpc:__Z38Sprite_CUSTOM_INTERNAL_get_textureRectP12Il2CppObjectP5RectTIfE
Q7d:_DBNull_System_IConvertible_ToUInt32_m2681284284
Xt:__ZNSt3__26vectorIN13AnimationClip15QuaternionCurveE13stl_allocatorIS2_L18MemLabelIdentifier26ELi16EEE7reserveEj
Qic:__ZN9TextAsset7SetTextERKN4core12basic_stringIcNS0_20StringStorageDefaultIcEEEE
WPa:__ZN6Camera8TransferI24GenerateTypeTreeTransferEEvRT_
THh:_EqualityComparer_1__cctor_m416314417_gshared
Ja:invoke_iiiiiiif
Fa:invoke_iiiiiiii
nLf:_X509ChainElementCollection_Contains_m3599995067
e0b:__ZN8Renderer17PendingAddToSceneEv
u_j:b123
t_j:b122
w_j:b125
v_j:b124
y_j:b127
x_j:b126
A_j:b129
Hoc:__Z52Register_UnityEngine_RectTransform_INTERNAL_get_rectv
A5:__Z21PostprocessStacktracePKcRN4core12basic_stringIcNS1_20StringStorageDefaultIcEEEE
$db:__ZN18StreamedBinaryReadILb0EE21TransferSTLStyleArrayI13dynamic_arrayI16SplashScreenLogoLj4EEEEvRT_17TransferMetaFlags
yge:_Array_InternalArray__ICollection_Remove_TisX509ChainStatus_t4278378721_m4127982424_gshared
slc:__Z47Register_UnityEngine_Camera_get_allCamerasCountv
_gd:___clang_call_terminate
cad:__ZN22BaseUnityConnectClient20StartEventDispatcherEv
ogc:__ZNSt3__26vectorIj13stl_allocatorIjL18MemLabelIdentifier1ELi16EEE6assignIPKtEENS_9enable_ifIXaasr21__is_forward_iteratorIT_EE5valuesr16is_constructibleIjNS_15iterator_traitsIS9_E9referenceEEE5valueEvE4typeES9_S9_
bF:__ZN7mecanim9animation16EvaluateAvatarIKEPKNS0_14AvatarConstantEPKNS0_11AvatarInputEPNS0_12AvatarOutputEPNS0_12AvatarMemoryEPNS0_15AvatarWorkspaceEb
Aua:__ZL25ProgramUniformMatrix4x3fvPK7ApiGLESjiihPKv
cQb:__ZN12InputManager13InputEndFrameEv
rFc:__ZN15b2RevoluteJointC2EPK18b2RevoluteJointDef
Amj:__ZN6il2cpp2vm6Thread5SetupEP12Il2CppThread
Wpf:_ReadOnlyCollection_1_System_Collections_IList_Remove_m2200089035_gshared
Cdf:_Collection_1_CheckWritable_m2756357359_gshared
HMj:___munmap
eKd:_InputField_get_characterLimit_m2386380888
iYg:__ZL68ColorBlock_t2652774230_CustomAttributesCacheGenerator_m_PressedColorP21CustomAttributesCache
j3d:_Convert_ToInt64_m1722087499
dg:_localtime_r
gg:_strftime
Swa:__ZN7Texture33SetStoredColorSpaceNoDirtyNoApplyE17TextureColorSpace
iaa:__ZN12FileAccessorD2Ev
gUa:__ZN14VertexDataInfoC2Ev
Dxj:__ZN6il2cpp2gc16GarbageCollector14CollectALittleEv
xXh:_InternalEnumerator_1_get_Current_m2415979394_gshared
AEb:__ZL17Transfer_GUIStyleI18StreamedBinaryReadILb1EELb1EEvRK29SerializationCommandArgumentsR31RuntimeSerializationCommandInfo
mNh:_ScrollRect_SetDirtyCaching_m1491302821
Q8i:__ZN6il2cpp6icalls8mscorlib6SystemL9IsPrivateEPK12PropertyInfo
lcg:_CustomAttributeData_GetCustomAttributes_m3258419955
Loi:_Matrix4x4_GetColumn_m83396621
Q4:__ZN9shadertag10InitializeEv
gTb:__ZN13BatchRenderer20RenderSingleWithPassER17ShaderPassContextPK18SharedMaterialDataP6ShaderPN9ShaderLab4PassEiPKNS7_10GrabPassesEjib15BatchBreakCause
m4a:__ZN15QualitySettings14QualitySetting8TransferI24GenerateTypeTreeTransferEEvRT_
Tme:_Array_InternalArray__ICollection_CopyTo_TisParameterModifier_t1820634920_m4127516211_gshared
uZf:_DecoderReplacementFallback__ctor_m2344783488
CXe:_OutOfMemoryException__ctor_m239206850
Xyi:_Sprite_get_rect_m3985037234
zGd:_GraphicRegistry_UnregisterGraphicForCanvas_m820096873
v3c:__Z28Font_Get_Custom_PropMaterialP12Il2CppObject
OVg:__ZL65EventTrigger_t1967201810_CustomAttributesCacheGenerator_delegatesP21CustomAttributesCache
Ref:_Collection_1_Remove_m4136193368_gshared
jwd:_EventTrigger_OnPointerUp_m2791622548
vPh:_Shadow_set_useGraphicAlpha_m141905402
lfc:__ZN22BlockMemoryCacheWriter14LockCacheBlockEjPPhS1_
pyj:__ZN6il2cpp2os6Thread10RunWrapperEPv
OAc:__Z22TransferField_NonArrayI8JSONRead27Converter_SimpleNativeClassI8GUIStyleEEvRK23StaticTransferFieldInfoR31RuntimeSerializationCommandInfoRT0_
Mg:_llvm_eh_typeid_for
v7b:__Z13RegisterClassI10GameObjectEvv
o4i:__ZNK15dense_hashtableINSt3__24pairIK10KeyWrapperIN6il2cpp5utils13dynamic_arrayIPK10Il2CppTypeLj4EEEEPFvvEEESA_NS3_8metadata19Il2CppSignatureHashEN14dense_hash_mapISA_SD_SG_NSA_14EqualsComparerINSF_22Il2CppSignatureCompareEEENS0_9allocatorISE_EEE9SelectKeyESK_SM_E5beginEv
jsg:__ZL53HashValues_t2390200547_CustomAttributesCacheGeneratorP21CustomAttributesCache
ZJf:_X509BasicConstraintsExtension_get_PathLengthConstraint_m3004531343
OC:__ZNK23AnimationPlayableOutput7GetTypeEv
MKi:_GUIUtility_BeginGUI_m2381890998
tUe:_MissingMemberException__ctor_m4277447068
x0e:_List_1_Find_m1881447651_gshared
PGb:__Z18Transfer_BlittableI18StreamedBinaryReadILb0EELb1E8Vector4fEvRK29SerializationCommandArgumentsR31RuntimeSerializationCommandInfo
Nwj:__ZN6il2cpp2vm6Method8GetParamEPK10MethodInfoj
bMe:_Int64_CompareTo_m1953686218
$Yj:_glBindVertexArray__wrapper
Pgd:_DSA_Create_m3450041777
iYa:__ZN8Material8TransferI14SafeBinaryReadEEvRT_
h$a:__ZN12CubemapArray17UploadToGfxDeviceEv
ONh:_ScrollRect_AdjustBounds_m1033723448
W2b:__ZN18ScreenManagerWebGL13SetShowCursorEb
vba:__ZN13RuntimeStaticI21AssetReferenceStorageLb0EE16StaticInitializeEPv
lca:__ZN15dense_hashtableINSt3__24pairIKiiEEi21InstanceIDHashFunctorN14dense_hash_mapIiiS4_NS0_8equal_toIiEE13stl_allocatorIS3_L18MemLabelIdentifier67ELi16EEE9SelectKeyES7_SA_E14squash_deletedEv
LKf:_X509Chain_CheckRevocationOnChain_m2441901351
kBj:__ZN6il2cpp2vm13ManagedObject14QueryInterfaceERK10Il2CppGuidPPv
Lt:__ZNSt3__26vectorI24CompressedAnimationCurve13stl_allocatorIS1_L18MemLabelIdentifier26ELi16EEE6assignINS_11__wrap_iterIPS1_EEEENS_9enable_ifIXaasr21__is_forward_iteratorIT_EE5valuesr16is_constructibleIS1_NS_15iterator_traitsISB_E9referenceEEE5valueEvE4typeESB_SB_
b6f:_Type_GetMethod_m3650909507
jO:__ZN11AudioSource4StopEb
iLj:_frexp
uwb:__ZN14SafeBinaryRead21TransferSTLStyleArrayI13dynamic_arrayI10Matrix4x4fLj4EEEEvRT_17TransferMetaFlags
Dif:_Collection_1_CheckWritable_m732350052_gshared
LQa:__ZN15LODGroupManager26CollectAllLODGroupManagersERK16CoreCameraValuesR13dynamic_arrayIPS_Lj4EEb
ySd:_Byte_System_IConvertible_ToDecimal_m1036493607
uMb:__Z25GetSplashScreenBackgroundRK5RectTIfE
EVh:_InternalEnumerator_1_System_Collections_IEnumerator_get_Current_m1679297177_gshared
i3h:_DefaultComparer_Compare_m1247109616_gshared
J4h:_ResourceManager__ctor_m498829021
Gza:__ZN18GlslGpuProgramGLESD2Ev
u2b:__ZN13RenderTexture14SetVolumeDepthEi
joh:__Z88RuntimeInvoker_Int32_t2071877448_UIVertex_t1204258818_UIVertex_t1204258818_RuntimeObjectPFvvEPK10MethodInfoPvPS4_
OVf:_SerializationCallbacks__ctor_m722356782
sBc:__ZN10Matrix4x4f8TransferI8JSONReadEEvRT_
_Qc:__ZN14SafeBinaryRead21TransferSTLStyleArrayI13dynamic_arrayIN4core17string_with_labelILi35EEELj4EEEEvRT_17TransferMetaFlags
_Ic:__ZThn4_N16PhysicsManager2D9PostSolveEP9b2ContactPK16b2ContactImpulse
x6:__ZN17PersistentManager18ReadObjectThreadedEi
Sla:__ZN25TransformFeedbackSkinning31CleanupTransformFeedbackShadersEv
AQa:__Z22scripting_object_unbox18ScriptingObjectPtr
cSc:__ZNK20TextRenderingPrivate8FontImpl19GetCharacterAdvanceEjijfPj
pHj:__ZN6il2cpp6icalls8mscorlib4Mono8Security12Cryptography18KeyPairPersistence16_IsUserProtectedEP12Il2CppString
xGf:_DefaultUriParser__ctor_m4218024811
Kdg:_DerivedType_GetField_m3960169619
q8d:_Decimal_System_IConvertible_ToInt16_m3159038792_AdjustorThunk
a6a:__ZN10VertexData8TransferI18StreamedBinaryReadILb0EEEEvRT_
iDe:_PKCS12_GetExistingParameters_m2413397265
uWi:_Nullable_1_get_Value_m1743067844_gshared
Zfb:__ZN14PreloadManager16UpdatePreloadingEv
Iyj:__ZN14dense_hash_mapI10KeyWrapperIPK19Il2CppGenericMethodEP10MethodInfoN6il2cpp8metadata23Il2CppGenericMethodHashENS4_14EqualsComparerINS8_26Il2CppGenericMethodCompareEEENSt3__29allocatorINSD_4pairIKS4_S6_EEEEEC2EjRKS9_RKSC_
Hji:_Color32_op_Implicit_m3337994915
B0:__ZNK21UnityDefaultAllocatorI17LowLevelAllocatorE8ContainsEPKv
Wh:_emscripten_get_main_loop_timing
uOe:_DirectoryInfo__ctor_m3750996792
OAd:_BaseMeshEffect_ModifyMesh_m2134816219
l4a:__ZN24GenerateTypeTreeTransfer21TransferSTLStyleArrayINSt3__26vectorIN15QualitySettings14QualitySettingENS1_9allocatorIS4_EEEEEEvRT_17TransferMetaFlags
dcb:__ZNSt3__26vectorI9InputAxisNS_9allocatorIS1_EEE6resizeEj
nTb:__ZN13BatchRendererC2ER15RenderLoopStatsRK15RenderNodeQueuebbb
jod:_SecurityElement_IsValidAttributeValue_m483287146
mpb:__ZNK2UI13RectTransform22GetTypeVirtualInternalEv
jp:getTempRet0
oJd:_Image_AddQuad_m1603575622
Uuf:_PrivateKeyInfo_RemoveLeadingZero_m3396807048
Znj:__ZN6il2cpp6icalls8mscorlib6System9ThreadingL21lookup_cached_cultureEP12Il2CppThreadi
GZb:__ZN18DeferredRenderLoopD2Ev
vCa:__ZNK16TypeTreeIterator4NameEv
MOi:_PCMReaderCallback_Invoke_m877950113
I9:__ZN15FileSystemEntry3SetEPKc
gbj:_il2cpp_method_has_attribute
Jid:_MACTripleDES__ctor_m884945242
byi:_RenderTexture_get_height_m428170183
ZJi:_GUILayoutGroup_SetHorizontal_m4089360220
YP:__ZN20SoundChannelInstance15ParameterBuffer5ApplyEPN4FMOD7ChannelE
$Rc:__ZN20TextRenderingPrivate19NativeTextGenerator9InsertTabEv
ps:__ZN15SerializeTraitsI13dynamic_arrayIN11UnityEngine9Animation14GenericBindingELj4EEE19ResizeSTLStyleArrayERS4_i
s8a:__ZN14SafeBinaryRead21TransferSTLStyleArrayI13dynamic_arrayI16BlendShapeVertexLj4EEEEvRT_17TransferMetaFlags
Dad:__ZN11UnityEngine15PlatformWrapper24GetRuntimePlatformStringEv
Fi:_glIsEnabled
kvb:__Z25scripting_class_get_image17ScriptingClassPtr
eui:_PlayableAsset_Internal_CreatePlayable_m2166162235
Hfb:__ZNSt3__26vectorIN4core12basic_stringIcNS1_20StringStorageDefaultIcEEEE13stl_allocatorIS5_L18MemLabelIdentifier13ELi16EEEC2INS_11__wrap_iterIPS5_EEEET_SE_RKS8_PNS_9enable_ifIXaasr21__is_forward_iteratorISE_EE5valuesr16is_constructibleIS5_NS_15iterator_traitsISE_E9referenceEEE5valueEvE4typeE
Ji:_emscripten_glDrawElementsInstanced
EB:__ZN26AnimatorControllerPlayable27SetupStateMachineBehavioursEv
utf:_ARC4Managed_Dispose_m4102232694
Otf:_HMAC_Initialize_m3052649104
nSa:__ZN18JobBatchDispatcherD2Ev
hpb:__ZN9Transform17MainThreadCleanupEv
PDj:_GC_clear_hdr_marks
_Tj:_glScissor__wrapper
XZj:_emscripten_glCreateShader__wrapper
g_c:_cff_fd_select_get
Pvg:__ZL73CompilationRelaxationsAttribute_t238494011_CustomAttributesCacheGeneratorP21CustomAttributesCache
$K:__Z13RegisterClassI18AnimatorControllerEvv
jve:_MSCompatUnicodeTable_GetTailoringInfo_m2792223347
NFf:_NameObjectCollectionBase_get_Keys_m446053925
Ui:_emscripten_glGetShaderiv
YQ:__ZN4FMOD6System10getVersionEPj
zke:_Array_InternalArray__IndexOf_TisSByte_t454417549_m1427585061_gshared
e4c:__ZN2UI6Canvas23VirtualRedirectTransferER24GenerateTypeTreeTransfer
e0d:_Decimal_u64_m3991988111
XWi:_Predicate_1_BeginInvoke_m2959352225_gshared
Eri:_X509Certificate_Parse_m1764345628
Wyc:__ZN9JSONWrite8TransferIN4math12int2_storageEEEvRT_PKc17TransferMetaFlags
MQc:__ZN13TextRendering4Font13AwakeFromLoadE17AwakeFromLoadMode
toi:_Mathf_Pow_m1117712374
wih:__Z70RuntimeInvoker_Void_t1841601450_Guid_t_RuntimeObject_Int32_t2071877448PFvvEPK10MethodInfoPvPS4_
Hia:__ZN9GfxDevice21ReleaseSharedMeshDataEP14SharedMeshData
Ucb:__ZNSt3__27__sort5IRNS_6__lessINS_4pairIPKN5Unity4TypeE7Hash128EES8_EEPS8_EEjT0_SC_SC_SC_SC_T_
Kff:_Collection_1_ConvertItem_m3168406667_gshared
WCj:_GC_unreachable_finalize_mark_proc
SCi:_WaitForSecondsRealtime_get_keepWaiting_m4138104467
Olh:__Z70RuntimeInvoker_Single_t2076509932_Int32_t2071877448_Single_t2076509932PFvvEPK10MethodInfoPvPS4_
zoc:__Z43RectTransform_CUSTOM_INTERNAL_get_anchorMaxP12Il2CppObjectP13Vector2fIcall
v4g:__Z50RuntimeInvoker_Void_t1841601450_Single_t2076509932PFvvEPK10MethodInfoPvPS4_
p7d:_DateTimeOffset_get_DateTime_m229084964_AdjustorThunk
s1a:__ZN8Material28UpdateHashesOnPropertyChangeEN9ShaderLab16FastPropertyNameE
jpc:__Z53Register_UnityEngine_SortingLayer_GetLayerValueFromIDv
QNe:_DirectoryInfo_get_Parent_m1198766078
GXd:_CaseInsensitiveComparer_Compare_m1192858479
cub:__Z18Transfer_BlittableI14SafeBinaryReadLb1E8Vector4fEvRK29SerializationCommandArgumentsR31RuntimeSerializationCommandInfo
JNd:_LayoutRebuilder_Clear_m2390054824
Tka:__ZN13GfxDeviceGLES20SetComputeBufferDataE15ComputeBufferIDPKvjj
Xbg:_Default_SelectMethod_m622251293
_S:__ZN11AudioSource12AddToManagerEv
Awd:_ExecuteEvents_Execute_m1429058057
jD:__ZN11UnityEngine9Animation32CreateAnimatorGenericBindingsOptERKNS0_20AnimationSetBindingsER9TransformPKN7mecanim9animation14AvatarConstantEPKNS0_21AvatarBindingConstantEbRNS6_6memory9AllocatorER8Animator
xrj:__ZN6il2cpp2vm5Image13ClassFromNameEPK11Il2CppImagePKcS6_
cQj:dynCall_vdddddd
o5:__ZL32MarkLevelGameManagerDependenciesR27GarbageCollectorThreadState
_ka:__ZNK13GfxDeviceGLES26HasActiveRandomWriteTargetEv
RUj:_glGetActiveUniformsiv__wrapper
gpc:__Z43Register_UnityEngine_Material_EnableKeywordv
F7:__ZN13MonoBehaviour19SetupScriptingCacheE17ScriptingClassPtrP10MonoScript
tr:__Z20AnimationEventToMonoRK14AnimationEventR18MonoAnimationEvent
V6:__ZN17PersistentManager29ReadAndActivateObjectThreadedEiRK26SerializedObjectIdentifierP14SerializedFilebb
Qwh:_ShimEnumerator_get_Current_m3610131784_gshared
pPg:__ZL74UnityEventBase_t828812576_CustomAttributesCacheGenerator_m_PersistentCallsP21CustomAttributesCache
aea:__ZZN15DirectorManager15InitializeClassEvEN52PreLateUpdateDirectorUpdateAnimationBeginRegistrator7ForwardEv
Xpj:__ZN6il2cpp2vm13LivenessState18ShouldProcessValueEP12Il2CppObjectP11Il2CppClass
xth:__Z49RuntimeInvoker_UIVertex_t1204258818_RuntimeObjectPFvvEPK10MethodInfoPvPS4_
PJ:__ZN7mecanim12statemachine13StateConstant8TransferI18StreamedBinaryReadILb0EEEEvRT_
Koi:_Matrix4x4_GetHashCode_m375571566
RDi:_InvokableCall_1__ctor_m1584932671_gshared
ulb:__ZNSt3__26vectorIN9ShaderLab14SerializedPassENS_9allocatorIS2_EEE8__appendEj
Lkb:__ZNSt3__26vectorIN9ShaderLab20SerializedSubProgram13BufferBindingENS_9allocatorIS3_EEEC2INS_11__wrap_iterIPS3_EEEET_SB_RKS5_PNS_9enable_ifIXaasr21__is_forward_iteratorISB_EE5valuesr16is_constructibleIS3_NS_15iterator_traitsISB_E9referenceEEE5valueEvE4typeE
QIc:__ZNK16PhysicsManager2D21GetAutoSyncTransformsEv
YEc:__ZN12b2WheelJoint24SolveVelocityConstraintsERK12b2SolverData
Xlh:__Z133RuntimeInvoker_RuntimeObject_Vector2_t2243707579_Vector2_t2243707579_Single_t2076509932_Int32_t2071877448_RuntimeObject_RuntimeObjectPFvvEPK10MethodInfoPvPS4_
$0a:__ZN9Texture2D23VirtualRedirectTransferER18StreamedBinaryReadILb0EE
QHc:__ZN10Collider2D8TransferI24GenerateTypeTreeTransferEEvRT_
Jae:_Double_System_IConvertible_ToUInt16_m286326038_AdjustorThunk
WTf:_TypeInfo__ctor_m1475908211
eRg:__ZL73g_UnityEngine_TextRenderingModule_Assembly_CustomAttributesCacheGeneratorP21CustomAttributesCache
m8:__ZN16ScriptingManager27NativeTypeForScriptingClassE17ScriptingClassPtr
MKf:_X509Chain_WrapUp_m1072032285
Zsi:_X509CertificateEnumerator_System_Collections_IEnumerator_MoveNext_m1448966539
mXc:_get_sfnt_table
oef:_Collection_1_IsSynchronized_m3261594010_gshared
zxd:_PointerEventData_set_pressPosition_m2094137883
aZf:_DES_get_Key_m2584608215
$_b:__ZL22ScheduleSceneNodesJobsP25ScheduleSceneNodesJobDataj
Ik:_emscripten_set_canvas_size
ZYd:_Hashtable__ctor_m741952536
blb:__ZNSt3__26vectorIN9ShaderLab20SerializedSubProgramENS_9allocatorIS2_EEE8__appendEj
j1:__ZN20DynamicHeapAllocatorI17LowLevelAllocatorE8AllocateEji
OTb:__ZN20DynamicPropertySheet15SetVectorQueuedERKN9ShaderLab16FastPropertyNameERK8Vector4fN19ShaderPropertySheet8SetFlagsE
Wsd:_String_Format_m1263743648
Enf:_ReadOnlyCollection_1_System_Collections_IEnumerable_GetEnumerator_m4248982967_gshared
lE:__ZN7mecanim9animation22EvaluateAvatarRetargetEPKNS0_14AvatarConstantEPKNS0_11AvatarInputEPNS0_12AvatarOutputEPNS0_12AvatarMemoryEPNS0_15AvatarWorkspaceEb
dVa:__ZN14RenderSettings23VirtualRedirectTransferER19StreamedBinaryWriteILb0EE
txc:__ZL26Transfer_SimpleNativeClassI9JSONWrite10RectOffsetLb0EEvRK29SerializationCommandArgumentsR31RuntimeSerializationCommandInfo
e8a:__ZN14SafeBinaryRead21TransferSTLStyleArrayI13dynamic_arrayI12BoneWeights4Lj16EEEEvRT_17TransferMetaFlags
oDj:_GC_push_conditional
$oa:__ZN17GenericDynamicVBO10AllocateVBEjR21DynamicVBOChunkHandle
O1e:_List_1_get_Item_m1547593893_gshared
fOe:_Path_GetPathRoot_m1269357080
Ysj:__ZN30dense_hashtable_const_iteratorI10KeyWrapperIP18Il2CppGenericClassES3_N6il2cpp8metadata22Il2CppGenericClassHashEN14dense_hash_setIS3_S6_NS3_14EqualsComparerINS5_25Il2CppGenericClassCompareEEENSt3__29allocatorIS3_EEE8IdentityESA_SD_EppEv
Ovd:_EventSystem_SetSelectedGameObject_m2211816110
gl:_glMapBufferRange
T0a:__ZN9Texture2D8TransferI18StreamedBinaryReadILb0EEEEvRT_
hnc:__Z31Input_CUSTOM_GetMouseButtonDowni
uoc:__Z75Register_UnityEngine_Playables_PlayableHandle_INTERNAL_CALL_IsValidInternalv
gec:__ZN13PlayableGraph4PlayEv
GLa:__ZNK9Transform16GetLocalPositionEv
zFa:__ZN13LoadOperation19IntegrateTimeSlicedEi
RSh:_ArrayReadOnlyList_1_get_Item_m176001975_gshared
PDe:_X501__cctor_m3795360380
jla:__ZN13GfxDeviceGLES22DispatchComputeProgramE12ObjectHandleI18ComputeProgram_TagPvE15ComputeBufferIDj
Mr:__ZNK13AnimationClip15GetAverageSpeedEv
c3d:_Convert_ToInt32_m2297793940
whb:__Z17TransformAABBSlowRK4AABBRK10Matrix4x4fRS_
yKf:_X509Chain_Build_m1140429528
Mjb:__ZN9ShaderLab21SerializedShaderState8TransferI14SafeBinaryReadEEvRT_
oNj:_ftruncate
mld:_RSAPKCS1SignatureFormatter_SetKey_m2365816458
b$c:_cf2_stack_pushInt
Oui:_PropertyName__ctor_m4147171238_AdjustorThunk
M1f:_CompressedStack__ctor_m276924800
bxd:_ExecuteEvents_get_cancelHandler_m1964324668
XYa:__ZN15SerializeTraitsINSt3__24pairIN4core12basic_stringIcNS2_20StringStorageDefaultIcEEEES6_EEE8TransferI24GenerateTypeTreeTransferEEvRS7_RT_
iXj:b89
hXj:b88
loi:_Mathf_Sin_m712860563
ZBi:_Vector3_Dot_m827632793
HWj:b81
AWj:b80
gxa:__ZN7ApiGLES19CreateSparseTextureEjj14GraphicsFormatiiiiRiS1_S1_
Y8:__ZN18ResourceImageGroup7CleanupEv
XWj:b85
QWj:b84
gXj:b87
YWj:b86
eqh:__Z68RuntimeInvoker_Void_t1841601450_Int32_t2071877448_Double_t4078015681PFvvEPK10MethodInfoPvPS4_
mcc:__ZN13ProduceHelperI4MeshLb0EE7ProduceE18MemLabelIdentifier18ObjectCreationMode
Suf:_PrivateKeyInfo_Decode_m1053025782
SCe:_PKCS12_Decrypt_m2457743414
n_a:__ZN8Playable19SetOutputConnectionEPS_i
u1i:__ZN15dense_hashtableINSt3__24pairIK10KeyWrapperIPK11Il2CppClassEPKcEES6_N6il2cpp5utils11PointerHashIS3_EEN14dense_hash_mapIS6_S9_SE_NS6_14EqualsComparerINS0_8equal_toIS5_EEEENS0_9allocatorISA_EEE9SelectKeyESJ_SL_EC2ERKSO_j
Vl:_glDeleteShader
zce:_Exception_GetType_m3898489832
_sa:__ZN6prcoreL17RemapGenericFloatI15TexFormatRGHalf16TexFormatRGFloatEEvPKNS_9InnerInfoE
tbf:_Stack_1_Peek_m1548778538_gshared
XJi:_GUILayoutUtility_get_spaceStyle_m4248899869
sPh:_Shadow_set_effectColor_m3110056844
Wic:__Z27scripting_add_internal_callPKcPKv
joe:_Array_InternalArray__Insert_TisUriScheme_t1876590943_m2728325409_gshared
Wjj:__ZN13Il2CppHashMapINSt3__24pairIPK9EventInfoP11Il2CppClassEEj17ReflectionMapHashIS7_ENS0_8equal_toIS7_EENS0_9allocatorINS1_IK10KeyWrapperIS7_EjEEEEEC2EjRKS9_RKSB_
kti:_X509Store_CheckStore_m1027496478
Hw:__ZN26AnimatorControllerPlayable18SetLayerAutoWeightEv
w9c:__Z44Register_UnityEngine_Canvas_get_pixelPerfectv
Fsd:_String_Contains_m4017059963
Q2h:_DefaultComparer_Compare_m1606207039_gshared
J6c:__ZN2UI14CanvasRenderer12SyncMaterialENS0_8SyncFlagE
hHj:__ZN6il2cpp2vm9Parameter30GetDefaultParameterValueObjectEPK10MethodInfoPK13ParameterInfoPb
_oe:_Array_InternalArray__set_Item_TisLabelData_t3712112744_m2253365137_gshared
tSe:_StringReader__ctor_m643998729
oHf:_IPv6Address_TryParse_m2220524278
rv:__ZN14AnimationEvent8TransferI19StreamedBinaryWriteILb0EEEEvRT_
cXc:_UNITY_tt_face_done_kern
U8h:_Context_get_DefaultContext_m2211922324
I8a:__ZN12BoneWeights48TransferI24GenerateTypeTreeTransferEEvRT_
hvf:_RSAManaged_GetPaddedValue_m2972141669
bOh:_ScrollRect_OnDrag_m1424848249
PLb:__Z19scripting_gc_enablev
jPb:__ZZ23InitPlayerLoopCallbacksvEN41InitializationPlayerUpdateTimeRegistrator7ForwardEv
dei:_AnchorInfo__ctor_m617409099
x8c:__Z55Register_UnityEngine_CanvasRenderer_DisableRectClippingv
fPf:_Interval_CompareTo_m2909556284_AdjustorThunk
f8a:__ZN14SafeBinaryRead21TransferSTLStyleArrayI13dynamic_arrayI11ColorRGBA32Lj4EEEEvRT_17TransferMetaFlags
YNf:_Interpreter_GetLastDefined_m2450713313
wdi:_Parser_ParseAssertionType_m3316669790
Hnb:__ZN9ShaderLab7Program27CreateFromSerializedProgramERKNS_17SerializedProgramE10ShaderTypeiP16PropertyNamesSetPK6Shader
VOh:_Selectable_get_isPointerDown_m774209881
bpb:__ZNSt3__27__sort4IRNS_6__lessIN4core12basic_stringIcNS2_20StringStorageDefaultIcEEEES6_EEPS6_EEjT0_SA_SA_SA_T_
JQj:dynCall_viiiifii
yij:__ZN6il2cpp2gc19AppendOnlyGCHashMapINSt3__24pairIPK11Il2CppImageP11Il2CppClassEEP22Il2CppReflectionModule17ReflectionMapHashIS9_ENS2_8equal_toIS9_EEEC2Ev
u6:__Z20GetPersistentManagerv
g2c:_UNITY_TT_Set_Var_Design
$2:__ZN21SystemInfoStringCache16StaticInitializeEPv
Ewf:_TlsStream__ctor_m4117943603
lfj:__ZN15dense_hashtableINSt3__24pairIK10KeyWrapperIPK10Il2CppTypeEjEES6_N6il2cpp8metadata14Il2CppTypeHashEN14dense_hash_mapIS6_jSB_NS6_14EqualsComparerINSA_26Il2CppTypeEqualityComparerEEENS0_9allocatorIS8_EEE9SelectKeyESF_SH_E12maybe_shrinkEv
KQh:_Text_FontTextureChanged_m4236993972
Nxj:__ZN6il2cpp2gc16GarbageCollector23MakeDescriptorForObjectEPji
Fmg:_ParameterModifier_t1820634920_marshal_pinvoke
bJb:__ZNK13MonoBehaviour7GetNameEv
Cib:__ZN19ScriptingInvocation28AdjustArgumentsToMatchMethodEv
itj:__ZN15dense_hashtableI10KeyWrapperIP18Il2CppGenericClassES3_N6il2cpp8metadata22Il2CppGenericClassHashEN14dense_hash_setIS3_S6_NS3_14EqualsComparerINS5_25Il2CppGenericClassCompareEEENSt3__29allocatorIS3_EEE8IdentityESA_SD_E6insertERKS3_
MN:__Z15_CheckFMODError11FMOD_RESULTPKciS1_
sTa:__Z20RenderMultipleMeshesRK15RenderNodeQueueRK18RenderMultipleData17ShaderChannelMask
tdj:__ZN6il2cpp2vm4Type19GetGenericParameterEPK10Il2CppType
Z7c:__Z51Register_UnityEngine_CanvasGroup_get_blocksRaycastsv
$0h:_InternalEnumerator_1_get_Current_m2826780083_gshared
mge:_Array_InternalArray__ICollection_Remove_TisCustomAttributeNamedArgument_t94157543_m2838387005_gshared
wd:_glBeginQuery
Rag:_Assembly_GetCustomAttributes_m95309865
aJ:__ZN18AnimatorController19TransferRuntimeDataI24GenerateTypeTreeTransferEEvRT_
NOc:__ZN10Effector2D25CheckEffectorColliderMaskEP10Collider2DS1_
HQb:__ZN6Camera12RenderStereoENS_10RenderFlagE8CullFlagPNS_24PerformEyeRenderFunctionE
qrb:__ZN20LocalFileSystemPosix10ToAbsoluteEPKc
fTa:__ZN20TierGraphicsSettings8TransferI19StreamedBinaryWriteILb0EEEEvRT_
u2:__GLOBAL__sub_I_runtime_input_0_cpp
Sbe:_Enum_ToObject_m275924358
Cm:f0
MVd:_ArrayListWrapper_set_Capacity_m2792463350
dMj:_getcwd
Q$f:_StringBuilder_Append_m1128243247
lKc:__ZN16b2CapsuleContact6CreateEP9b2FixtureiS1_iP16b2BlockAllocator
JEa:__ZN25ThreadsafeLinearAllocatorD2Ev
S4d:_DateTime_get_Year_m1985210972
Rgb:__Z21SendMessageToEveryoneRK17MessageIdentifier11MessageData
dca:__ZN21BillboardBatchManager16StaticInitializeEPv
s4:__ZN12_GLOBAL__N_138ArchiveRedirectFileSystemStaticDestroyEPv
qce:_EventHandler_Invoke_m1137722757
e$a:__ZN12CubemapArray34UpdateFileTextureUploadInstructionEP26FileAssetUploadInstructionj
QVe:_MonoType_IsSubclassOf_m2211166238
dff:_Collection_1_System_Collections_ICollection_CopyTo_m2859266050_gshared
fxa:__Z23CreateSparseTextureGLES9TextureIDii14GraphicsFormati
ZDj:_GC_continue_reclaim
bNe:_InvalidCastException__ctor_m2730571470
rMf:_X509ChainElementCollection_System_Collections_IEnumerable_GetEnumerator_m2559704689
HJf:_PublicKey_get_Key_m126090744
USc:__ZNSt3__23mapIN20TextRenderingPrivate7FontRefEP11FT_FaceRec_NS_4lessIS2_EENS_9allocatorINS_4pairIKS2_S4_EEEEEixERS9_
YGa:__ZN17ArchiveFileSystem10AddStorageEP20ArchiveStorageReader
N3d:_Convert_ToSingle_m690748777
YDc:__ZNK12b2MotorJoint16GetReactionForceEf
v4e:_List_1_RemoveAll_m4125997475_gshared
TGh:_EqualityComparer_1_System_Collections_IEqualityComparer_GetHashCode_m1203798961_gshared
H$i:__ZN6il2cpp2vm5Class15GetEnumBaseTypeEP11Il2CppClass
h0a:__ZNK9Texture2D16GetNpotTexelSizeEv
hJh:_Mask_get_rectTransform_m3304369086
xih:__Z78RuntimeInvoker_Void_t1841601450_ScriptableRenderContext_t4271526_RuntimeObjectPFvvEPK10MethodInfoPvPS4_
epa:__ZN9GfxDevice22GetDefaultVertexBufferE26GfxDefaultVertexBufferTypej
$mf:_ReadOnlyCollection_1_System_Collections_ICollection_CopyTo_m1129689124_gshared
vMj:___fseeko_unlocked
KWj:_glGetActiveUniform__wrapper
nMj:_sscanf
u8a:__ZN14SafeBinaryRead21TransferSTLStyleArrayINSt3__26vectorI17BlendShapeChannelNS1_9allocatorIS3_EEEEEEvRT_17TransferMetaFlags
PMb:__Z17BeginSplashScreenv
Lmb:__ZN9ShaderLab16SerializedShader8TransferI19StreamedBinaryWriteILb0EEEEvRT_
w7f:_UInt32_Parse_m2400360707
GG:__ZN7mecanim9animation18CreateAvatarMemoryEPKNS0_14AvatarConstantERNS_6memory9AllocatorE
r$d:_Stack_Pop_m3788808882
Juh:_Enumerator_VerifyCurrent_m4246196125_AdjustorThunk
R6d:_DateTime_op_Equality_m1867073872
vF:__ZN7mecanim8skeleton16SkeletonPoseCopyIN4math4trsXENS2_7affineXEEEvPKNS0_13SkeletonPoseTIT_EEPNS5_IT0_EE
Loa:__ZN18GfxFramebufferGLES18GetFramebufferNameERK20GfxRenderTargetSetup
Ktc:__Z30Event_Get_Custom_PropCharacterP12Il2CppObject
vda:__ZN13PlayableGraph27SchedulePlayableDestructionERK9HPlayable
UTj:_glGetFramebufferAttachmentParameteriv__wrapper
Bed:__Z13RegisterClassI20UnityConnectSettingsEvv
hvb:__Z22scripting_array_length17ScriptingArrayPtr
fod:_SecurityElement_GetAttribute_m4288291176
SGi:_IndexedSet_1_get_Count_m2839545138_gshared
s$a:__ZN14SafeBinaryRead20TransferTypelessDataEjPvi
Svg:__ZL66StringFreezingAttribute_t2691375565_CustomAttributesCacheGeneratorP21CustomAttributesCache
xab:__ZN14SpriteRenderer18UpdateCachedSpriteEb
pU:__ZN13dynamic_arrayI12SoundChannelLj4EE9push_backERKS0_
Gwa:__Z19GetActiveColorSpacev
kHh:_EqualityComparer_1__cctor_m1672307556_gshared
sSf:_SoapTypeAttribute_get_IsInteropXmlElement_m2941294827
vWc:_UNITY_tt_face_load_kern
y_e:_Enumerator_System_Collections_IEnumerator_get_Current_m3542273247_gshared
bUd:_Char_System_IConvertible_ToUInt32_m1557991717_AdjustorThunk
V_f:_Encoding_get_UTF8Unmarked_m628720656
VJe:_NumberFormatter_RoundBits_m1545255255
M3:__Z6StrCmpPKcS0_
pob:__Z21CheckGpuProgramUsable20ShaderGpuProgramType
Gbg:_Binder__cctor_m3736115807
Wwj:__ZN6il2cpp2os9Directory20GetFileSystemEntriesERKNSt3__212basic_stringIcNS2_11char_traitsIcEENS2_9allocatorIcEEEESA_iiPi
foh:__Z84RuntimeInvoker_Int32_t2071877448_Color32_t874517518_Color32_t874517518_RuntimeObjectPFvvEPK10MethodInfoPvPS4_
wEh:_Dictionary_2_OnDeserialization_m2160537783_gshared
TRc:__ZN20TextRenderingPrivate19NativeTextGenerator5SetupEv
mYb:__ZNK15SharedLightData24GetFinalShadowResolutionEv
Ydb:__ZN12AspectRatios8TransferI18StreamedBinaryReadILb0EEEEvRT_
Hdc:__ZN10GameObject14CopyPropertiesERS_
yuc:__Z44Register_UnityEngine_GUIStyle_get_fixedWidthv
Mkd:_RSACryptoServiceProvider_Common_m2581564813
Jxi:_Vector2_Scale_m2260641886
tQe:_MemoryStream_CheckIfClosedThrowDisposed_m2253054610
nTh:_ArrayReadOnlyList_1_GetEnumerator_m634288642_gshared
_4a:__ZNK13ScreenManager12IsFullScreenEv
QMj:_rand
vUj:_emscripten_glFramebufferRenderbuffer__wrapper
Uhh:__Z72RuntimeInvoker_Boolean_t3825574718_Ray_t2469606224_SingleU26_t4173844468PFvvEPK10MethodInfoPvPS4_
vxj:__ZN6il2cpp5utils9PathUtils7CombineIcEENSt3__212basic_stringIT_NS3_11char_traitsIS5_EENS3_9allocatorIS5_EEEERKNS0_10StringViewIS5_EERKSA_
dwb:__ZN14SafeBinaryRead21TransferSTLStyleArrayINSt3__26vectorI17AnimationCurveTplIfE13stl_allocatorIS4_L18MemLabelIdentifier1ELi16EEEEEEvRT_17TransferMetaFlags
iVf:_ObjectManager_RegisterObject_m872610295
K_b:__Z22PrepareOptimizedPlanesPK5PlaneiPKN4math7_float4E
Lwi:_RectOffset_t3387826427_marshal_pinvoke
uGd:_Graphic_SetVerticesDirty_m1607014370
Z$:__ZN11UnityEngine15CloudWebService17WebFileDownloaderINS0_20WebRequestRestClientENS0_23WebRequestRestHeaderMapEE10InitializeERKN4core12basic_stringIcNS5_20StringStorageDefaultIcEEEE
bca:__ZN17UniqueIDGenerator15CreatePureIndexEv
_v:__ZN11UnityEngine9Animation28GenericAnimationBindingCache15DidReloadDomainEv
aFe:_AppDomain_InternalGetProcessGuid_m1278588156
JLd:_InputField_MoveRight_m386206014
Neb:__ZNSt3__26vectorIN15ResourceManager10DependencyE13stl_allocatorIS2_L18MemLabelIdentifier52ELi16EEE6assignINS_11__wrap_iterIPS2_EEEENS_9enable_ifIXaasr21__is_forward_iteratorIT_EE5valuesr16is_constructibleIS2_NS_15iterator_traitsISC_E9referenceEEE5valueEvE4typeESC_SC_
rK:__ZN19StreamedBinaryWriteILb0EE8TransferIN7mecanim9animation23BlendDirectDataConstantEEEvRT_PKc17TransferMetaFlags
u5g:__Z116RuntimeInvoker_Boolean_t3825574718_RuntimeObject_Int32_t2071877448_RuntimeObject_Int32_t2071877448_Int32_t2071877448PFvvEPK10MethodInfoPvPS4_
xNe:_BinaryReader_ReadBoolean_m2892291883
X_i:__ZN15dense_hashtableINSt3__24pairIK10KeyWrapperIPK22Il2CppGenericParameterEP11Il2CppClassEES6_N6il2cpp5utils11PointerHashIS4_EEN14dense_hash_mapIS6_S9_SE_NS6_14EqualsComparerINS0_8equal_toIS5_EEEENS0_9allocatorISA_EEE9SelectKeyESJ_SL_E14squash_deletedEv
NFc:__ZNK12b2MouseJoint17GetReactionTorqueEf
Urc:__Z14GUIClipTextureP9Texture2DPhiiii
Vt:__ZN14SafeBinaryRead21TransferSTLStyleArrayI13dynamic_arrayI11KeyframeTplI11QuaternionfELj4EEEEvRT_17TransferMetaFlags
zZi:_AnimatorControllerPlayable__ctor_m4080566273
CAf:_TlsServerCertificate_validateCertificates_m1988583701
uNa:__ZNK9Transform18TransformDirectionERK8Vector3f
xZj:_emscripten_glClearStencil__wrapper
i5i:__ZN15dense_hashtableINSt3__24pairIK10KeyWrapperIPK11Il2CppClassEPKcEES6_N6il2cpp5utils11PointerHashIS3_EEN14dense_hash_mapIS6_S9_SE_NS6_14EqualsComparerINS0_8equal_toIS5_EEEENS0_9allocatorISA_EEE9SelectKeyESJ_SL_E12resize_deltaEjj
BOj:__ZNK10__cxxabiv120__si_class_type_info27has_unambiguous_public_baseEPNS_19__dynamic_cast_infoEPvi
gSj:_glTexSubImage3D__wrapper
tNf:_FactoryCache_Add_m2602974721
dpa:__Z30AddDefaultStreamsToMeshBuffersR9GfxDeviceR11MeshBuffersj17ShaderChannelMaskS3_
W3:__ZL16GetInterfaceImpl18UnityInterfaceGUID
EGe:_RegionInfo_construct_internal_region_from_name_m3316088619
_$i:__ZN6il2cpp2vmL17SetupFieldOffsetsENS0_15FieldLayoutKindEP11Il2CppClassjRKNSt3__26vectorIjNS4_9allocatorIjEEEE
l0e:_List_1_System_Collections_IList_get_Item_m936612973_gshared
gAj:__ZN6il2cpp6icalls8mscorlib6System15MonoCustomAttrs27GetCustomAttributesInternalEP12Il2CppObjectP20Il2CppReflectionTypeb
n2c:_UNITY_TT_Set_MM_Blend
x2:__GLOBAL__sub_I_runtime_math_random_0_cpp
sVf:_ObjectReader_ReadAssembly_m869834280
bzi:_Sprite_INTERNAL_get_textureRect_m127050026
_Mb:__ZN14PreloadManager35WaitForAllAsyncOperationsToCompleteEv
pjf:_Collection_1_IsSynchronized_m971497175_gshared
Nwd:_ExecuteEvents_Execute_m1617536317
HQh:_Text_get_cachedTextGeneratorForLayout_m1357670532
rP:__ZL31InitializeAudioScriptingClassesv
XRb:__Z14SortGUIByDepthP10GUIElementS0_
xKe:_NumberFormatter_NumberToString_m126384393
YVj:_emscripten_glVertexAttrib4fv__wrapper
XPf:_LogicalCallContext__ctor_m3173272863
dG:__ZN12_GLOBAL__N_120ProcessRootMotionMixER33AnimationPlayableEvaluationOutputR35AnimationPlayableEvaluationConstantR32AnimationPlayableEvaluationInputS1_f
BUe:_MonoCustomAttrs__cctor_m2608447972
dJe:_Int32_FindSign_m3803672540
R7g:__Z92RuntimeInvoker_Void_t1841601450_DateTime_t693205669_DateTime_t693205669_TimeSpan_t3430258949PFvvEPK10MethodInfoPvPS4_
Srb:__ZNK20LocalFileSystemPosix21GetAvailableDiskSpaceEPKcRy
d3:__ZNSt3__26__treeIiNS_4lessIiEENS_9allocatorIiEEE7destroyEPNS_11__tree_nodeIiPvEE
uwf:_CipherSuite_InitializeCipher_m229247572
Uha:__ZNK9GfxDevice14GetWorldMatrixEv
Wlg:_MonoProperty_GetGetMethod_m1100580870
gqb:__Z19scripting_array_new17ScriptingClassPtrjj
dU:__ZN11SoundHandle13CreateChannelEb
J1a:__ZN14SafeBinaryRead21TransferSTLStyleArrayI13dynamic_arrayI12LightmapDataLj4EEEEvRT_17TransferMetaFlags
tFe:_ArgumentException__ctor_m3312963299
ilb:__ZNSt3__26vectorIN9ShaderLab20SerializedSubProgram16TextureParameterENS_9allocatorIS3_EEE6assignIPS3_EENS_9enable_ifIXaasr21__is_forward_iteratorIT_EE5valuesr16is_constructibleIS3_NS_15iterator_traitsISA_E9referenceEEE5valueEvE4typeESA_SA_
O3i:__ZN13Il2CppHashMapIN6il2cpp5utils13dynamic_arrayIPK10Il2CppTypeLj4EEEPFvvENS0_8metadata19Il2CppSignatureHashENS9_22Il2CppSignatureCompareENSt3__29allocatorINSC_4pairIK10KeyWrapperIS6_ES8_EEEEEC2EjRKSA_RKSB_
nWi:_U3CCreateWhereIteratorU3Ec__Iterator1D_1_MoveNext_m3533253043_gshared
ejj:__ZN15dense_hashtableINSt3__24pairIK10KeyWrapperIPK22Il2CppGenericParameterEPK24MonoGenericParameterInfoEES6_N6il2cpp5utils11PointerHashIS4_EEN14dense_hash_mapIS6_SA_SF_NS6_14EqualsComparerINS0_8equal_toIS5_EEEENS0_9allocatorISB_EEE9SelectKeyESK_SM_E15set_deleted_keyERKSB_
d6b:__ZN6prcoreL11inner_clearILj2EEEvPhjjj
YMf:_X509SubjectKeyIdentifierExtension__ctor_m3887138480
RYe:_Enumerator_System_Collections_IEnumerator_get_Current_m2853089017_AdjustorThunk
ZEc:__ZN12b2WheelJoint24SolvePositionConstraintsERK12b2SolverData
Kg:_emscripten_exit_fullscreen
HJd:_InputField_get_mesh_m3276583786
t6h:_GCHandle_Free_m1639542352_AdjustorThunk
lWc:_sfnt_done_face
ewj:__ZN6il2cpp6icalls8mscorlib6System6String19InternalAllocateStrEi
UBc:__Z29Transfer_Blittable_ArrayFieldI8JSONRead11QuaternionfEvRT_R9ArrayInfoRK23StaticTransferFieldInfo
olc:__Z45Register_UnityEngine_Camera_get_targetDisplayv
Ubc:__ZNK24RendererAnimationBinding15GenerateBindingERKN4core12basic_stringIcNS0_20StringStorageDefaultIcEEEEbRN11UnityEngine9Animation14GenericBindingE
XRa:__Z15GetFlareManagerv
Cbi:_Enumerator_System_Collections_IEnumerator_get_Current_m1429268283
klf:_ReadOnlyCollection_1_System_Collections_Generic_ICollectionU3CTU3E_Clear_m388357963_gshared
PKj:___toread
gLb:__ZNSt3__26vectorI10vector_mapIiiNS_4lessIiEE13stl_allocatorINS_4pairIiiEEL18MemLabelIdentifier38ELi16EEES4_IS9_LS7_38ELi16EEE26__swap_out_circular_bufferERNS_14__split_bufferIS9_RSA_EE
cPj:___cxa_is_pointer_type
Xsd:_String_Concat_m56707527
fG:__ZN7mecanim9animation16EvaluateAvatarDXEPKNS0_14AvatarConstantEPKNS0_11AvatarInputEPNS0_12AvatarMemoryEPNS0_15AvatarWorkspaceEPNS0_12AvatarOutputE
Wva:__ZN4gles20DestroyRenderSurfaceEP7ApiGLESP17RenderSurfaceGLES
QYe:_Enumerator_System_Collections_IEnumerator_get_Current_m2853089017_gshared
zqc:__Z34Transform_CUSTOM_SetAsFirstSiblingP12Il2CppObject
jDa:__ZN17PersistentManager40GlobalToLocalSerializedFileIndexInternalERK26SerializedObjectIdentifier
_Y:__ZN11UnityEngine15CloudWebService17SessionEventQueue14ParseEventDataERKN4core12basic_stringIcNS2_20StringStorageDefaultIcEEEE
xud:_BaseEventData_get_selectedObject_m3551206992
hwe:_SimpleCollator_CompareOrdinal_m2176988387
ade:_CCGregorianCalendar_GetYear_m1289900195
vKe:_Int16_ToString_m2592645088
bna:__ZN13TranslateGLES4InitERK12GraphicsCaps16GfxDeviceLevelGL
NWf:_SerializationInfoEnumerator_Reset_m2206466680
tUj:_emscripten_glGetShaderPrecisionFormat__wrapper
RNi:_GenericEqualityComparer_1_Equals_m1934771410_gshared
iHj:__ZN6il2cpp5utils9Exception26FormatInvalidCastExceptionEPK11Il2CppClassS4_
M9b:__ZN13ProduceHelperI10TagManagerLb0EE7ProduceE18MemLabelIdentifier18ObjectCreationMode
NHj:__ZN6il2cpp2os6Memory12AlignedAllocEjj
EBj:__ZN6il2cpp8metadataL7CompareEPK10Il2CppTypeS3_
fdg:_TypeBuilder_get_is_created_m736553860
$uf:_RSAManaged__ctor_m1370411656
AGb:__Z18Transfer_BlittableI18StreamedBinaryReadILb0EELb1E10ColorRGBAfEvRK29SerializationCommandArgumentsR31RuntimeSerializationCommandInfo
Rui:_PropertyName_op_Equality_m112228798
ajc:__ZL27GetComponentsImplementationILb0ELi0EEbR10GameObjectbRK17CompareParametersRK39GetComponentsImplementation_ReturnValue
OJb:__ZN9Scripting36IsSystemCollectionsGenericDictionaryE17ScriptingClassPtr
BLh:_Raycast3DCallback_EndInvoke_m3234280377
iDd:_ColorTweenCallback__ctor_m3619686788
C9:__ZL16ReadTypeTreeImplILb0EEbR8TypeTreeRK16TypeTreeIteratorRPKhS6_i
yK:__ZN25RuntimeAnimatorControllerD2Ev
fC:__ZN27AnimationLayerMixerPlayable16SetLayerMaskCopyEjRKN7mecanim6bitsetILj70EEEPKNS0_8skeleton12SkeletonMaskE
uVa:__ZNK22BuiltinResourceManager21GetResourceInstanceIDEPKN5Unity4TypeERKN4core12basic_stringIcNS4_20StringStorageDefaultIcEEEE
_mc:__Z42Register_UnityEngine_RectOffset_set_bottomv
WVd:_ArrayListWrapper_IndexOf_m3574835167
aUb:__ZN28LightProbeProxyVolumeContext8CopyFromERKS_
YLa:__ZN23TransformChangeDispatch32QueueTransformChangeIfHasChangedER18TransformHierarchy
Xva:__ZN7ApiGLES18DeleteRenderbufferERj
Bua:__ZL23ProgramUniformMatrix4fvPK7ApiGLESjiihPKv
hwa:__ZN7ApiGLES13CreateTextureEjj14GraphicsFormatiiiii
Skb:__ZN9ShaderLab20SerializedSubProgram15MatrixParameter8TransferI14SafeBinaryReadEEvRT_
cjc:__ZL27GetComponentsImplementationILb0ELi1EEbR10GameObjectbRK17CompareParametersRK39GetComponentsImplementation_ReturnValue
u1c:_Round_Down_To_Grid
E1f:_UTF8Decoder__ctor_m1460357288
hma:__ZN13RenderTexture7ReleaseEv
rzc:__Z18Transfer_BlittableI8JSONReadLb1EN4math12int3_storageEEvRK29SerializationCommandArgumentsR31RuntimeSerializationCommandInfo
D9a:__ZN10MeshFilter23VirtualRedirectTransferER14SafeBinaryRead
k0d:_Convert_ToByte_m1201588964
N9a:__ZN12MeshRenderer17MainThreadCleanupEv
sza:__ZN22CreateGpuProgramOutput12CreateParamsEv
BQ:__ZN10ObjectPoolIN4FMOD7ChannelENS0_8ChannelIEE7GetFreeEi
Rtg:__ZL55EventBuilder_t2927243889_CustomAttributesCacheGeneratorP21CustomAttributesCache
Tma:__ZNK14GfxContextGLES13GetDefaultFBOEv
xge:_Array_InternalArray__ICollection_Remove_TisSByte_t454417549_m2474211570_gshared
rMb:__ZN14GraphicsHelper5ClearE13GfxClearFlagsRK10ColorRGBAffjR17ShaderPassContext
kxi:_RectTransform_set_anchorMax_m1168582032
Cfc:__Z13GetImagePixelI10ColorRGBAfET_PKhii13TextureFormat15TextureWrapModeS5_ii
Aaj:_il2cpp_class_is_enum
LEf:_AuthorityKeyIdentifierExtension_get_Identifier_m3535568551
ePa:__ZNSt3__23mapIN9ShaderLab16FastPropertyNameEN18UnityPropertySheet11UnityTexEnvENS_4lessIS2_EENS_9allocatorINS_4pairIKS2_S4_EEEEEixERS9_
lva:__ZNK13TranslateGLES25GetTextureTargetDimensionEj
Eoe:_Array_InternalArray__set_Item_TisByte_t3683104436_m1694926640_gshared
pci:_PatternCompiler_EmitInfo_m597931026
qsf:_ModulusRing_Multiply_m3113924743
Opc:__Z47Texture2D_CUSTOM_INTERNAL_CALL_GetPixelBilinearP12Il2CppObjectffR10ColorRGBAf
v5:__ZN9Scripting12LogExceptionE21ScriptingExceptionPtriPKcb
Ki:_emscripten_glVertexAttrib4f
Qkf:_ReadOnlyCollection_1_System_Collections_IEnumerable_GetEnumerator_m531171980_gshared
Qnb:__ZNSt3__26vectorIN20GpuProgramParameters14ConstantBufferENS_9allocatorIS2_EEE8__appendEj
Qwi:_RectOffset__ctor_m976836251
gre:_Array_Sort_TisUILineInfo_t3621277874_m3105833015_gshared
jWe:_MonoType_GetGenericArguments_m2708198481
r0e:_List_1_AddEnumerable_m2489692396_gshared
gB:__ZN7mecanim12statemachine24CreateStateMachineMemoryEPKNS0_20StateMachineConstantERNS_6memory9AllocatorE
Nyh:_Enumerator_get_Current_m419581838_AdjustorThunk
vka:__ZN9GfxDevice18SetGlobalDepthBiasEff
P7i:__ZN6il2cpp6icalls8mscorlib6System8MonoType12get_AssemblyEP20Il2CppReflectionType
svi:_Vector3_get_normalized_m1057036856
Yi:_emscripten_glGetPointerv
VF:__ZN8Animator22ApplyBuiltinRootMotionEv
GMb:__Z26ApplyMaterialPassWithCacheRK18SharedMaterialDataR17ShaderPassContextP6ShaderPN9ShaderLab4PassEibPKNS6_10GrabPassesEPNS6_11SubProgramsEPK22DeviceRenderStateBlock
$fe:_Array_InternalArray__ICollection_Remove_TisKeyValuePair_2_t3716250094_m2566517826_gshared
Eqj:__ZN30dense_hashtable_const_iteratorINSt3__24pairIK10KeyWrapperIP14Il2CppIUnknownEjEES5_N6il2cpp5utils11PointerHashIS3_EEN14dense_hash_mapIS5_jSB_NS5_14EqualsComparerINS0_8equal_toIS4_EEEENS0_9allocatorIS7_EEE9SelectKeyESG_SI_EppEv
N3a:__ZN8Renderer23VirtualRedirectTransferER14SafeBinaryRead
jeg:_DerivedType_get_UnderlyingSystemType_m3904230233
TTa:__Z27ConvertSubMeshesToTrianglesR13dynamic_arrayI7SubMeshLj4EERS_ItLj2EE
V$i:__ZN6il2cpp2vmL15GetBitmapNoInitEP11Il2CppClassPjRjj
ALf:_X509Certificate2Collection__ctor_m819526826
ZO:__ZN12AudioManager5ResetEv
$th:__Z75RuntimeInvoker_RuntimeObject_Single_t2076509932_RuntimeObject_RuntimeObjectPFvvEPK10MethodInfoPvPS4_
Dtf:_KeyBuilder_Key_m3814433741
uFe:_ArgumentException__ctor_m158205422
rje:_Array_compare_TisVector3_t2243707580_m3709184876_gshared
kId:_HorizontalLayoutGroup_SetLayoutHorizontal_m3237355818
kta:__ZN6prcoreL17RemapGenericFloatI17TexFormatRGBAHalf15TexFormatRGHalfEEvPKNS_9InnerInfoE
sxj:__ZN6il2cpp6icalls8mscorlib6System11Environment20GetWindowsFolderPathEi
S$g:__ZL60AspectRatioFitter_t3114550109_CustomAttributesCacheGeneratorP21CustomAttributesCache
Wz:__ZN7mecanim5human18HumanPoseBlendNodeERNS0_9HumanPoseEPS1_f
yUc:_UNITY_FT_RoundFix
Znb:__ZN9ShaderLab20SerializedSubProgram15AddTextureParamEPKcii16TextureDimension
Ft:__Z14resize_trimmedINSt3__26vectorI24CompressedAnimationCurve13stl_allocatorIS2_L18MemLabelIdentifier26ELi16EEEEEvRT_j
ogi:_Uri_get_Parser_m2250631932
P9a:__ZNK12MeshRenderer22GetTypeVirtualInternalEv
nGd:_Graphic_set_color_m646149893
jYa:__ZN14SafeBinaryRead19TransferSTLStyleMapINSt3__23mapIN4core12basic_stringIcNS3_20StringStorageDefaultIcEEEES7_NS1_4lessIS7_EE13stl_allocatorINS1_4pairIKS7_S7_EEL18MemLabelIdentifier1ELi16EEEEEEvRT_17TransferMetaFlags
l6c:__ZN2UI6Canvas27UpdateEventIndexesRecursiveERi
Dy:__ZN7mecanim9animation18EvaluateRootMotionERKNS0_18ClipMuscleConstantERKNS0_15ClipMuscleInputEPKfS8_RNS0_12MotionOutputEb
eZ:__ZN11UnityEngine15CloudWebService16SessionContainer21PrepareDataErrorEventERN4core12basic_stringIcNS2_20StringStorageDefaultIcEEEE
_Uc:_UNITY_FT_Outline_New
HCb:__Z19TransferField_ArrayI19StreamedBinaryWriteILb0EE27Converter_SimpleNativeClassI8GUIStyleEEvRK23StaticTransferFieldInfoR31RuntimeSerializationCommandInfoRT0_
NMh:_Scrollbar_SetDirection_m3264558284
hUc:__ZN20TextRenderingPrivate8TextMesh23VirtualRedirectTransferER18StreamedBinaryReadILb0EE
GWj:_emscripten_glCopyTexSubImage2D__wrapper
sEj:_maybe_finalize
oui:_PlayableHandle_IsValidInternal_m3315870994
LTf:_RemotingServices_RegisterInternalChannels_m1827304423
fzc:__Z35Transfer_Blittable_FixedBufferFieldI8JSONReadiEvRK29SerializationCommandArgumentsR31RuntimeSerializationCommandInfo
S6i:__ZNSt3__213__vector_baseIN6il2cpp2os19SocketHandleWrapperENS_9allocatorIS3_EEED2Ev
aeh:__Z77RuntimeInvoker_RuntimeObject_Int32_t2071877448_RuntimeObject_SByte_t454417549PFvvEPK10MethodInfoPvPS4_
gc:invoke_viiffi
CGe:_RegionInfo_GetByTerritory_m3452395101
j3b:__ZN13sorted_vectorINSt3__24pairIN4core12basic_stringIcNS2_20StringStorageDefaultIcEEEEPK17MessageIdentifierEEN10vector_mapIS6_S9_NS0_4lessIS6_EENS0_9allocatorISA_EEE13value_compareESF_E10insert_oneERKSA_
Q2f:_Thread_GetCachedCurrentUICulture_m5590127
AJi:_GUILayoutEntry_get_margin_m3913640621
Klb:__Z14resize_trimmedINSt3__26vectorIN9ShaderLab18SerializedPropertyENS0_9allocatorIS3_EEEEEvRT_j
Z8e:_List_1_CheckMatch_m4018158235_gshared
Kwe:_Context_t2636657155_marshal_pinvoke_back
S4i:__ZN6il2cpp2vm13MetadataCache38GetMethodInfoFromMethodDefinitionIndexEi
wSd:_Byte_System_IConvertible_ToDateTime_m1583041031
oRi:__ZL24UnresolvedVirtualCall_68P12Il2CppObjectS0_iS0_S0_S0_S0_S0_S0_PK10MethodInfo
T5a:__ZN10VertexData8TransferI24GenerateTypeTreeTransferEEvRT_
Gyj:__ZN13Il2CppHashMapIPK19Il2CppGenericMethodP10MethodInfoN6il2cpp8metadata23Il2CppGenericMethodHashENS6_26Il2CppGenericMethodCompareENSt3__29allocatorINS9_4pairIK10KeyWrapperIS2_ES4_EEEEEC2EjRKS7_RKS8_
QHh:_EqualityComparer_1_System_Collections_IEqualityComparer_Equals_m1089835085_gshared
f_b:__ZL10CullLightsRK22SceneCullingParametersR11CullResults
tFd:_Dropdown__cctor_m264401557
xPd:_Array_IndexOf_m2819632474
Evi:_Ray_GetPoint_m2427899009_AdjustorThunk
o4h:_Comparer_1__cctor_m3996541505_gshared
bB:__ZN7mecanim12statemachine20GetBlendTreeConstantERKNS0_13StateConstantEi
Z5b:__Z40GetTemporaryCachePathApplicationSpecificv
Cia:__ZN9GfxDevice16EndAsyncJobFrameEv
oWc:_UNITY_tt_face_load_hhea
K$d:_Convert_ToBase64String_m1936815455
Sk:___syscall3
Vk:___syscall6
Xk:___syscall4
g9d:_Decimal_ToString_m759431975
Nsb:__ZNSt3__26__treeINS_12__value_typeIN4core12basic_stringIcNS2_20StringStorageDefaultIcEEEEPN16MemoryFileSystem4NodeEEENS_19__map_value_compareIS6_SA_NS_4lessIS6_EELb1EEE13stl_allocatorISA_L18MemLabelIdentifier55ELi16EEE7destroyEPNS_11__tree_nodeISA_PvEE
_Ad:_ColorBlock_get_fadeDuration_m987725262
vYf:_CryptographicException__ctor_m2415891459
yLc:__ZNSt3__26__sortIR24RayHitsByDepthComparitorP12RaycastHit2DEEvT0_S5_T_
Pia:__ZN9GfxDevice27UpdateComputeSkinPoseBufferE15ComputeBufferIDP12SkinMeshInfo
ll:_emscripten_glShaderBinary
zOd:_Array_InternalArray__RemoveAt_m1126483634
Krb:__ZNK20LocalFileSystemPosix6ExistsERK13FileEntryData
PIi:_GUI_CallWindowDelegate_m2603162942
EFf:_DictionaryNodeEnumerator_get_DictionaryNode_m3521889822
by:__ZN7mecanim5human19MaskHasLeftFootGoalERKNS_6bitsetILj70EEE
roh:__Z101RuntimeInvoker_Int32_t2071877448_RuntimeObject_Color32_t874517518_Int32_t2071877448_Int32_t2071877448PFvvEPK10MethodInfoPvPS4_
H9c:__Z58Register_UnityEngine_Canvas_GetETC1SupportedCanvasMaterialv
eFb:__ZN17AnimationCurveTplIfE8TransferI18StreamedBinaryReadILb1EEEEvRT_
i7d:_DateTimeOffset_GetHashCode_m3312197462_AdjustorThunk
Ybd:__ZN18UnityConnectClientD2Ev
S9i:_il2cpp_set_data_dir
jgi:_Uri_get_IsUnc_m2111738174
Iig:_TypeBuilder_IsValueTypeImpl_m1499671481
abd:__ZN11UnityEngine15PlatformWrapper30GetGraphicsDriverLibraryStringEv
Luf:_EncryptedPrivateKeyInfo_Decode_m1706190306
BGb:__Z18Transfer_BlittableI18StreamedBinaryReadILb0EELb0E4AABBEvRK29SerializationCommandArgumentsR31RuntimeSerializationCommandInfo
DPi:_AudioListener_ClearExtensionProperties_m2267088681
MK:__ZN16MecanimAnimation24DeleteAnimatedPropertiesERP26IAnimatedPropertyEvaluator
c4d:_Convert_ToUInt16_m1665900934
BGe:_RegionInfo__ctor_m2058831971
oQb:__Z14DrawGUITextureRK5RectTIfEP7Texture11ColorRGBA32P8Materiali
OQh:_Text_get_supportRichText_m3291105891
IE:__ZN9BlobWrite8TransferI22OffsetPtrArrayTransferIKN4math7_float4EEEEvRT_PKc17TransferMetaFlags
GKi:_GUIUtility_set_systemCopyBuffer_m3458871692
tIc:__ZNK11b2EdgeShape7RayCastEP15b2RayCastOutputRK14b2RayCastInputRK11b2Transformi
zbi:_MatchCollection_GetEnumerator_m3516985966
Qyc:__ZN9JSONWrite8TransferI4AABBEEvRT_PKc17TransferMetaFlags
T_f:_UTF7Encoding__ctor_m2365939916
GIa:__ZN25MultiBlocksMemoryFileData9SetLengthEy
JZi:_Animator_SetTrigger_m2003713590
pki:_DelegatePInvokeWrapper_StateChanged_t2480912210
yJh:_MatEntry__ctor_m3650167335
tCc:__ZN10Collider2D13AwakeFromLoadE17AwakeFromLoadMode
Z$a:__ZNK9Texture2D20GetRuntimeMemorySizeEv
H6f:_TypeInitializationException__ctor_m2993591639
_uc:__ZN5Unity9rapidjson13GenericReaderINS0_4UTF8IcEES3_13JSONAllocatorE9ParseTrueILj0ENS0_19GenericStringStreamIS3_EENS0_15GenericDocumentIS3_S4_S4_EEEEvRT0_RT1_
tm:_emscripten_glUniform2iv
BIe:_Int16_System_IConvertible_ToInt64_m733340257
FSc:_UNITY_FT_Outline_Transform
Ipc:__Z60Register_UnityEngine_Sprites_DataUtility_Internal_GetMinSizev
m0i:__ZN6il2cpp2vm5Class10GetMethodsEP11Il2CppClassPPv
WVb:__Z30AddDefaultStreamsToMeshBuffersR9GfxDeviceR11MeshBuffersRK16DrawBuffersRange17ShaderChannelMaskS6_
Ava:__ZN7ApiGLES17DeleteFramebufferERN2gl6HandleILNS0_10ObjectTypeE9EEES3_
vya:__ZN15UniformTFMethod13MapBoneBufferEj
Yxf:_RecordProtocol_SendAlert_m2816808523
c5c:__ZN2UI14CanvasRendererD2Ev
yQf:_MethodCall_get_LogicalCallContext_m3769562079
hnj:__ZN6il2cpp6icalls8mscorlib6System5Array8SetValueEP11Il2CppArrayP12Il2CppObjectS5_
GSe:_SynchronizedReader_Read_m1399666181
zkg:_MonoEvent_get_Name_m2796714646
ALb:__Z9SetupArgviPPKc
tZi:_AnimationOffsetPlayable__ctor_m1644499845
Xxd:_PointerEventData_set_worldNormal_m2025727441
OAi:_Transform_INTERNAL_get_worldToLocalMatrix_m2822011810
dzf:_Context_get_SentConnectionEnd_m3114190867
Z_a:__ZN12CubemapArray23VirtualRedirectTransferER24GenerateTypeTreeTransfer
gaa:__ZN12FileAccessor4OpenER15FileSystemEntry14FilePermission16FileAutoBehavior
_Oi:_AudioSource_get_spatializeInternal_m4243931620
VPc:__ZL12PhysxJobFuncPN5physx10PxBaseTaskE
c3a:__ZN23TransformChangeDispatch32QueueTransformChangeIfHasChangedERK15TransformAccess
Axd:_PointerEventData_set_clickTime_m3931922487
l9:__ZN15dense_hashtableINSt3__24pairIKiP4RTTIEEiN11TypeManager27HashFunctorPersistentTypeIDEN14dense_hash_mapIiS4_S7_NS0_8equal_toIiEE13stl_allocatorIS5_L18MemLabelIdentifier7ELi16EEE9SelectKeyESA_SD_E12maybe_shrinkEv
NJe:_NumberFormatter_AppendNonNegativeNumber_m629862866
EZa:__ZNSt3__26vectorINS_4pairIN9ShaderLab16FastPropertyNameEN18UnityPropertySheet11UnityTexEnvEEENS_9allocatorIS6_EEE21__push_back_slow_pathIKS6_EEvRT_
n5h:_ResourceInfo__ctor_m2401359321_AdjustorThunk
oxj:__ZN6il2cpp2os26LibraryNamePrefixAndSuffixC2EPKcS3_
bpe:_Array_InternalArray__set_Item_TisMonoResource_t3127387157_m732733855_gshared
aGi:_UnityEvent_1_Invoke_m1599856953_gshared
SYd:_Hashtable__ctor_m392789568
Q0f:_UTF7Encoding__cctor_m4192443836
B:tempValue
Zki:_Display_get_systemHeight_m3140485477
FIe:_Int16_System_IConvertible_ToSingle_m3277935657
Z5:__Z29scripting_class_from_fullnamePKcS0_S0_
bCi:_Vector3_get_sqrMagnitude_m1445517847_AdjustorThunk
zLh:_Raycast3DCallback_Invoke_m2271859924
CB:__ZN26AnimatorControllerPlayable18DeallocateBindingsEv
uU:__ZN11AudioSource19CreateOpenALRolloffEfff
bXc:_UNITY_FT_Stream_ReadAt
dvh:_Enumerator_get_CurrentKey_m2387752419_AdjustorThunk
b4i:__ZN15dense_hashtableINSt3__24pairIK10KeyWrapperIN6il2cpp5utils13dynamic_arrayIPK10Il2CppTypeLj4EEEEPFvvEEESA_NS3_8metadata19Il2CppSignatureHashEN14dense_hash_mapISA_SD_SG_NSA_14EqualsComparerINSF_22Il2CppSignatureCompareEEENS0_9allocatorISE_EEE9SelectKeyESK_SM_E9set_valueEPSE_RKSE_
Wli:_UnityEventBase_FindMethod_m2780816114
L6f:_UInt16_System_IConvertible_ToBoolean_m887616848
gV:__ZN11AudioModule22CreateAudioClipFromWWWEP10IWWWStreamPKcbbi
F$f:_StringBuilder_set_Length_m3039225444
nhf:_Collection_1_System_Collections_IList_Contains_m3870109702_gshared
Cfe:_Array_InternalArray__ICollection_Contains_TisRaycastResult_t21186376_m3188614988_gshared
N4d:_CultureAwareComparer_GetHashCode_m3681260951
l7c:__Z13RegisterClassIN2UI11CanvasGroupEEvv
f6b:__ZN6prcoreL11inner_clearILj4EEEvPhjjj
rf:_emscripten_glClear
ILh:_Selectable__ctor_m1440593935
ySi:__ZL25UnresolvedVirtualCall_132P12Il2CppObject17Color_t2020392075faaaPK10MethodInfo
uda:__ZNK8Playable6HandleEv
i8:__ZN14MessageHandler28MessageIDToMessageIdentifierEi
UGf:_HttpRequestCreator_Create_m3607509610
n6a:__ZNK11SpriteAtlas20GetRuntimeRenderDataEPK6Sprite
KFj:__ZN6il2cpp2vm10WaitHandle19NewManualResetEventEb
dnf:_ReadOnlyCollection_1_System_Collections_IList_Contains_m3707723158_gshared
NSc:__ZN20TextRenderingPrivate15DynamicFontData36GetFaceForCharacterIfAvailableInFontERKNS_7FontRefERK13dynamic_arrayI4PPtrIN13TextRendering4FontEELj4EEj
LPi:_AudioExtensionManager_GetReadyToPlay_m3272224102
yz:__ZN7mecanim14ValueArrayCopyILb0EEEvPKNS_10ValueArrayEPS1_
tM:__Z51Register_UnityEngine_Animator_get_hasBoundPlayablesv
EWi:_Nullable_1_ToString_m1238126148_AdjustorThunk
Id:emscriptenWebGLGetUniform
yo:FUNCTION_TABLE_iiiiiiiiiii
M$b:__ZL10CleanUpJobP20CullingGroupsJobData
gUd:_Char_CompareTo_m3044885427_AdjustorThunk
KOe:_FileStream_GetSecureFileName_m508045384
G_h:_InternalEnumerator_1_System_Collections_IEnumerator_get_Current_m2035754659_AdjustorThunk
fQb:__ZN13RenderManager15BatchModeUpdateEv
v5a:__ZN14SafeBinaryRead21TransferSTLStyleArrayI13dynamic_arrayI8Vector2fLj4EEEEvRT_17TransferMetaFlags
iDa:__ZN17PersistentManager51InstanceIDToLocalSerializedObjectIdentifierInternalEiR31LocalSerializedObjectIdentifier
lHc:__ZN10ClipperLib7Clipper15SetWindingCountERNS_5TEdgeE
Y$c:_UNITY_FT_Create_Class_cff_services
ld:_glVertexAttribIPointer
Xhd:_HMAC_set_HashName_m457235014
Ofc:__ZNK6Sprite10GetPaddingE20SpriteRenderDataMode
p$i:__ZN6il2cpp2vm5Class11GetPtrClassEPK10Il2CppType
Lee:_Array_InternalArray__ICollection_Contains_TisTableRange_t2011406615_m605506746_gshared
lBh:_Dictionary_2_Add_m1296007576_gshared
M3d:_Decimal_op_Explicit_m729046406
FYf:_CryptoConfig_CreateFromName_m2169102076
NGd:_Graphic_OnEnable_m2900261811
IYf:_CryptographicUnexpectedOperationException__ctor_m3552441227
RTb:__ZN14qsort_internal5QSortIP15RODataDepthPassi17ROSorterDepthPassEEvT_S4_T0_T1_
SVd:_ArrayListWrapper_Clear_m321161741
NLd:_InputField_LineDownCharacterPosition_m2690468785
aXc:_UNITY_ft_glyphslot_alloc_bitmap
kre:_Array_Sort_TisVector2_t2243707579_TisVector2_t2243707579_m2582252549_gshared
L8f:_UInt64_System_IConvertible_ToDouble_m2828923873
Y4e:_List_1_System_Collections_IList_set_Item_m1129584681_gshared
xYc:_ft_raster1_render
rrc:__Z47Register_UnityEngine_Mesh_RecalculateBoundsImplv
P0e:_List_1_set_Capacity_m491101164_gshared
LNj:__ZNKSt3__221__basic_string_commonILb1EE20__throw_length_errorEv
c0f:_StringBuilder_Insert_m1733097906
MDf:_SslStreamBase_get_HashStrength_m480059173
nwa:__ZN18GfxFramebufferGLES13ReadbackImageER14ImageReferenceiiiiii
Cvc:__ZN5Unity9rapidjson6WriterI16TempBufferWriterNS0_4UTF8IcEES4_13JSONAllocatorE11WriteStringEPKcj
vzh:_ValueCollection_System_Collections_Generic_ICollectionU3CTValueU3E_Clear_m3271993638_gshared
v$d:_Enumerator_MoveNext_m1419609883
jQ:__ZN4FMOD7Channel19setReverbPropertiesEPK29FMOD_REVERB_CHANNELPROPERTIES
I7:__ZN13MonoBehaviour22GetScriptFullClassNameEv
pvi:_RangeInt_get_end_m480861812
bHf:_ServicePointManager_FindServicePoint_m3137356168
xJb:__ZN13MonoBehaviour9CallAwakeEv
OVa:__ZN20SphericalHarmonicsL211AddWeightedERKS_f
nyd:_PointerInputModule_GetPointerData_m1695674453
oah:__Z90RuntimeInvoker_Void_t1841601450_RuntimeObject_RuntimeObject_RuntimeObject_SByte_t454417549PFvvEPK10MethodInfoPvPS4_
Myb:__Z19TransferField_ArrayI17RemapPPtrTransfer27Converter_SimpleNativeClassI8GUIStyleEEvRK23StaticTransferFieldInfoR31RuntimeSerializationCommandInfoRT0_
I4d:_Convert_ToUInt64_m345450801
HWi:_Predicate_1_BeginInvoke_m2559992383_gshared
iwc:__ZN9JSONWrite8TransferI10ColorRGBAfEEvRT_PKc17TransferMetaFlags
c7e:_List_1_Find_m1270109362_gshared
hKj:_PersoController2_Update_m2114377951
c8:__Z25scripting_method_get_name18ScriptingMethodPtr
dxb:__Z19TransferField_ArrayI14SafeBinaryRead16Converter_StringEvRK23StaticTransferFieldInfoR31RuntimeSerializationCommandInfoRT0_
eNj:_rename
jEj:_GC_exit_check
AWe:_NotSupportedException__ctor_m3232764727
Ds:__ZN7mecanim9animation9DenseClip8TransferI14SafeBinaryReadEEvRT_
uGf:_TypeConverterAttribute_Equals_m2330345916
Ceh:__Z90RuntimeInvoker_Boolean_t3825574718_Int32_t2071877448_Int32U26_t455636984_Int32_t2071877448PFvvEPK10MethodInfoPvPS4_
eZh:_InternalEnumerator_1_System_Collections_IEnumerator_get_Current_m1038263751_gshared
kOe:_MonoIO_CreateDirectory_m379525469
y3b:__ZNSt3__26vectorINS_4pairIN4core12basic_stringIcNS2_20StringStorageDefaultIcEEEES6_EE13stl_allocatorIS7_L18MemLabelIdentifier38ELi16EEE6insertENS_11__wrap_iterIPKS7_EERSD_
zE:__ZN9BlobWrite8TransferI22OffsetPtrArrayTransferI9OffsetPtrIN7mecanim12statemachine18StateMachineMemoryEEEEEvRT_PKc17TransferMetaFlags
kVc:_UNITY_ft_smooth_renderer_class_pic_free
I7e:_List_1_System_Collections_IList_Remove_m3763718607_gshared
hf:_emscripten_glStencilOpSeparate
Srd:_String_Concat_m2000667605
yzj:__ZN6il2cpp2vm6String8NewUtf16EPKDsi
swj:__ZN6il2cpp2os10ThreadImpl12QueueUserAPCEPFvPvES2_
Obd:__ZN22BaseUnityConnectClient10QueueEventERN11UnityEngine15CloudWebService17CloudServiceEventEPKcjb
klh:__Z71RuntimeInvoker_Bounds_t3033363703_RuntimeObject_Matrix4x4U26_t266301477PFvvEPK10MethodInfoPvPS4_
Oue:_ExecuteEvents_GetEventHandler_TisRuntimeObject_m3333041576_gshared
AUc:_UNITY_FT_Hypot
MQd:_BitConverter_ToInt64_m1329623425
y9b:__ZN8RendererC2E12RendererType18MemLabelIdentifier18ObjectCreationMode
uaj:_il2cpp_class_is_abstract
Bf:_emscripten_glGetError
Jij:__ZN15dense_hashtableINSt3__24pairIK10KeyWrapperIPK14Il2CppAssemblyEPK22Il2CppMonoAssemblyNameEES6_N6il2cpp5utils11PointerHashIS4_EEN14dense_hash_mapIS6_SA_SF_NS6_14EqualsComparerINS0_8equal_toIS5_EEEENS0_9allocatorISB_EEE9SelectKeyESK_SM_E14squash_deletedEv
WQ:__Z14FMOD_FILE_SeekPvjS_
BQf:_MethodCall_get_Properties_m1893707917
Gwh:_ShimEnumerator_get_Entry_m2387156530_gshared
B4i:__ZN14dense_hash_mapI10KeyWrapperIN6il2cpp5utils13dynamic_arrayIPK10Il2CppTypeLj4EEEEPFvvENS1_8metadata19Il2CppSignatureHashENS8_14EqualsComparerINSB_22Il2CppSignatureCompareEEENSt3__29allocatorINSG_4pairIKS8_SA_EEEEEC2EjRKSC_RKSF_
P0b:__ZNK13RenderTexture32CalculateNeedsInvertedProjectionEv
H5b:__ZN10systeminfo18GetOperatingSystemEv
Jf:emscriptenWebGLGet
vaa:__Z19CanReplaceComponentRN5Unity9ComponentEPKNS_4TypeEPN4core12basic_stringIcNS5_20StringStorageDefaultIcEEEE
Yac:__ZN12CubemapArray11InitTextureEiii13TextureFormatb
Uhc:__Z17GetSceneBuildInfoRKN4core12basic_stringIcNS_20StringStorageDefaultIcEEEEiR14SceneBuildInfo
kKf:_X509Certificate2_get_SignatureAlgorithm_m3069898012
TLe:_Int64_System_IConvertible_ToSingle_m1678482180
gF:__ZN7mecanim5human13HumanFixTwistEPKNS0_5HumanEPNS_8skeleton13SkeletonPoseTIN4math4trsXEEES9_iiRKf
GWb:__ZL24AssignProjectorQueuesJobP30AssignProjectorQueuesJobHeader
g4f:_TimeSpan_get_Hours_m3804628138
Ftj:__ZN14dense_hash_mapI10KeyWrapperIP12Il2CppObjectEN6il2cpp2gc9CachedCCWENS4_5utils11PointerHashIS1_EENS3_14EqualsComparerINSt3__28equal_toIS2_EEEENSB_9allocatorINSB_4pairIKS3_S6_EEEEEC2EjRKS9_RKSE_
h4i:__ZN15dense_hashtableINSt3__24pairIK10KeyWrapperIN6il2cpp5utils13dynamic_arrayIPK10Il2CppTypeLj4EEEEPFvvEEESA_NS3_8metadata19Il2CppSignatureHashEN14dense_hash_mapISA_SD_SG_NSA_14EqualsComparerINSF_22Il2CppSignatureCompareEEENS0_9allocatorISE_EEE9SelectKeyESK_SM_E4swapERSP_
Wnb:__ZN9ShaderLab20SerializedSubProgram14SetConstBufferEPKci
xFe:_ArgumentNullException__ctor_m911049464
frf:_Comparison_1_Invoke_m345024424_gshared
s_c:_cf2_getStdVW
lof:_ReadOnlyCollection_1_System_Collections_IList_Insert_m3936197025_gshared
M1:__Z40DebugStringToFilePostprocessedStacktraceRK21DebugStringToFileData
WAc:__Z29Transfer_Blittable_ArrayFieldI8JSONReadjEvRT_R9ArrayInfoRK23StaticTransferFieldInfo
g_h:_InternalEnumerator_1_get_Current_m314017974_AdjustorThunk
pg:__setLetterbox
QPe:_MemoryStream__ctor_m1043059966
xRf:__ZN21InterfaceFuncInvoker3IP12Il2CppObjectP6Type_t28StreamingContext_t1417235061PS1_E6InvokeEjP11Il2CppClassS1_S3_S4_S5_
z8a:__ZNSt3__26vectorI17BlendShapeChannelNS_9allocatorIS1_EEE6assignINS_11__wrap_iterIPS1_EEEENS_9enable_ifIXaasr21__is_forward_iteratorIT_EE5valuesr16is_constructibleIS1_NS_15iterator_traitsISA_E9referenceEEE5valueEvE4typeESA_SA_
WMd:_LayoutElement_set_preferredWidth_m3072758716
XNb:__Z12SetGfxDeviceP9GfxDevice
VIf:_AsnEncodedData_ToString_m724151831
Ali:_Object_CompareBaseObjects_m1461253683
A5b:__ZN11TimeManager11GetRealtimeEv
IDj:_GC_print_block_list
oR:__ZN29AudioEffectInternalDefinitionC2EP26UnityAudioEffectDefinitionb
mkg:_MonoMethodInfo_GetDeclaringType_m4186531677
uSf:_SoapTypeAttribute_SetReflectionObject_m1566293812
XNi:_Enumerator_System_Collections_IEnumerator_Reset_m2573763156_AdjustorThunk
PTf:_RemotingServices_CreateClientProxy_m1631035355
p9f:_UInt64_ToString_m2892887310
Oqa:_stbir_resize
Nyj:__ZN15dense_hashtableINSt3__24pairIK10KeyWrapperIPK19Il2CppGenericMethodEP10MethodInfoEES6_N6il2cpp8metadata23Il2CppGenericMethodHashEN14dense_hash_mapIS6_S9_SD_NS6_14EqualsComparerINSC_26Il2CppGenericMethodCompareEEENS0_9allocatorISA_EEE9SelectKeyESH_SJ_EC2ERKSM_j
tKc:__ZN24b2ChainAndCapsuleContact6CreateEP9b2FixtureiS1_iP16b2BlockAllocator
MIa:__Z37ReadDirectoryInfo_UnityWebAndUnityRawR12FileAccessorRKN20ArchiveStorageHeader6HeaderERNS1_13DirectoryInfoE
O4:__ZNSt3__26__treeINS_12__value_typeIPKciEENS_19__map_value_compareIS3_S4_15compare_tstringIS3_ELb1EEENS_9allocatorIS4_EEE7destroyEPNS_11__tree_nodeIS4_PvEE
BEh:_Dictionary_2_ToTValue_m1381983709_gshared
sWe:_MulticastDelegate_KPM_m1592985119
scd:__ZN13dynamic_arrayIN4core12basic_stringIcNS0_20StringStorageDefaultIcEEEELj4EE6assignEPKS4_S7_
_jf:_Collection_1_ConvertItem_m3941916604_gshared
fHa:__ZN15dense_hashtableINSt3__24pairIKN4core12basic_stringIcNS2_20StringStorageDefaultIcEEEEP20ArchiveStorageReaderEES6_20StringHash32FunctionIS6_EN14dense_hash_mapIS6_S9_SC_NS0_8equal_toIS6_EE13stl_allocatorISA_L18MemLabelIdentifier55ELi16EEE9SelectKeyESF_SI_E5clearEv
X5c:__ZN2UI6Canvas26MarkAllNestedCanvasesDirtyEv
Sqj:__ZN6il2cpp2vm12ReboxIfBoxedEP14Il2CppIUnknownP11Il2CppClass
_Kb:__ZN25PathNamePersistentManagerD2Ev
w6:__ZN17PersistentManager48IntegrateObjectAndUnlockIntegrationMutexInternalEi
Pga:__ZZ29InitializeSortingGroupManagerPvEN44PostLateUpdateSortingGroupsUpdateRegistrator7ForwardEv
rp:__ZN6Object12SetHideFlagsENS_9HideFlagsE
JJc:__ZN9b2Fixture11SynchronizeEP12b2BroadPhaseRK11b2TransformS4_
wUj:_emscripten_glGetFramebufferAttachmentParameteriv__wrapper
FQb:__ZN13RendererScene15InitializeUmbraEv
HUa:__Z28CalculateGlobalMatrixInverse23TransformAccessReadOnly
Xqg:__ZL60SecurityAttribute_t2016950496_CustomAttributesCacheGeneratorP21CustomAttributesCache
iyd:_PointerEventData_ToString_m1218584363
Y0f:_UTF7Encoding_GetCharCount_m2589913583
Vbj:_AnalyticsSessionInfo_CallSessionStateChanged_m2293069762
GQe:_MemoryStream_CalculateNewCapacity_m3533542025
BIj:__ZN6il2cpp6icalls8mscorlib6System6Object7GetTypeEP12Il2CppObject
mgi:_Uri_Reduce_m2577728307
G4f:_TimeSpan_Equals_m4102942751_AdjustorThunk
uzh:_ValueCollection_System_Collections_Generic_ICollectionU3CTValueU3E_Add_m1903672223_gshared
ifd:__ZN12HeaderHelper14SetUnvalidatedERKN4core12basic_stringIcNS0_20StringStorageDefaultIcEEEES6_b
pN:__ZN4FMOD6SoundI7releaseEv
lab:__ZN14SpriteRenderer13AwakeFromLoadE17AwakeFromLoadMode
oJa:__ZN10MemoryFile9SetLengthEy
gK:__ZN7mecanim10ValueArray8TransferI19StreamedBinaryWriteILb0EEEEvRT_
RAb:__ZN5RectTIiE8TransferI24GenerateTypeTreeTransferEEvRT_
P1a:__ZN14SafeBinaryRead21TransferSTLStyleArrayI13dynamic_arrayI7Hash128Lj8EEEEvRT_17TransferMetaFlags
ZJb:__Z28scripting_class_is_interface17ScriptingClassPtr
Fh:_glTexStorage2D
NXa:__ZNK9ShaderLab10SubProgram14EnsureCompiledEv
e2g:__Z79RuntimeInvoker_Boolean_t3825574718_RuntimeObject_RuntimeObject_SByte_t454417549PFvvEPK10MethodInfoPvPS4_
lWf:_ObjectManager_RecordFixup_m3572285566
s_d:_SortedList_InitTable_m460350503
U7:__Z18BuildScriptClassId17ScriptingClassPtr
GWh:_InternalEnumerator_1_get_Current_m4279678504_AdjustorThunk
gIa:__ZL31DeleteLastPathNameComponentImplRKN4core12basic_stringIcNS_20StringStorageDefaultIcEEEEPKc
s7b:__Z13RegisterClassI18DelayedCallManagerEvv
acd:__ZN18UnityConnectClient15GetCloudServiceEv
_yb:__Z18Transfer_BlittableI24GenerateTypeTreeTransferLb0EiEvRK29SerializationCommandArgumentsR31RuntimeSerializationCommandInfo
M6i:__ZN6il2cpp2os19SocketHandleWrapperD2Ev
ZJc:__ZN15b2CircleContact6CreateEP9b2FixtureiS1_iP16b2BlockAllocator
TJb:__ZL28SerializationCommandGroupForRK31TransferFunctionScriptingTraits17ScriptingClassPtr17ScriptingFieldPtrRK20CoreScriptingClasses
pMa:__ZN10TagManager32RegisterDefaultTagsAndLayerMasksEv
o5i:__ZN15dense_hashtableINSt3__24pairIK10KeyWrapperIPKcEP11Il2CppClassEES5_N6il2cpp5utils11StringUtils12StringHasherIS4_EEN14dense_hash_mapIS5_S8_SE_NS5_14EqualsComparerINSB_13VmStringUtils21CaseSensitiveComparerEEENS0_9allocatorIS9_EEE9SelectKeyESJ_SL_E15insert_noresizeERKS9_
D2f:_SynchronizationLockException__ctor_m549086841
oVd:_ArrayList_InsertRange_m1478230997
ana:__ZN4gles8InitCapsEP7ApiGLESP12GraphicsCapsR16GfxDeviceLevelGL
gra:__ZN6prcore14BlitImageFloatERK14ImageReferenceRS0_NS0_8BlitModeE
vSa:__Z24CalculateVertexLightDataRK15SharedLightDataR14GfxVertexLight
Cji:_Color_get_black_m455352838
ni:_glEnable
mib:__ZN15dense_hashtableINSt3__24pairIKiiEEi21InstanceIDHashFunctorN14dense_hash_mapIiiS4_NS0_8equal_toIiEE13stl_allocatorIS3_L18MemLabelIdentifier1ELi16EEE9SelectKeyES7_SA_E12maybe_shrinkEv
JXa:__ZNK9ShaderLab7Program28BeginReadUnsupportedVariantsEv
oSb:__ZNK25CameraStackRenderingState21GetImageEffectTextureEb
eXf:_RuntimeMethodHandle__ctor_m2437574937_AdjustorThunk
zfb:__ZNSt3__26vectorIN30RuntimeInitializeOnLoadManager9ClassInfoE13stl_allocatorIS2_L18MemLabelIdentifier13ELi16EEE7reserveEj
vwc:__Z35Transfer_Blittable_FixedBufferFieldI9JSONWriteiEvRK29SerializationCommandArgumentsR31RuntimeSerializationCommandInfo
a7f:_UInt16_System_IConvertible_ToInt64_m2835280558_AdjustorThunk
DVg:__ZL53g_UnityEngine_Assembly_CustomAttributesCacheGeneratorP21CustomAttributesCache
jDi:_Predicate_1_BeginInvoke_m3926587117_gshared
oL:__ZZN8Animator15InitializeClassEvEN31FunctorImpl_427kDidModifyAvatar4CallEPviR11MessageData
Emf:_ReadOnlyCollection_1_System_Collections_IList_Remove_m2779327941_gshared
uB:__ZN26AnimatorControllerPlayable17ProcessRootMotionEP35AnimationPlayableEvaluationConstantP32AnimationPlayableEvaluationInputP33AnimationPlayableEvaluationOutput
w2g:__Z94RuntimeInvoker_Boolean_t3825574718_Int32_t2071877448_SByte_t454417549_ExceptionU26_t1467204777PFvvEPK10MethodInfoPvPS4_
YDd:_DefaultControls_CreateToggle_m1568873127
mEh:_Dictionary_2_InitArrays_m2270022740_gshared
Cad:__ZN11UnityEngine7Connect15DeviceInfoEvent16CollectExtraInfoEv
P2i:__ZN15dense_hashtableI10KeyWrapperIPK17Il2CppGenericInstES4_N6il2cpp8metadata21Il2CppGenericInstHashEN14dense_hash_setIS4_S7_NS4_14EqualsComparerINS6_24Il2CppGenericInstCompareEEENSt3__29allocatorIS4_EEE8IdentityESB_SE_EC2ERKSH_j
n0f:_UnicodeEncoding_GetChars_m3765282346
GMe:_IntPtr__ctor_m4104029105
s$h:_InternalEnumerator_1_System_Collections_IEnumerator_get_Current_m771161214_AdjustorThunk
sVe:_MonoType_get_attributes_m1493788675
jKa:__ZN20ArchiveStorageReader10InitializeER15FileSystemEntryyb
F2d:_Convert_ToDouble_m4236754739
mFd:_Dropdown_CreateItem_m2702141380
rsg:__ZL48Stack_t1043988394_CustomAttributesCacheGeneratorP21CustomAttributesCache
Do:FUNCTION_TABLE_viifi
wkg:_MonoEvent_GetAddMethod_m4289563120
xqg:__ZL37Type_t_CustomAttributesCacheGeneratorP21CustomAttributesCache
Z1c:_UNITY_tt_face_free_hdmx
WLc:__ZNSt3__26__sortIRN18Overlap2DQueryBase29ColliderHitsByDepthComparitorEPP10Collider2DEEvT0_S7_T_
rcj:__ZN6il2cpp2vm14TypeNameParser5ParseEb
fLh:_ReflectionMethodsCache__ctor_m1835220
zed:__ZN23UnityPurchasingSettingsC2Ev
Yae:_Double_ToString_m1864290157
wHj:__ZN6il2cpp2os5Mutex6UnlockEv
Q0b:__ZL10RenderFaceR9GfxDeviceR18MaterialStateCacheP13RenderTextureiif
bBi:_SpriteAtlasManager__cctor_m453260161
Irj:__ZNK24NamespaceAndNamePairHashclERKNSt3__24pairIPKcS3_EE
Uqa:__ZL37stbir__resample_horizontal_downsampleP11stbir__infoiPf
Hib:__ZNK5Unity9Component38MarkGameObjectAndComponentDependenciesER27GarbageCollectorThreadState
W2:__ZL16OutOfMemoryErrorjj18MemLabelIdentifieriPKc
Cfd:__ZN20UnityWebRequestProtoI24UnityWebRequestTransport16AtomicRefCounter14RedirectHelper14ResponseHelper15DownloadHandler13UploadHandler12HeaderHelper14AsyncOperationED0Ev
SWd:_SynchronizedArrayListWrapper_Contains_m2259439339
t8:__ZNK11TypeManager15ClassNameToRTTIEPKcb
qHb:__Z18Transfer_BlittableI18StreamedBinaryReadILb0EELb1EdEvRK29SerializationCommandArgumentsR31RuntimeSerializationCommandInfo
WVj:_emscripten_glVertexAttrib2fv__wrapper
vHe:_Guid__ctor_m2599802704
gPe:_FileStream_get_CanRead_m4148920720
_pa:__ZN4crnd12symbol_codec32decode_receive_static_data_modelERNS_25static_huffman_data_modelE
Y5b:__ZN18ScriptingArguments8AddFloatEf
MFe:_GregorianCalendar_set_CalendarType_m2438362222
Ofe:_Array_InternalArray__ICollection_Contains_TisVector2_t2243707579_m3625698589_gshared
sad:__ZN11UnityEngine15PlatformWrapper16GetVRRenderScaleEv
vxc:__Z18Transfer_BlittableI9JSONWriteLb0EaEvRK29SerializationCommandArgumentsR31RuntimeSerializationCommandInfo
AY:__ZN11UnityEngine15CloudWebService14DataDispatcher34OnSessionContainerArchivedAndReadyERNS0_16SessionContainerE
SDc:__ZN7b2World11CreateJointEPK10b2JointDef
qYi:_RectTransformUtility_PixelAdjustPoint_m1375786599
xGe:_NumberFormatInfo_GetFormat_m3247563525
Pwf:_CipherSuiteCollection__ctor_m2154226461
Kjb:__ZN14SafeBinaryRead19TransferSTLStyleMapINSt3__23mapIN4core12basic_stringIcNS3_20StringStorageDefaultIcEEEEiNS1_4lessIS7_EENS1_9allocatorINS1_4pairIKS7_iEEEEEEEEvRT_17TransferMetaFlags
TVc:_gray_move_to
phd:_DSAParameters_t1872138834_marshal_pinvoke
Rai:_ConstructionCall_InitDictionary_m4046452035
vhj:__ZN6il2cpp2vm10Reflection14GetEventObjectEP11Il2CppClassPK9EventInfo
gyf:_TlsStream_Write_m2271546135
Vjc:__Z30RegisterValidateMethodCallbackiPF18ScriptingMethodPtrS_17ScriptingClassPtrP6ObjectEPKc
Sde:_CultureInfo_ConstructInternalLocaleFromCurrentLocale_m1342751405
t$f:_Latin1Encoding_GetString_m3553289597
rLh:_GetRayIntersectionAllNonAllocCallback_Invoke_m1247446986
qXc:_tt_cmap_init
NBc:__ZN8JSONRead8TransferI9BoundsIntEEvRT_PKc17TransferMetaFlagsb
Ka:invoke_viidi
ntj:__ZN15dense_hashtableI10KeyWrapperIP18Il2CppGenericClassES3_N6il2cpp8metadata22Il2CppGenericClassHashEN14dense_hash_setIS3_S6_NS3_14EqualsComparerINS5_25Il2CppGenericClassCompareEEENSt3__29allocatorIS3_EEE8IdentityESA_SD_E12maybe_shrinkEv
UEb:__Z29Transfer_Blittable_ArrayFieldI18StreamedBinaryReadILb1EEdEvRT_R9ArrayInfoRK23StaticTransferFieldInfo
PP:__ZN9AudioClip7CleanupEv
vCi:_Vector4_set_Item_m1525226067_AdjustorThunk
$Zj:_emscripten_glCheckFramebufferStatus__wrapper
dmj:__ZNK15dense_hashtableINSt3__24pairIK10KeyWrapperIP11Il2CppClassES4_EES5_N6il2cpp8metadata16SZArrayClassHashEN14dense_hash_mapIS5_S4_SA_NS5_14EqualsComparerINS9_19SZArrayClassCompareEEENS0_9allocatorIS7_EEE9SelectKeyESE_SG_E12test_deletedEj
oAc:__Z18Transfer_BlittableI8JSONReadLb0EdEvRK29SerializationCommandArgumentsR31RuntimeSerializationCommandInfo
fnh:__Z83RuntimeInvoker_Boolean_t3825574718_NavigationU26_t3929175072_Navigation_t1571958496PFvvEPK10MethodInfoPvPS4_
SI:__ZN7mecanim9animation21BlendTreeNodeConstant35Transfer_4_0_BackwardsCompatibilityI14SafeBinaryReadEEvRT_
X2f:_Thread_ClrState_m822263449
vwe:_SimpleCollator_LastIndexOfOrdinalIgnoreCase_m550798345
d7i:__ZN6il2cpp2vm21ThreadPoolCompartment13QueueWorkItemEP17Il2CppAsyncResult
Vha:__ZNK9GfxDevice13GetViewMatrixEv
Gii:_Bounds_Encapsulate_m17114941
Fhb:__ZN17RemapPPtrTransferC2E24TransferInstructionFlagsb
uI:__ZN14SafeBinaryRead21TransferSTLStyleArrayI22OffsetPtrArrayTransferIiEEEvRT_17TransferMetaFlags
v9:__ZN8TypeTree8BlobReadERPKhS1_ib
egb:__ZN18LoadSceneOperation23GetAllowSceneActivationEv
xPa:__ZN6CameraD0Ev
bKi:_GUILayoutUtility_Begin_m659595645
Wxe:_ModulusRing_Multiply_m386339435
Tea:__ZN31CanvasBatchIntermediateRenderer16StaticInitializeEPv
EHd:_GraphicRaycaster_U3CRaycastU3Em__0_m3971200721
Fmf:_ReadOnlyCollection_1_System_Collections_IList_RemoveAt_m3004588099_gshared
KA:__ZN7mecanim12AndValueMaskILb0EEEvPKNS_14ValueArrayMaskEPS1_
nfb:__ZN14SafeBinaryRead21TransferSTLStyleArrayINSt3__26vectorIi13stl_allocatorIiL18MemLabelIdentifier13ELi16EEEEEEvRT_17TransferMetaFlags
l2d:_Decimal_op_Implicit_m4246329390
zFe:_ArgumentNullException__ctor_m2252076819
Q1b:__ZN10GameObjectC2E18MemLabelIdentifier18ObjectCreationMode
B2c:_raccess_guess_apple_double
wFf:_ListDictionary_GetEnumerator_m1511032609
JVf:_SerializationInfo__ctor_m4016423422
hua:__ZL18ProgramUniform1uivPK7ApiGLESjiihPKv
gbc:__ZN14Texture2DArray13RebuildMipMapEv
i1i:__ZN13Il2CppHashSetIPK17Il2CppGenericInstN6il2cpp8metadata21Il2CppGenericInstHashENS4_24Il2CppGenericInstCompareENSt3__29allocatorI10KeyWrapperIS2_EEEEC2EjRKS5_RKS6_
Kxj:__ZN6il2cpp2gc16GarbageCollector14RemoveWeakLinkEPPv
Xnb:__ZN9ShaderLab20SerializedSubProgram14AddVectorParamEPKcii15ShaderParamTypei
mpf:_ReadOnlyCollection_1_System_Collections_IEnumerable_GetEnumerator_m1734360860_gshared
z5h:_ResourceSet_ReadResources_m1669023823
LDe:_PKCS12_RemoveCertificate_m1590055870
Rmj:__ZN6il2cpp2vm6Thread7SetNameEP12Il2CppThreadP12Il2CppString
gMb:__ZN13ScreenManager18SetAllowCursorLockEb
UZ:__ZN11UnityEngine15CloudWebService10RestClientINS0_23WebRequestRestHeaderMapEE16SetRequestHeaderERKN4core12basic_stringIcNS4_20StringStorageDefaultIcEEEESA_
sfb:__ZN30RuntimeInitializeOnLoadManager15ClassMethodInfo8TransferI14SafeBinaryReadEEvRT_
_$g:__ZL73CanvasScaler_t2574720772_CustomAttributesCacheGenerator_m_ScreenMatchModeP21CustomAttributesCache
xW:__ZL22InitializeModule_Audiov
rsb:__ZN16MemoryFileSystem8IsLockedERK13FileEntryData
zoj:__ZN6il2cpp6icalls8mscorlib6System2IO6MonoIO5WriteEiP11Il2CppArrayiiPi
ekg:_MonoCMethod_Invoke_m931478014
W3g:__Z86RuntimeInvoker_Int32_t2071877448_Int16_t4041245914_Int32_t2071877448_Int32_t2071877448PFvvEPK10MethodInfoPvPS4_
G5h:_SatelliteContractVersionAttribute__ctor_m2605651717
Yk:_emscripten_glBindRenderbuffer
fOg:__ZL77RuntimePlatform_t1869584967_CustomAttributesCacheGenerator_OSXDashboardPlayerP21CustomAttributesCache
eEj:_GC_dirty_init
tPd:_Array_Copy_m1969461849
bVf:_MessageFormatter_ReadMethodResponse_m4134629501
Muj:__ZN6il2cpp2vm5Field14GetValueObjectEP9FieldInfoP12Il2CppObject
a7c:__ZNK2UI6Canvas16GetTargetDisplayEv
tri:_PKCS12_GetSymmetricAlgorithm_m3196291685
ece:_Environment_get_OSVersion_m1247315981
Kca:__ZN6Object17FindObjectsOfTypeEPKN5Unity4TypeER13dynamic_arrayIPS_Lj4EEb
rJb:__ZN13MonoBehaviour17RemoveFromManagerEv
hQa:__ZN12ImageFilters14AddImageFilterERK11ImageFilter
D4a:__ZL11DecodeValuePPKcS0_
fxh:_ShimEnumerator_MoveNext_m2013866013_gshared
$0:__ZN13MemoryManagerC2Ev
Exa:__ZN12SkinMeshInfo10DeallocateEPS_
DJa:__ZN20ArchiveStorageReader28AcquireAndPrefillUnusedBlockEjPNS_11CacheResultE
abc:__Z12NHxRoughnessIA4_tEvP9Texture2DPT_iiii
eda:__ZN18AsyncUploadManagerD2Ev
Vpb:__ZN9Transform5ResetEv
fBb:__Z22TransferField_NonArrayI24GenerateTypeTreeTransfer16Converter_StringEvRK23StaticTransferFieldInfoR31RuntimeSerializationCommandInfoRT0_
gXc:_UNITY_FT_CMap_New
$Lb:__Z17MainLoopKeepalivePv
rbi:_MatchCollection__ctor_m1944681790
Aid:_HMACSHA512__ctor_m1667460019
_Kj:_printf_core
iWe:_MonoType_ToString_m473949831
Y_b:__Z14CalcHullBoundsPK8Vector3fPKhhRK5PlaneRK10Matrix4x4fR10MinMaxAABB
$Sf:_RealProxy__ctor_m2147093603
KTb:__Z19SetupLODFadeKeywordR17ShaderPassContexti
KCj:_GC_set_fl_marks
hxa:__ZL25CheckCopyTextureArgumentsRK7ApiGLESP11GLESTextureS3_
Jgb:__ZN13dynamic_arrayI26EnlightenSystemInformationLj8EE6insertEPS0_PKS0_S4_
MWc:_tt_name_entry_ascii_from_utf16
uWe:_MulticastNotSupportedException__ctor_m2164514827
g5d:_DateTime_System_IConvertible_ToChar_m2489529194_AdjustorThunk
EAb:__Z29Transfer_Blittable_ArrayFieldI24GenerateTypeTreeTransferyEvRT_R9ArrayInfoRK23StaticTransferFieldInfo
AQ:__ZN4FMOD7SystemI9playSoundE17FMOD_CHANNELINDEXPNS_5SoundEbPPNS_7ChannelE
Kdi:_Regex_GetGroupIndex_m1686599756
JA:__ZN27AnimationLayerMixerPlayable17LayerMixerProcessEP35AnimationPlayableEvaluationConstantP32AnimationPlayableEvaluationInputP33AnimationPlayableEvaluationOutputM17AnimationPlayableFvS1_S3_S5_EMS_FvS1_S3_S5_ESA_MS_FvS5_S1_S3_S5_ifE
Tbj:__ZN6il2cpp2os4File4ReadEPNS0_10FileHandleEPciPi
aP:__ZN12AudioManager23VirtualRedirectTransferER18StreamedBinaryReadILb0EE
g8a:__ZN10VertexData13SwapEndianessEv
vNj:_realloc
Hqc:__Z57Register_UnityEngine_Transform_INTERNAL_get_localRotationv
BOh:_ScrollRect_SetLayoutVertical_m1225848090
Dqi:_Plane_ToString_m4267831659_AdjustorThunk
w5f:_Type_get_IsInterface_m3583817465
rRj:dynCall_viif
Okg:_MonoField_get_DeclaringType_m1591666235
zPf:_Enumerator_MoveNext_m4234629003
s$c:_cf2_hint_lock
kyb:__ZL26Transfer_SimpleNativeClassI17RemapPPtrTransfer8GradientLb0EEvRK29SerializationCommandArgumentsR31RuntimeSerializationCommandInfo
tC:__ZN17AnimationPlayable26DisconnectNoTopologyChangeEPS_i
tVe:_MonoType_GetDefaultConstructor_m925465120
h6f:_Type_IsArrayImpl_m3073208555
C_:__ZN13UploadHandlerD2Ev
MPj:dynCall_viiiiiffi
Dc:_emscripten_glBlendFuncSeparate
F5:__Z20scripting_string_newPKc
_oc:__Z43Material_CUSTOM_Internal_CreateWithMaterialP12Il2CppObjectS0_
dOe:_Directory_GetCurrentDirectory_m44486537
Abf:_Collection_1_System_Collections_ICollection_CopyTo_m1047946700_gshared
Tvc:__ZN9JSONWrite12AppendToNodeEPN5Unity9rapidjson12GenericValueINS1_4UTF8IcEE13JSONAllocatorEEPKcRS6_
MIc:__ZN16PhysicsManager2D20GetRigidBodyVelocityERK11Rigidbody2D
aJf:_AsnEncodedData_Default_m4197142414
Hbj:__ZN6il2cpp2os4File17GetFileAttributesERKNSt3__212basic_stringIcNS2_11char_traitsIcEENS2_9allocatorIcEEEEPi
QF:__ZNSt3__26__sortIRPFbPKN8Animator11AnimatorJobES4_EPS4_EEvT0_S9_T_
hO:__ZN17AudioCustomFilterD2Ev
Tva:__ZN18GfxFramebufferGLES18ReleaseFramebufferEP17RenderSurfaceBaseP14GfxContextGLES
$8h:_Context_GetDynamicPropertyCollection_m1987747444
nKf:_X509Certificate2_get_Version_m1927399907
edc:__ZN13ProduceHelperI6CameraLb0EE7ProduceE18MemLabelIdentifier18ObjectCreationMode
kJd:_Image_RadialCut_m3229543088
_$:__ZN19CloudServiceHandler34HandleSaveFileWebRequestPlayerLoopEv
eC:__ZN7mecanim21ValueArrayReverseCopyEPKNS_18ValueArrayConstantEPKNS_10ValueArrayES2_PS3_PKi
RN:__Z31GetParentSampleClipFromInstancePN11SoundHandle8InstanceE
W8b:__ZNK28RectTransformPropertyBinding13GetFloatValueERKN11UnityEngine9Animation10BoundCurveE
l1b:__ZN6Camera22StandaloneCustomRenderENS_10RenderFlagEP6ShaderRKN4core12basic_stringIcNS3_20StringStorageDefaultIcEEEEPNS_21PerformRenderFunctionE
Keb:__ZNSt3__26vectorI4PPtrI6ObjectE13stl_allocatorIS3_L18MemLabelIdentifier52ELi16EEE6assignINS_11__wrap_iterIPS3_EEEENS_9enable_ifIXaasr21__is_forward_iteratorIT_EE5valuesr16is_constructibleIS3_NS_15iterator_traitsISD_E9referenceEEE5valueEvE4typeESD_SD_
SIj:__ZN6il2cpp2os16ThreadLocalValue8GetValueEPPv
v5i:__ZN6il2cpp2vm13MetadataCache14GetGenericInstEPKPK10Il2CppTypej
Xld:_SHA384Managed_Initialize_m712692291
AW:__ZN13AudioListener17ReadExtensionNameEi
B7h:_ChannelInfo__ctor_m2502026239
Pb:invoke_iiidii
hp:setThrew
Uac:__ZL21BuildEmptyCubeTexturePKci11ColorRGBA3217TextureColorSpace
mIi:_Event_get_modifiers_m3267430607
Njb:__ZN14SafeBinaryRead21TransferSTLStyleArrayINSt3__26vectorIN9ShaderLab20SerializedSubProgramENS1_9allocatorIS4_EEEEEEvRT_17TransferMetaFlags
nzc:__Z15Transfer_StringI8JSONReadLb1EEvRK29SerializationCommandArgumentsR31RuntimeSerializationCommandInfo
Csa:__ZN6prcoreL17RemapGenericFloatI17TexFormatRGBFloat15TexFormatRGHalfEEvPKNS_9InnerInfoE
aVb:__Z25DoForwardShaderRenderLoopR17RenderLoopContextR13dynamic_arrayI16RenderObjectDataLj4EERK11CullResultsbbbN6Camera10RenderFlagE
que:_GameObject_GetComponent_TisRuntimeObject_m2812611596_gshared
kWc:_sfnt_load_face
UCe:_PKCS12_GetSymmetricAlgorithm_m1812022677
m1f:_UTF8Encoding_GetByteCount_m2372933408
Y8h:_Context_get_NeedsContextSink_m1907794755
bWc:_UNITY_ft_service_list_lookup
FAi:_Transform_get_localScale_m46214814
Ctf:_ARC4Managed_GenerateKey_m716135508
Ysc:__ZN5IMGUI21SelectReceivingWindowER8GUIStateb
Z_h:_InternalEnumerator_1_get_Current_m3179981210_gshared
A0:__ZN13BaseAllocator13TryDeallocateEPv
dPd:_Array_CreateInstance_m1054139389
eHi:_U3CStartU3Ec__Iterator0_Reset_m2580847683_gshared
yId:_LayoutGroup_GetAlignmentOnAxis_m1783063916
pRa:__ZNSt3__26vectorIN12FlareManager10FlareEntryENS_9allocatorIS2_EEE21__push_back_slow_pathIKS2_EEvRT_
Zbg:_Default_check_arguments_with_score_m1714931543
vhd:_SHA1_Create_m4086509717
wlg:_MonoMethodInfo_GetMethodInfo_m3298558752
JO:__ZN13AudioListener17RemoveFromManagerEv
xd:_glAttachShader
qFd:_Dropdown_SetAlpha_m2769981009
ONa:__ZNK6Camera19GetProjectionMatrixEv
TWi:_Predicate_1_BeginInvoke_m1856151290_gshared
dyj:__GLOBAL__sub_I_Thread_cpp_12319
_9d:_StackTrace__ctor_m2404985356
B7:__Z38PreallocateObjectFromPersistentManagerib
u5d:_DateTime_System_IConvertible_ToSingle_m3927769066
e0a:__ZNK9Texture2D20GetUnscaledTextureIDEv
F3d:_Convert_ToSByte_m883113940
oXi:_Canvas_get_renderOrder_m2592588836
Ace:_Exception_get_Message_m173095527
Raf:_Queue_1_Peek_m1463479953_gshared
MZi:_Animator_ResetTriggerString_m946167554
xZg:__ZL53InputField_t1631627530_CustomAttributesCacheGeneratorP21CustomAttributesCache
FIi:_GUI_set_skin_m929513544
RAd:_ButtonClickedEvent__ctor_m938038541
Pah:__Z119RuntimeInvoker_Int32_t2071877448_RuntimeObject_Int32_t2071877448_Int32_t2071877448_CharU26_t1894467670_SByte_t454417549PFvvEPK10MethodInfoPvPS4_
W6f:_UInt16_System_IConvertible_ToDouble_m4100549304_AdjustorThunk
Wgb:__Z29ClearRepeatingLogMessageStatev
xqd:_Single_System_IConvertible_ToInt16_m962677079
xca:__ZN21EnlightenSceneMappingaSERKS_
iJj:__ZNK6il2cpp8metadata21Il2CppGenericInstHashclEPK17Il2CppGenericInst
Lqd:_Single_System_IConvertible_ToUInt32_m2447833283
NBa:__ZN7ApiGLESD2Ev
JLa:__ZN9Transform47ClearTransformHierarchyAndApplyToSerializedDataEv
uZh:_InternalEnumerator_1_get_Current_m4083613828_AdjustorThunk
CAc:__ZN8JSONRead21TransferSTLStyleArrayINSt3__26vectorI8MonoPPtr13stl_allocatorIS3_L18MemLabelIdentifier1ELi16EEEEEEvRT_17TransferMetaFlags
DPa:__ZN6Camera23VirtualRedirectTransferER19StreamedBinaryWriteILb0EE
HRj:dynCall_fidi
Aej:__ZN15dense_hashtableINSt3__24pairIK10KeyWrapperINS1_IPK9FieldInfoP11Il2CppClassEEEjEES9_17ReflectionMapHashIS8_EN14dense_hash_mapIS9_jSD_NS9_14EqualsComparerINS0_8equal_toIS8_EEEENS0_9allocatorISB_EEE9SelectKeyESI_SK_E12resize_deltaEjj
FOa:__ZN15dense_hashtableINSt3__24pairIKN9ShaderLab7Program23ShaderKeywordSetAndHashEPKNS2_10SubProgramEEES4_NS3_24ShaderKeywordHashFunctorEN14dense_hash_mapIS4_S8_SA_NS0_8equal_toIS4_EE13stl_allocatorIS9_L18MemLabelIdentifier67ELi16EEE9SelectKeyESD_SG_E15insert_noresizeERKS9_
qWa:__ZN13RenderTexture12SetDimensionE16TextureDimension
me:_SDL_FreeRW
jBe:_PKCS1_OS2IP_m1273945439
xld:_SHA1Internal_FillBuff_m891541953
q8c:__Z34CanvasRenderer_Get_Custom_PropCullP12Il2CppObject
jU:__ZN20SoundChannelInstance8getDelayE14FMOD_DELAYTYPEPjS1_
pKd:_InputField_set_customCaretColor_m3534590098
lNh:_ScrollRect_set_viewport_m323693490
hKe:_NumberFormatter_FormatExponential_m3975285307
oRc:__ZNSt3__26vectorIN20TextRenderingPrivate8FontImpl13CharacterInfoE13stl_allocatorIS3_L18MemLabelIdentifier1ELi16EEE8__appendEj
v:tempBigInt
ue:_emscripten_glVertexAttrib1fv
epi:_Mesh_CheckCanAccessSubmesh_m764012688
skb:__ZNSt3__26vectorIN9ShaderLab20SerializedSubProgram12UAVParameterENS_9allocatorIS3_EEE7reserveEj
GOj:__ZSt11__terminatePFvvE
jCg:__ZL99Thread_t241561612_CustomAttributesCacheGenerator_Thread_t241561612____ExecutionContext_PropertyInfoP21CustomAttributesCache
_Q:__ZN12AudioManager14systemCallbackEP11FMOD_SYSTEM24FMOD_SYSTEM_CALLBACKTYPEPvS3_
HTi:__ZL25UnresolvedVirtualCall_195P12Il2CppObjectfPK10MethodInfo
GVa:__ZN16ReflectionProbes16UpdateSampleDataEv
U6h:_SafeHandle_Finalize_m1839546519
H9h:_Context_AllocateNamedDataSlot_m3200404053
lJf:_X509EnhancedKeyUsageExtension_Decode_m3866320499
dKe:_NumberFormatter_AppendIntegerStringWithGroupSeparator_m1401773574
Re:_JS_Sound_Play
zJd:_Image_IsRaycastLocationValid_m864962354
$6g:__Z181RuntimeInvoker_Void_t1841601450_RuntimeObject_Int32_t2071877448_Int32_t2071877448_RuntimeObject_Int32_t2071877448_Int32_t2071877448_RuntimeObject_Int32_t2071877448_Int32_t2071877448PFvvEPK10MethodInfoPvPS4_
ojb:__ZN9ShaderLab16SerializedShader8TransferI14SafeBinaryReadEEvRT_
iF:__ZN7mecanim8skeleton13SkeletonAlignEPKNS0_8SkeletonERKN4math7_float4ES7_i
Mbc:__ZN19ShaderPropertySheet16SetVectorIndexedEN9ShaderLab16FastPropertyNameEifRK8Vector4fNS_8SetFlagsE
vTf:_RemotingConfiguration_RegisterWellKnownServiceType_m2491506630
Xwg:__ZL55_TypeBuilder_t2783404358_CustomAttributesCacheGeneratorP21CustomAttributesCache
INd:_LayoutRebuilder_Initialize_m2671585490
S3e:_List_1_System_Collections_IList_IndexOf_m4061554721_gshared
H$:__ZN11UnityEngine15CloudWebService14DataDispatcher4StopEv
ukb:__ZNSt3__26vectorIN9ShaderLab20SerializedSubProgram12UAVParameterENS_9allocatorIS3_EEE8__appendEj
End:_X509Certificate_ToString_m1582581274
Xyh:_Enumerator_get_Current_m2986380627_gshared
TGa:__ZN17ScriptingGCHandle7AcquireE18ScriptingObjectPtr25ScriptingGCHandleWeakness
I8h:_LifetimeServices_set_LeaseTime_m1487876644
idg:_ConstructorBuilder_not_supported_m3687319507
f3c:__ZN13ProduceHelperIN20TextRenderingPrivate8TextMeshELb0EE7ProduceE18MemLabelIdentifier18ObjectCreationMode
m6c:__ZN2UI14CanvasRenderer14AttachToCanvasER8JobFencePNS_6CanvasENS0_15InstructionTypeE
uJc:__ZN25SyncColliderTransformData3JobEPS_jPK23TransformAccessReadOnlyPKyj
Cqd:_Single_System_IConvertible_ToInt64_m3555853323_AdjustorThunk
CQj:dynCall_iifiii
Cqa:__Z21HasAlphaTextureFormat13TextureFormat
PV:__ZN12AudioManager6UpdateEv
vqa:__ZN14ImageReference9BlitImageERKS_NS_8BlitModeE
uw:__ZN8Animator12AddToManagerEv
kKb:__ZN23CachedSerializationDataD2Ev
l0b:__ZNK25CameraStackRenderingState31CalculateStereoCameraTargetTypeEv
hVa:__ZN14RenderSettings23VirtualRedirectTransferER14SafeBinaryRead
nIc:__ZNK13b2CircleShape5CloneEP16b2BlockAllocator
Awj:__ZN6il2cpp2os10ThreadImpl15CurrentThreadIdEv
Afe:_Array_InternalArray__ICollection_Contains_TisColor32_t874517518_m2818328910_gshared
cPi:_AudioExtensionManager_WriteExtensionProperties_m4015275001
c2c:_UNITY_tt_face_load_fpgm
yLa:__Z17IsObjectAvailablei
Lbb:__ZN12InputManagerD0Ev
gHj:__ZN6il2cpp6icalls8mscorlib6System11Diagnostics10StackTrace9get_traceEP15Il2CppExceptionib
KDd:_DefaultControls_CreateUIObject_m2810394112
sPa:__ZNK16LightmapSettings14GetLightProbesEv
h0f:_UnicodeEncoding_GetBytes_m1337660232
ANj:_posix_memalign
acc:__ZN13ProduceHelperI12MeshRendererLb0EE7ProduceE18MemLabelIdentifier18ObjectCreationMode
E2h:_InternalEnumerator_1_get_Current_m747506907_AdjustorThunk
Ahi:_LogCallback_Invoke_m115567905
E7:__ZNK15MonoScriptCache7ReleaseEv
Y$i:__ZN6il2cpp2vm5Class13HasReferencesEP11Il2CppClass
eg:_glBindTexture
OLj:_snprintf
YKd:_InputField_set_caretPosition_m888572237
zgg:_ILGenerator__cctor_m3943061018
eWd:_ArrayListWrapper_Clone_m1506311066
hYi:_CanvasRenderer_CreateUIVertexStream_m2882962535
tib:__Z36scripting_liveness_calculation_begin17ScriptingClassPtriPFvPP12Il2CppObjectiPvES3_PFvvES7_
tza:__ZN16UniformCacheGLES6CreateERK20GpuProgramParameters
v1f:_UTF8Encoding_Fallback_m811555654
jJ:__ZN7mecanim12statemachine13StateConstant8TransferI24GenerateTypeTreeTransferEEvRT_
Mke:_Array_InternalArray__IndexOf_TisPlayableBinding_t2498078091_m398853908_gshared
Z_f:_Encoding_GetString_m1894033578
cnf:_ReadOnlyCollection_1_System_Collections_IList_Clear_m1918003010_gshared
uUj:_emscripten_glGetProgramInfoLog__wrapper
HAi:_Transform_set_localScale_m1442831667
QK:__ZN25AnimatedPropertyEvaluator29BindCurveToScriptingObjectPtrERKN13AnimationClip10FloatCurveEj18ScriptingObjectPtrb
z1f:_UTF8Encoding_InternalGetChars_m373801468
O8:__ZN17PersistentManager23DestroyFromFileInternalEi
j8d:_Decimal_System_IConvertible_ToChar_m2425091200_AdjustorThunk
pVb:__Z19SetupMotionMatricesR6CameraR18RPDataMotionVector
Ybe:_Enum_ToString_m2112979707
hRf:_MonoMethodMessage_get_MethodName_m3580519713
xG:__ZN26AnimatorControllerPlayable18PrepareForPlaybackERN7mecanim6memory9AllocatorE
Cid:_HMACSHA512__cctor_m1167457383
q1f:_UTF8Encoding_GetBytes_m4170182058
s3e:_List_1_IndexOf_m2418862432_gshared
ROa:__ZN22CreateGpuProgramOutputC2Ev
sQe:_MemoryStream_InternalConstructor_m2423667240
cSf:_SoapMethodAttribute_SetReflectionObject_m3431595769
NPh:_Slider_set_maxValue_m2951480075
Gcc:__ZN8GUILayer12CleanupClassEv
kMd:_InputField_OnSubmit_m2856515494
X$i:__ZN6il2cpp2vm5Class4InitEP11Il2CppClass
ha:invoke_vidi
D6c:__ZN2UI14CanvasRenderer17SyncDirtyElementsER8JobFence
BCd:_ColorBlock_op_Inequality_m1517672458
$zj:__ZN6il2cpp5utils11StringUtils15StringDuplicateEPKc
G1b:__Z15CanAddComponentR10GameObjectPKN5Unity4TypeE
gOa:__ZNK9ShaderLab21ShaderRasterStateDesc16ToGfxRasterStateEPK19ShaderPropertySheetS3_R14GfxRasterState
y1:_tlsf_memalign
QYf:_CspParameters__ctor_m2480441577
ZIj:__ZN6il2cpp2os9EventImplC2Ebb
i9h:_DynamicPropertyCollection_NotifyMessage_m840388347
Yfi:_Uri_ParseUri_m5711497
fgh:__Z98RuntimeInvoker_RuntimeObject_RuntimeObject_RayU26_t3651946800_Single_t2076509932_Int32_t2071877448PFvvEPK10MethodInfoPvPS4_
Xs:__ZNSt3__26vectorIN13AnimationClip9PPtrCurveE13stl_allocatorIS2_L18MemLabelIdentifier26ELi16EEE6resizeEj
l4:__Z20IsMatrixBuiltinParamPKcPi
tbc:__ZN8Renderer19PostInitializeClassEv
kUh:_InternalEnumerator_1_get_Current_m1943362081_AdjustorThunk
oFj:__ZN6il2cpp6icalls8mscorlib6System8Delegate23CreateDelegate_internalEP20Il2CppReflectionTypeP12Il2CppObjectP22Il2CppReflectionMethodb
Tbg:_Default_check_type_m2363631305
FJb:__ZN18DelayedCallManager18CancelCallDelayed2E4PPtrI6ObjectEPF15CallObjectStatePS1_PvES7_
MEa:__ZN25ThreadsafeLinearAllocator10ReallocateEPvji
Ntb:__Z18Transfer_BlittableI14SafeBinaryReadLb1E11QuaternionfEvRK29SerializationCommandArgumentsR31RuntimeSerializationCommandInfo
Mga:__ZN18SpriteAtlasManagerD0Ev
Oke:_Array_InternalArray__IndexOf_TisRaycastHit2D_t4063908774_m3739817942_gshared
Vlg:_MonoProperty_GetAccessors_m3704698731
REj:_GC_disable
r8a:__ZN10Matrix4x4f8TransferI14SafeBinaryReadEEvRT_
dPc:__ZN15dense_hashtableINSt3__24pairIKNS1_IPK10Collider2DS4_EEjEES5_NS2_23ColliderPairHashFunctorEN14dense_hash_mapIS5_jS8_NS0_8equal_toIS5_EE13stl_allocatorIS7_L18MemLabelIdentifier67ELi16EEE9SelectKeyESB_SE_E9copy_fromERKSH_j
JTe:_UnmanagedMemoryStream_ReadByte_m2501145010
lVf:_ObjectRecord_UnchainFixup_m3025030310
uG:__ZN14AvatarPlayback8StopTimeEv
Zaa:__Z6AppendRKN4core12basic_stringIcNS_20StringStorageDefaultIcEEEEPKc
egh:__Z81RuntimeInvoker_RuntimeObject_Ray_t2469606224_Single_t2076509932_Int32_t2071877448PFvvEPK10MethodInfoPvPS4_
rji:_Color_ToString_m55788918_AdjustorThunk
Una:__ZN7ApiGLES18ClearBufferSubDataEjN2gl12BufferTargetEll
fM:__ZN8Animator7SetBoolEib
clc:__Z37Camera_Get_Custom_PropAllCamerasCountv
g7a:__ZN14Texture2DArray8TransferI18StreamedBinaryReadILb0EEEEvRT_
cnj:__ZN6il2cpp6icalls8mscorlib6System5Array9GetLengthEP11Il2CppArrayi
wZb:__Z18ApplyOcclusionMaskR19ProbeOcclusionCacheRK17LightProbeContextRK10RenderNodeb
NPe:_FileStreamAsyncResult__ctor_m1096228032
TYc:_Split_Cubic
eb:invoke_fiiii
M7d:_DBNull_System_IConvertible_ToSByte_m1228193074
Fdf:_Collection_1__ctor_m2818834331_gshared
zeh:__Z68RuntimeInvoker_UInt16_t986882611_UInt16_t986882611_UInt16_t986882611PFvvEPK10MethodInfoPvPS4_
hFi:_UnityAction_1_Invoke_m3979091955_gshared
nPe:_FileStream_FlushBuffer_m2594140542
OAj:__ZN6il2cpp2vm8Profiler12GCHeapResizeEx
ORj:dynCall_viiifi
vva:__ZN18GfxFramebufferGLES20ActiveContextChangedEPP17RenderSurfaceBaseS2_
iva:__Z19PluginsRenderMarkeri
yL:__ZN10HumanTrait18InitializeBoneNameEv
Csj:__ZNSt3__214__split_bufferIN6il2cpp2vm5Image20EmbeddedResourceDataERNS_9allocatorIS4_EEEC2EjjS7_
oId:_HorizontalOrVerticalLayoutGroup_get_spacing_m2859152439
dwg:__ZL57DispIdAttribute_t607560947_CustomAttributesCacheGeneratorP21CustomAttributesCache
pO:__ZN12AudioManager17RemoveAudioSourceEP11AudioSource
HJi:_GUILayoutEntry_SetVertical_m861127195
OLi:_AesManaged_get_KeySize_m2773901127
Ste:_Array_InternalArray__get_Item_TisUInt64_t2909196914_m2580870875_gshared
P9b:__ZN13ProduceHelperI14SpriteRendererLb0EE7ProduceE18MemLabelIdentifier18ObjectCreationMode
BX:__ZN5physx14PxLightCpuTask12addReferenceEv
gLc:__Z10b2DistanceP16b2DistanceOutputP14b2SimplexCachePK15b2DistanceInput
p2a:__ZN21EnlightenSceneMapping8TransferI19StreamedBinaryWriteILb0EEEEvRT_
buj:__ZN6il2cpp2gc16GarbageCollector19InitializeFinalizerEv
gC:__ZN7mecanim8skeleton18CreateSkeletonMaskEjPKNS0_19SkeletonMaskElementERNS_6memory9AllocatorE
usc:__ZN10GUIManager10DoGUIEventER10InputEventb
Ezb:__Z35Transfer_Blittable_FixedBufferFieldI24GenerateTypeTreeTransferxEvRK29SerializationCommandArgumentsR31RuntimeSerializationCommandInfo
h2c:_UNITY_TT_Init_Glyph_Loading
pUb:__Z20CalculateSqrDistanceRK8Vector3fRK4AABB
CS:__Z32AudioMixerDuckingProcessCallbackP21UnityAudioEffectStatePfS1_jii
Gcg:_CustomAttributeTypedArgument_GetHashCode_m999147081_AdjustorThunk
xac:__ZN26CustomRenderTextureManagerD2Ev
wPe:_FileStream_Read_m3880951166
JPi:_AudioExtensionManager_Update_m3727859914
fP:__ZN12AudioManager8TransferI24GenerateTypeTreeTransferEEvRT_
Epa:__Z25GetBytesFromTextureFormat13TextureFormat
Wnj:__ZN6il2cpp6icalls8mscorlib6System9Threading6Thread20Thread_free_internalEP12Il2CppThreadi
OPj:dynCall_iiffi
JK:__ZN16MecanimAnimation25RegisterIAnimationBindingEPKN5Unity4TypeEiP17IAnimationBinding
D8:__Z32scripting_class_get_assemblyname17ScriptingClassPtr
uad:__ZN11UnityEngine15PlatformWrapper15GetVRDeviceNameEv
kBh:_Dictionary_2_Resize_m2532139610_gshared
zoi:_Mathf_RoundToInt_m1833913145
C4f:_TimeSpan_Equals_m2029123271_AdjustorThunk
U5i:__ZN6il2cpp2vm13MetadataCache23GetInvokerMethodPointerEPK10MethodInfoPK20Il2CppGenericContext
OAa:__ZN9GfxDevice21RegisterNativeTextureE9TextureIDi16TextureDimension
Ode:_CultureInfo__ctor_m456863818
wGj:__ZN6il2cpp6icalls8mscorlib6System10Reflection4Emit11TypeBuilder20create_generic_classEP27Il2CppReflectionTypeBuilder
g_e:_Enumerator_MoveNext_m2504790928_gshared
gX:__Z60Register_UnityEngine_AudioListener_GetNumExtensionPropertiesv
Xi:_emscripten_glUniformMatrix4fv
flj:__ZN15dense_hashtableINSt3__24pairIK10KeyWrapperINS1_IP11Il2CppClassjEEES4_EES6_N6il2cpp8metadata14ArrayClassHashEN14dense_hash_mapIS6_S4_SB_NS6_14EqualsComparerINSA_17ArrayClassCompareEEENS0_9allocatorIS8_EEE9SelectKeyESF_SH_E13set_empty_keyERKS8_
Gob:__ZN12ScriptMapperD2Ev
fid:_KeyedHashAlgorithm_Dispose_m1864300576
Dri:_X509Certificate_PEM_m49854707
oJf:_X509BasicConstraintsExtension__ctor_m3320418592
Nqi:_ExtendedKeyUsageExtension_Decode_m901297139
Xpc:__Z52Register_UnityEngine_RenderTexture_Internal_GetWidthv
BDj:_GC_check_leaked
Ymb:__ZN9ShaderLab20SerializedSubProgram16TextureParameter8TransferI19StreamedBinaryWriteILb0EEEEvRT_
Aoe:_Array_InternalArray__Insert_TisVector4_t2243707581_m1643342708_gshared
VDa:__ZNK7Hash12812PackToUInt32Ev
d3c:__ZZN20TextRenderingPrivate8TextMesh15InitializeClassEvEN31FunctorImpl_299kDidAddComponent4CallEPviR11MessageData
saa:__ZNSt3__227__insertion_sort_incompleteIRNS_6__lessI14ObjectLoadDataS2_EEPS2_EEbT0_S6_T_
P$:__ZN11UnityEngine15CloudWebService16SessionContainer8AddEventEPNS0_14CloudEventInfoE
vza:__Z4TrimRKN4core12basic_stringIcNS_20StringStorageDefaultIcEEEES5_
VQh:_Text_set_resizeTextMaxSize_m4034967714
Yqg:__ZL55GuidAttribute_t222072359_CustomAttributesCacheGeneratorP21CustomAttributesCache
rcg:_CustomAttributeNamedArgument_Equals_m2691468532
F5a:__ZN10VertexData8TransferI14SafeBinaryReadEEvRT_
uQ:__ZN4FMOD8ChannelI8setDelayE14FMOD_DELAYTYPEjj
f$d:_Stack__ctor_m2410583781
vEj:_GC_malloc_atomic
Rbg:_Default_GetBetterMethod_m4255740863
tdg:_ConstructorBuilder_GetILGenerator_m1731893569
Esj:__ZNSt3__214__split_bufferIN6il2cpp2vm5Image20EmbeddedResourceDataERNS_9allocatorIS4_EEED2Ev
E6:__ZL20SortItemByInstanceIDRKN18AwakeFromLoadQueue4ItemES2_
xig:_TypeBuilder_create_runtime_class_m2719530260
Bkd:_RNGCryptoServiceProvider_RngClose_m2921734810
sC:__ZNK34AnimationStateMachineMixerPlayable26GetInterruptedPosePlayableEv
qdd:__ZN20UnityConnectSettings8TransferI24GenerateTypeTreeTransferEEvRT_
LE:__ZN34BlobWriteTransferSTLStyleArrayImplI22OffsetPtrArrayTransferIbEEclERS1_17TransferMetaFlagsR9BlobWrite
Jve:_SimpleCollator_IsHalfKana_m4255579023
Dbf:_Collection_1_System_Collections_IList_Contains_m3365884450_gshared
bIa:__Z16FlaggedAsSkippedIN4core12basic_stringIcNS0_20StringStorageDefaultIcEEEEEbRK13FileEntryInfoRKT_19FileEnumerationFlag
mca:__ZL31InitializeRendererUpdateManagerPv
Sch:__Z106RuntimeInvoker_RuntimeObject_Int16_t4041245914_RuntimeObject_BooleanU26_t3168250738_BooleanU26_t3168250738PFvvEPK10MethodInfoPvPS4_
Ayf:_ClientSessionInfo_Dispose_m2571428025
uNd:_LayoutGroup_DelayedSetDirty_m4276695617
MBf:_RecordProtocol_decryptRecordFragment_m2510859489
kEi:_InvokableCall_1__ctor_m975753341_gshared
Bcb:__ZN11TimeManager8TransferI19StreamedBinaryWriteILb0EEEEvRT_
cQe:_DelegatePInvokeWrapper_ReadDelegate_t3184826381
OZc:_compare_uni_maps
fbd:__ZN11UnityEngine15PlatformWrapper27GetGraphicsCapsSupportFlagsEv
a9d:_Decimal_Equals_m1115043331
fDb:__ZN12NativeBufferI16Converter_StringE15SetupForWritingER9ArrayInfo
xTj:___cxa_end_catch__wrapper
jAh:_ValueCollection_System_Collections_Generic_ICollectionU3CTValueU3E_Clear_m231380274_gshared
vwd:_Entry__ctor_m1176697586
nKb:__ZN13MonoBehaviour22DoScriptRebuildWarningEv
elc:__Z38Camera_CUSTOM_INTERNAL_CALL_RaycastTryP12Il2CppObjectRK3Rayfi
cRh:_Text_get_verticalOverflow_m3134063496
Ymj:__ZN6il2cpp6icalls8mscorlib6System5Array13ClearInternalEP11Il2CppArrayii
n6h:_GCHandle_get_Target_m2327042781
nPj:_llvm_cttz_i32
JJf:_PublicKey_DecodeDSA_m1169363495
xtc:__ZN11IMGUIModule25GetGUIStyleScriptingClassEv
G0c:_tt_get_interface
Nqe:_Array_Sort_TisRuntimeObject_m143182644_gshared
Hnj:__ZN6il2cpp5utils9PathUtils7CombineIcEENSt3__212basic_stringIT_NS3_11char_traitsIS5_EENS3_9allocatorIS5_EEEERKSA_SC_
WFf:_NameObjectCollectionBase_BaseGet_m667273025
M9g:__Z104RuntimeInvoker_RuntimeObject_Byte_t3683104436_RuntimeObject_SByte_t454417549_RuntimeObject_RuntimeObjectPFvvEPK10MethodInfoPvPS4_
czc:__ZN9JSONWrite8TransferI13dynamic_arrayIiLj4EEEEvRT_PKc17TransferMetaFlags
iec:__ZN13PlayableGraph21InvalidateMultithreadEv
I5:__Z18ConvertUTF16toUTF8PPKtS0_PPhS2_15ConversionFlags
AKi:_GUIStyleState__ctor_m3673085649
S5f:_TypeLoadException__ctor_m1903359728
HYi:__ZL16my_g_bit_nth_msfj
ehd:_KeySizes__ctor_m3526899007
AIe:_Int16_System_IConvertible_ToInt32_m191782913_AdjustorThunk
aPg:__ZL69ArgumentCache_t4810721_CustomAttributesCacheGenerator_m_FloatArgumentP21CustomAttributesCache
SZf:_EncoderReplacementFallback__ctor_m2208438262
ASb:__Z23SetupStereoFlareElementP11FlareVertexRK8Vector2fS3_S3_RK11ColorRGBA32RK10Matrix4x4fRK8Vector3fb
ta:invoke_iiiifiiii
oxi:_RectTransform_set_anchoredPosition_m4223859262
oOe:_Directory_GetFiles_m4036267478
ube:_Enum_System_IConvertible_ToType_m2669300536
Zva:__ZL19BlitFramebufferImplRN4gles23BlitFramebufferDrawQuadER9GfxDevice9TextureIDRK8Vector4f
afj:__ZN15dense_hashtableINSt3__24pairIK10KeyWrapperIPK10Il2CppTypeEjEES6_N6il2cpp8metadata14Il2CppTypeHashEN14dense_hash_mapIS6_jSB_NS6_14EqualsComparerINSA_26Il2CppTypeEqualityComparerEEENS0_9allocatorIS8_EEE9SelectKeyESF_SH_E4findERS7_
rzi:_StackTraceUtility_ExtractStringFromExceptionInternal_m234524721
tlf:_ReadOnlyCollection_1_System_Collections_IList_Add_m2333231354_gshared
fTc:_UNITY_FT_List_Add
Shg:_OpCodes__cctor_m939885911
Wac:__ZN14Texture2DArray11InitTextureEiii13TextureFormatb
ehi:_UriParser_InitializeAndValidate_m251943319
Omd:_SymmetricAlgorithm_set_Padding_m3081984460
Tjj:__ZN15dense_hashtableINSt3__24pairIK10KeyWrapperINS1_IPK11Il2CppImageP11Il2CppClassEEEjEES9_17ReflectionMapHashIS8_EN14dense_hash_mapIS9_jSD_NS9_14EqualsComparerINS0_8equal_toIS8_EEEENS0_9allocatorISB_EEE9SelectKeyESI_SK_E14squash_deletedEv
kcb:__ZN9InputAxis8TransferI18StreamedBinaryReadILb0EEEEvRT_
FWb:__ZNK6Camera26GetStereoSingleCullEnabledEv
OWf:_StreamingContext_t1417235061_marshal_pinvoke_back
Dfb:__Z14resize_trimmedINSt3__26vectorIN4core12basic_stringIcNS2_20StringStorageDefaultIcEEEE13stl_allocatorIS6_L18MemLabelIdentifier13ELi16EEEEEvRT_j
rVd:_ArrayList_RemoveAt_m2578928333
vub:__Z18Transfer_BlittableI14SafeBinaryReadLb0EaEvRK29SerializationCommandArgumentsR31RuntimeSerializationCommandInfo
IEi:_InvokableCall_3__ctor_m4270240248_gshared
zkf:_ReadOnlyCollection_1_System_Collections_IList_set_Item_m1233322304_gshared
Uqi:_GeneralNames_get_DNSNames_m2721668874
kbe:_Enum_System_IConvertible_ToByte_m38374586
hkf:_ReadOnlyCollection_1_System_Collections_Generic_IListU3CTU3E_RemoveAt_m1592158292_gshared
ISj:_emscripten_glFrustum__wrapper
cCf:_ReceiveRecordAsyncResult_get_CompletedWithError_m2670396551
N8d:_Decimal_Equals_m1798565377
emb:__ZN15SerializeTraitsINSt3__26vectorIN9ShaderLab20SerializedSubProgram15MatrixParameterENS0_9allocatorIS4_EEEEE8TransferI24GenerateTypeTreeTransferEEvRS7_RT_
Feg:_TypeBuilder_check_created_m2929267877
Ev:__ZN19StreamedBinaryWriteILb0EE8TransferIKN4math7_float3EEEvRT_PKc17TransferMetaFlags
MQb:__Z20SyncFenceCullResultsR11CullResults
jya:__ZN15TextureTFMethod20IsBoneCountSupportedEi
gVa:__ZN14RenderSettings23VirtualRedirectTransferER24GenerateTypeTreeTransfer
t5d:_DateTime_System_IConvertible_ToSByte_m2575078084_AdjustorThunk
Pyb:__Z22TransferField_NonArrayI17RemapPPtrTransfer27Converter_SimpleNativeClassI8GUIStyleEEvRK23StaticTransferFieldInfoR31RuntimeSerializationCommandInfoRT0_
o9b:__ZNK17AnimationCurveTplIfE20EvaluateWithoutCacheEfRf
syj:__ZN6il2cpp2os6Thread12QueueUserAPCEPFvPvES2_
xVa:__ZN19ShaderPropertySheet10SetTextureERK23FastTexturePropertyNameP7Texture
lef:_Collection_1_IsValidItem_m1304951912_gshared
igc:__ZN4Mesh10SetNormalsEPK8Vector3fj
KPc:__Z66Register_UnityEngine_Physics2D_INTERNAL_CALL_GetRayIntersectionAllv
H1d:_Convert_ToDateTime_m4161927553
Leg:_TypeBuilder_GetConstructors_m774120094
Szj:__ZNSt3__212basic_stringIDsNS_11char_traitsIDsEENS_9allocatorIDsEEE9__grow_byEjjjjjj
et:__ZN17AnimationCurveTplIfE8TransferI14SafeBinaryReadEEvRT_
P3b:__Z29StdTemplateConversionFunctionIybEbPvR14SafeBinaryRead
e4a:__ZNSt3__26vectorIN15QualitySettings14QualitySettingENS_9allocatorIS2_EEE6assignIPS2_EENS_9enable_ifIXaasr21__is_forward_iteratorIT_EE5valuesr16is_constructibleIS2_NS_15iterator_traitsIS9_E9referenceEEE5valueEvE4typeES9_S9_
pRb:__ZNK19ShaderPropertySheet11HasPropertyERKN9ShaderLab16FastPropertyNameE
e5d:_DateTime_System_IConvertible_ToByte_m2670443498_AdjustorThunk
usf:_BigInteger_op_Addition_m1734797151
t6a:__ZN15dense_hashtableINSt3__24pairIKN4core12basic_stringIcNS2_20StringStorageDefaultIcEEEE13dynamic_arrayI4PPtrI6SpriteELj4EEEES6_20StringHash32FunctionIS6_EN14dense_hash_mapIS6_SC_SF_NS0_8equal_toIS6_EE13stl_allocatorISD_L18MemLabelIdentifier81ELi16EEE9SelectKeyESI_SL_E4findERS7_
efg:_EnumBuilder_CreateNotSupportedException_m62763134
afd:__ZNK12HeaderHelper3GetERKN4core12basic_stringIcNS0_20StringStorageDefaultIcEEEE
TKf:_X509Chain_CheckRevocation_m2480313486
eUe:_Math_Log_m3371716878
bcb:__ZN9InputAxis8TransferI14SafeBinaryReadEEvRT_
T6:__ZNK21ExecutionOrderManager30GetCustomAwakeFromLoadQueueForEPKN5Unity4TypeE
Ced:__Z27RegisterModule_UnityConnectv
XYd:_Hashtable__ctor_m4280223555
tmg:_ParameterInfo_get_IsRetval_m1881464570
WSf:_RealProxy__ctor_m3041043303
xJe:_NumberFormatter_Init_m2654758994
pid:_HMACSHA1__ctor_m1168389339
NNc:__ZNK17Physics2DSettings22GetTypeVirtualInternalEv
hVj:_glBindRenderbuffer__wrapper
OR:__ZN10ObjectPoolIN4FMOD12ChannelGroupENS0_13ChannelGroupIEE7SetSizeEi
Cye:_PrimalityTest_BeginInvoke_m966469054
Bii:_Bounds_get_max_m1939845278_AdjustorThunk
wnf:_ReadOnlyCollection_1_System_Collections_Generic_ICollectionU3CTU3E_Clear_m1785953911_gshared
O8f:_UInt64_System_IConvertible_ToInt16_m2797150165_AdjustorThunk
Cte:_Array_InternalArray__get_Item_TisLabelData_t3712112744_m863115768_gshared
lLe:_Int32_Parse_m753946802
O6b:__ZN9Polygon2D7SetPathEiRK13dynamic_arrayI8Vector2fLj4EE
QPi:_AudioConfigurationChangeHandler_Invoke_m653824108
k8e:_List_1_RemoveAt_m2331128844_gshared
Zjj:__ZN14dense_hash_mapI10KeyWrapperINSt3__24pairIPK9EventInfoP11Il2CppClassEEEj17ReflectionMapHashIS8_ENS9_14EqualsComparerINS1_8equal_toIS8_EEEENS1_9allocatorINS2_IKS9_jEEEEE15set_deleted_keyERSH_
Vig:_UnmanagedMarshal_ToMarshalAsAttribute_m3695569337
fwb:__Z14resize_trimmedINSt3__26vectorI17AnimationCurveTplIfE13stl_allocatorIS3_L18MemLabelIdentifier1ELi16EEEEEvRT_j
j0b:__ZN25CameraStackRenderingState19SetupLastEyeCamerasERK11CameraStack
cKa:__Z12GUIDToStringRK9UnityGUID
ON:__ZN11SoundHandleC2ERKS_
iB:__ZN17AnimationPlayableC2E18DirectorPlayerType
c5i:__ZNK6il2cpp5utils11collections13ArrayValueMapIPK10Il2CppType17Il2CppInteropData26InteropDataToTypeConverterNS_8metadata14Il2CppTypeLessENS8_26Il2CppTypeEqualityComparerEE10find_firstERKS5_
$Sa:__ZN15SerializeTraitsI12fixed_bitsetILi24EjEE8TransferI18StreamedBinaryReadILb0EEEEvRS1_RT_
hye:_BigInteger_op_Addition_m1196561843
RXi:_CanvasRenderer_INTERNAL_CALL_GetColor_m3192682614
O8h:_FormatterData__ctor_m3974986124
Njd:_RijndaelManagedTransform_get_CanReuseTransform_m3735256596
tYd:_Comparer__cctor_m1327316974
jOe:_MonoIO_ExistsFile_m1421941572
S6d:_DateTime_op_GreaterThanOrEqual_m3818963848
jz:__ZN17AnimationPlayable18DeallocateBindingsEv
S1b:__ZN6Camera25StandaloneRenderToCubemapEP7TextureiPFvPK9SceneNodePK4AABBR9IndexListPvESA_j
NDd:_DefaultControls_SetDefaultTextValues_m1707718380
Ozd:_TouchInputModule_UseFakeInput_m2112019004
Nvd:_EventSystem_get_baseEventDataCache_m4294741599
lVa:__ZN14RenderSettings18TransferDeprecatedI14SafeBinaryReadEEvRT_
Vvi:_Rect_get_center_m2903917731_AdjustorThunk
V2:__ZN12TLSAllocatorI14StackAllocatorE8AllocateEji
T7:__ZN16ScriptingManager18GetMonoScriptCacheEi
z5g:__Z62RuntimeInvoker_Void_t1841601450_RuntimeObject_Int64_t909078037PFvvEPK10MethodInfoPvPS4_
r1i:__ZN15dense_hashtableINSt3__24pairIK10KeyWrapperIPK11Il2CppClassEPKcEES6_N6il2cpp5utils11PointerHashIS3_EEN14dense_hash_mapIS6_S9_SE_NS6_14EqualsComparerINS0_8equal_toIS5_EEEENS0_9allocatorISA_EEE9SelectKeyESJ_SL_E15set_deleted_keyERKSA_
UHd:_GridLayoutGroup_CalculateLayoutInputHorizontal_m2355123124
Cub:__Z18Transfer_BlittableI14SafeBinaryReadLb1EyEvRK29SerializationCommandArgumentsR31RuntimeSerializationCommandInfo
_vc:__ZN8JSONRead8TransferIfEEvRT_PKc17TransferMetaFlagsb
Jnb:__ZN9ShaderLab7Program22ComputeSupportsShadowsEv
_Nj:__ZNSt3__212basic_stringIcNS_11char_traitsIcEENS_9allocatorIcEEE6appendEPKcj
nug:__ZL54TypeBuilder_t3308873219_CustomAttributesCacheGeneratorP21CustomAttributesCache
Rsa:__ZN6prcoreL17RemapGenericFloatI18TexFormatARGBFloat17TexFormatRGBAHalfEEvPKNS_9InnerInfoE
_ef:_Collection_1_CheckWritable_m691269733_gshared
kT:__ZN11AudioSource21ApplyCachedParametersE12SoundChannel
Ifg:_GenericTypeParameterBuilder_GetAttributeFlagsImpl_m3338182267
ZX:__ZN13Simd4iFactoryIN6detail9FourTupleEEC2Eiiii
BSe:_SynchronizedReader__ctor_m1408327515
Zti:_X509Store_LoadCrl_m1146720614
opf:_ReadOnlyCollection_1_System_Collections_IList_Clear_m1858417639_gshared
BFi:_UnityAction_3_Invoke_m1025098032_gshared
T1a:__ZN15SerializeTraitsI33EnlightenTerrainChunksInformationE8TransferI14SafeBinaryReadEEvRS0_RT_
vJc:__ZN6b2Body12SetTransformERK6b2Vec2f
Jbc:__ZNK32RendererMaterialAnimationBinding9BindValueER6ObjectRKN11UnityEngine9Animation14GenericBindingERNS3_10BoundCurveE
s_a:__Z13GetIAnimationv
_qa:__ZL18stbir__support_onef
_1e:_List_1_System_Collections_IList_Remove_m2040310137_gshared
Fii:_Bounds_SetMinMax_m2094075031_AdjustorThunk
Lxc:__Z26Transfer_UnityEngineObjectI9JSONWriteLb0EEvRK29SerializationCommandArgumentsR31RuntimeSerializationCommandInfo
OYa:__ZNSt3__26vectorIN4core12basic_stringIcNS1_20StringStorageDefaultIcEEEE13stl_allocatorIS5_L18MemLabelIdentifier1ELi16EEE6assignINS_11__wrap_iterIPS5_EEEENS_9enable_ifIXaasr21__is_forward_iteratorIT_EE5valuesr16is_constructibleIS5_NS_15iterator_traitsISF_E9referenceEEE5valueEvE4typeESF_SF_
V7f:_UInt32_System_IConvertible_ToInt16_m2251335934_AdjustorThunk
M5c:__ZNSt3__27__sort5IRNS_6__lessIN2UI14DepthSortEntryES3_EEPS3_EEjT0_S7_S7_S7_S7_T_
SQd:_Boolean_System_IConvertible_ToType_m3990189691
Ca:invoke_vdd
Ufa:__ZN14dense_hash_mapIN4core12basic_stringIcNS0_20StringStorageDefaultIcEEEE13dynamic_arrayI4PPtrI6SpriteELj4EE20StringHash32FunctionIS4_ENSt3__28equal_toIS4_EE13stl_allocatorINSC_4pairIKS4_S9_EEL18MemLabelIdentifier81ELi16EEE15set_deleted_keyERSH_
Kae:_Double_System_IConvertible_ToUInt32_m624993430
_9b:__ZNK30SpriteRendererAnimationBinding12GetPPtrValueERKN11UnityEngine9Animation10BoundCurveE
l3c:__ZZ29InitializeTextRenderingModulevEN27cleanupAfterLoadRegistrator7ForwardEv
y3f:_Scheduler_Add_m376749205
IA:__ZN27AnimationLayerMixerPlayable24ProcessAnimationLayerMixEP33AnimationPlayableEvaluationOutputP35AnimationPlayableEvaluationConstantP32AnimationPlayableEvaluationInputS1_if
W$b:__Z29PluginsIssueRenderingExtEvent26UnityRenderingExtEventTypePv
X6i:_WebRequestUtils_RedirectTo_m675215376
Kac:__Z14RandomRotationP9Texture2DPhiiii
Sve:_SimpleCollator_IsIgnorable_m2485013022
N5e:_List_1_System_Collections_IList_Insert_m2036969360_gshared
uLd:_InputField_GetUnclampedCharacterLineFromPosition_m1912794077
o7d:_DateTimeOffset_ToString_m2121173678_AdjustorThunk
rdh:__Z74RuntimeInvoker_RuntimeObject_RuntimeObject_Int16_t4041245914_RuntimeObjectPFvvEPK10MethodInfoPvPS4_
jj:_JS_WebRequest_SetResponseHandler
MYj:_glDeleteProgram__wrapper
llc:__Z50Register_UnityEngine_Camera_INTERNAL_get_pixelRectv
hsa:__ZN6prcoreL18BlitFloatToIntegerERK14ImageReferenceRS0_
aEe:_X509CertificateCollection_get_Item_m410866272
i$:__ZN11UnityEngine15CloudWebService14RestDownloader17OnCompleteContentEv
mId:_LayoutGroup_SetChildAlongAxis_m1615929339
vdh:__Z75RuntimeInvoker_RuntimeObject_RuntimeObject_Double_t4078015681_RuntimeObjectPFvvEPK10MethodInfoPvPS4_
Jch:__Z200RuntimeInvoker_Boolean_t3825574718_RuntimeObject_RuntimeObject_RuntimeObject_Int32_t2071877448_DateTimeU26_t3448131235_SByte_t454417549_BooleanU26_t3168250738_SByte_t454417549_ExceptionU26_t1467204777PFvvEPK10MethodInfoPvPS4_
Sa:invoke_viffi
EC:__ZN17AnimationPlayable28UpdateInternalStateRecursiveILi1ELb0EEEvPK35AnimationPlayableEvaluationConstant
ouj:__ZN6il2cpp2gcL10CleanupCCWEPvS1_
Va:invoke_vifff
Enc:__Z53Register_UnityEngine_Input_INTERNAL_get_mousePositionv
yXj:_glGetVertexAttribiv__wrapper
Qe:_emscripten_request_fullscreen
jLb:__ZN20LocalFileSystemWebGL6DeleteER13FileEntryDatab
z8d:_Decimal_System_IConvertible_ToUInt16_m1621568250
Se:_emscripten_glDisableVertexAttribArray
Wm:FUNCTION_TABLE_iiiifiiii
s4f:_TimeSpan_get_TotalMinutes_m1645177229_AdjustorThunk
nc:invoke_fifffi
Doa:__ZN4gles23ClearCurrentFramebufferEP7ApiGLESbbbRK10ColorRGBAffi
cB:__ZN7mecanim12statemachine20CreateStateWorkspaceEjjjRNS_6memory9AllocatorE
SUh:_InternalEnumerator_1_System_Collections_IEnumerator_get_Current_m3680087284_gshared
bf:_emscripten_glDeleteObjectARB
Yf:_IMG_Load
rTe:_UnexceptionalStreamReader_Read_m3839775235
yni:_Input_get_compositionCursorPos_m1028058884
Ypc:__Z53Register_UnityEngine_RenderTexture_Internal_GetHeightv
wue:_Dropdown_GetOrAddComponent_TisRuntimeObject_m2875934266_gshared
ita:__ZN6prcoreL17RemapGenericFloatI17TexFormatRGBAHalf18TexFormatARGBFloatEEvPKNS_9InnerInfoE
qbe:_Enum_System_IConvertible_ToInt32_m2459904362
ydh:__Z61RuntimeInvoker_RuntimeObject_Double_t4078015681_RuntimeObjectPFvvEPK10MethodInfoPvPS4_
YLc:__ZNSt3__27__sort4IRN18Overlap2DQueryBase29ColliderHitsByDepthComparitorEPP10Collider2DEEjT0_S7_S7_S7_T_
ntc:__Z14GetBuiltinSkini
tvf:_ContentInfo__ctor_m3871771681
Jud:_BaseInput_set_compositionCursorPos_m2632248731
WNi:_Enumerator_System_Collections_IEnumerator_Reset_m2573763156_gshared
lqh:__Z74RuntimeInvoker_Void_t1841601450_Int32_t2071877448_MonoResource_t3127387157PFvvEPK10MethodInfoPvPS4_
ZNe:_DirectoryInfo_Initialize_m2216118894
qpd:_WindowsIdentity_Dispose_m2649088337
rpb:__ZN2UI13RectTransform23VirtualRedirectTransferER14SafeBinaryRead
Dlb:__ZNSt3__26vectorIN9ShaderLab20SerializedSubProgramENS_9allocatorIS2_EEE6assignIPS2_EENS_9enable_ifIXaasr21__is_forward_iteratorIT_EE5valuesr16is_constructibleIS2_NS_15iterator_traitsIS9_E9referenceEEE5valueEvE4typeES9_S9_
Xzc:__Z18Transfer_BlittableI8JSONReadLb0E8BitFieldEvRK29SerializationCommandArgumentsR31RuntimeSerializationCommandInfo
cUf:_SoapServices_RegisterInteropXmlType_m2949236705
zEb:__ZL17Transfer_GUIStyleI18StreamedBinaryReadILb1EELb0EEvRK29SerializationCommandArgumentsR31RuntimeSerializationCommandInfo
utd:_String_CharCopy_m2550399897
Cfh:__Z234RuntimeInvoker_RuntimeObject_Int16_t4041245914_RuntimeObject_Int32_t2071877448_Int32_t2071877448_Int32_t2071877448_SByte_t454417549_SByte_t454417549_SByte_t454417549_SByte_t454417549_Int16_t4041245914_SByte_t454417549_SByte_t454417549PFvvEPK10MethodInfoPvPS4_
Jjb:__ZN9ShaderLab14SerializedPass8TransferI14SafeBinaryReadEEvRT_
fuc:__Z71Register_UnityEngine_GUILayoutUtility_INTERNAL_CALL_Internal_MoveWindowv
TV:__ZN12AudioManager16SetListenerPauseEb
vGc:__ZNSt3__26__sortIRN10ClipperLib12LocMinSorterEPNS1_12LocalMinimumEEEvT0_S6_T_
Hoj:__ZN6il2cpp2vm9Exception25RaiseOutOfMemoryExceptionERKNS_5utils10StringViewIDsEE
Adf:_Collection_1_IsValidItem_m2254106115_gshared
Ueg:_TypeBuilder_GetEvent_m3876348075
jQh:_Slider_OnMove_m641164662
ea:invoke_viiiiiiiiiii
zKj:___syscall_ret
B3f:_Scheduler__ctor_m3716265742
fBe:_MACAlgorithm_Final_m4076939925
T6b:__ZN14qsort_internal30FindAndMovePivotToLastPositionIP8Vector2fi26PointDistanceSortPredicateEEvT_S4_T0_T1_
j6a:__ZN11ChannelInfo8TransferI19StreamedBinaryWriteILb0EEEEvRT_
yUh:_InternalEnumerator_1_System_Collections_IEnumerator_get_Current_m3583252352_gshared
uqi:_Object_op_Implicit_m1757773010
veg:_EnumBuilder_get_FullName_m2818393911
Asf:_BigInteger_op_RightShift_m852685747
smc:__Z34Register_UnityEngine_Gradient_Initv
kvd:_BaseInputModule_GetAxisEventData_m3903709281
Tte:_Array_InternalArray__get_Item_TisUriScheme_t1876590943_m1821482697_gshared
xrf:_BigInteger__ctor_m3239748086
e5a:__ZN13ScreenManager23SetIsOrientationEnabledE18EnabledOrientationb
Iyi:_HitInfo_SendMessage_m3395411273
OA:__ZN7mecanim5human25HumanPoseAddOverrideLayerERNS0_9HumanPoseERKS1_fRKNS_6bitsetILj70EEE
i9b:__ZN13ProduceHelperI9TransformLb0EE7ProduceE18MemLabelIdentifier18ObjectCreationMode
fme:_Array_InternalArray__ICollection_Add_TisHitInfo_t1761367055_m2956071622_gshared
fLa:__ZN10GameObject23VirtualRedirectTransferER18StreamedBinaryReadILb0EE
tg:_glFrontFace
$Vf:_ObjectRecord_get_IsUnsolvedObjectReference_m2202692850
uNf:_FactoryCache_Cleanup_m4130035987
Lxi:_Vector2_op_Addition_m4229571528
h8b:__ZN13ProduceHelperI19LowerResBlitTextureLb0EE7ProduceE18MemLabelIdentifier18ObjectCreationMode
qYb:__ZNSt3__26vectorI16ShadowCasterData13stl_allocatorIS1_L18MemLabelIdentifier2ELi16EEE21__push_back_slow_pathIKS1_EEvRT_
x8f:_UInt32_ToString_m1783596809
uVj:_glUniform1i__wrapper
U3c:__Z51Register_UnityEngine_TextGenerator_GetLinesInternalv
pOi:_HashSet_1_Init_m1258286688_gshared
zlf:_ReadOnlyCollection_1_System_Collections_IList_RemoveAt_m525136953_gshared
zsa:__ZN6prcoreL17RemapGenericFloatI17TexFormatRGBFloat18TexFormatRGBAFloatEEvPKNS_9InnerInfoE
C8f:_UInt64_System_IConvertible_ToBoolean_m3012279573_AdjustorThunk
r6f:_Type_get_IsGenericTypeDefinition_m2147901038
ued:__ZN20UnityConnectSettings10InitializeEv
JFe:_GregorianCalendar__ctor_m3794576475
s8f:_UInt32_TryParse_m4283512434
nAi:_TrackedReference_GetHashCode_m1278837032
RIc:__ZN16PhysicsManager2D12BeginContactEP9b2Contact
FN:__ZN9AudioClip11CreateSoundEv
Fwh:_ShimEnumerator_MoveNext_m3313047792_gshared
Z4f:_TimeSpan_op_Inequality_m257547441
lkj:__ZN14dense_hash_mapI10KeyWrapperINSt3__24pairIPK9FieldInfoP11Il2CppClassEEEj17ReflectionMapHashIS8_ENS9_14EqualsComparerINS1_8equal_toIS8_EEEENS1_9allocatorINS2_IKS9_jEEEEEC2EjRKSB_RKSF_
Nfj:__ZNK15dense_hashtableINSt3__24pairIK10KeyWrapperINS1_IPK10MethodInfoP11Il2CppClassEEEjEES9_17ReflectionMapHashIS8_EN14dense_hash_mapIS9_jSD_NS9_14EqualsComparerINS0_8equal_toIS8_EEEENS0_9allocatorISB_EEE9SelectKeyESI_SK_E13find_positionERSA_
$ka:__ZN13GfxDeviceGLES20CreateComputeProgramEPKhj
z1d:_DateTimeFormatInfo_get_RoundtripPattern_m562440017
Pdd:__ZN11UnityEngine7Connect16PersistentValues13RestoreValuesER8JSONRead
xIa:__ZN20ArchiveStorageReader31TryToReadDirectoryFromBlockDataEyPKvj
pae:_Double_System_IConvertible_ToByte_m3004284950_AdjustorThunk
Xqj:__ZN6il2cpp2vmL11GetIdentityEP14Il2CppIUnknown
kDj:_GC_push_gc_structures
c9i:__ZN6il2cpp6icalls8mscorlib6SystemL8IsPublicEPK9EventInfo
$_d:_Enumerator_get_Current_m1271212567
wAj:__ZThn4_N6il2cpp2vm13ComObjectBase18ReleaseMarshalDataEP13Il2CppIStream
lt:__ZNSt3__26vectorIN13AnimationClip10FloatCurveE13stl_allocatorIS2_L18MemLabelIdentifier26ELi16EEE6resizeEj
FPc:__Z41Rigidbody2D_CUSTOM_INTERNAL_CALL_AddForceP12Il2CppObjectRK13Vector2fIcallN11Rigidbody2D9ForceModeE
nHf:_IPAddress_ParseIPV6_m2209709575
PMh:_U3CClickRepeatU3Ec__Iterator0_MoveNext_m1747924386
jrf:_Comparison_1_Invoke_m1670081898_gshared
ERh:_Toggle_set_group_m3833595685
ONd:_LayoutRebuilder_ForceRebuildLayoutImmediate_m566681977
C6a:__ZNSt3__213__stable_sortIRNS_4lessI4PPtrI11SpriteAtlasEEENS_11__wrap_iterIPS4_EEEEvT0_SA_T_NS_15iterator_traitsISA_E15difference_typeEPNSD_10value_typeEi
ome:_Array_InternalArray__ICollection_Add_TisVector4_t2243707581_m698578249_gshared
Zui:_PropertyName_ToString_m1129982609_AdjustorThunk
L3:__ZN8keywords6CreateEPKc
S:Math_imul
Gab:__ZN14SpriteRenderer15SetupPropertiesEv
s4a:__ZN11PlayerPrefs6GetIntERKN4core12basic_stringIcNS0_20StringStorageDefaultIcEEEEi
P3i:__ZN6il2cpp5utils13dynamic_arrayIPK10Il2CppTypeLj4EEC2ERKS5_
C3c:__Z45TextGenerator_CUSTOM_INTERNAL_get_rectExtentsP12Il2CppObjectP5RectTIfE
Rvf:_CertificateValidationCallback_Invoke_m2500463874
khe:_SetPropertyUtility_SetStruct_TisChar_t3454481338_m2333420724_gshared
Ddf:_Collection_1_IsSynchronized_m2601980439_gshared
wZd:_Hashtable_ContainsKey_m2716576664
NGa:__Z18ReadStringFromFilePN4core17string_with_labelILi1EEERKNS_12basic_stringIcNS_20StringStorageDefaultIcEEEE
Tbi:_PatternCompiler_EmitCategory_m1696942454
K8d:_Decimal_decimalFloorAndTrunc_m3655683429
Ime:_Array_InternalArray__ICollection_CopyTo_TisInt32_t2071877448_m984622488_gshared
x5:__ZN18ScriptingArguments9AddObjectE18ScriptingObjectPtr
T7c:__Z39CanvasGroup_Get_Custom_PropInteractableP12Il2CppObject
uY:__ZN11UnityEngine15CloudWebService16SessionContainerD2Ev
_dd:__ZL38InitializeUnityConnectScriptingClassesv
F0b:__ZN13ProbeRenderer8ConvolveEbijjb
Toa:__ZN17GenericDynamicVBOC2ER9GfxDevice13GfxBufferModejj
m9h:_Context_get_HasDynamicSinks_m1998518649
kMc:__Z28GetPhysics2DScriptingClassesv
osc:__ZZN10GUIManager14InitGUIManagerEvEN41PreUpdateIMGUISendQueuedEventsRegistrator7ForwardEv
dFi:_UnityAction_1_Invoke_m2903588655_gshared
NZ:__ZN11UnityEngine15CloudWebService17SessionEventQueue10PurgeItemsEj
k1b:__ZN6Camera16StandaloneRenderENS_10RenderFlagEP6ShaderRKN4core12basic_stringIcNS3_20StringStorageDefaultIcEEEE
gOd:_Array_System_Collections_IList_get_Item_m2088124007
AOd:_Array_GetLength_m2083296647
iLi:_SymmetricTransform_OFB_m397918932
gXd:_SynchronizedArrayListWrapper_ToArray_m1522185111
TDb:__Z18Transfer_BlittableI18StreamedBinaryReadILb1EELb1EtEvRK29SerializationCommandArgumentsR31RuntimeSerializationCommandInfo
ija:__ZN9GfxDevice20DeallocRenderSurfaceEP17RenderSurfaceBase
V9f:_ValueType_ToString_m3796301715
Sua:__ZN20GpuProgramParameters36UpdatePrepareValuesMaximumBufferSizeEv
mtj:__ZNK15dense_hashtableI10KeyWrapperIP18Il2CppGenericClassES3_N6il2cpp8metadata22Il2CppGenericClassHashEN14dense_hash_setIS3_S6_NS3_14EqualsComparerINS5_25Il2CppGenericClassCompareEEENSt3__29allocatorIS3_EEE8IdentityESA_SD_E12test_deletedEj
Vnc:__Z53Register_UnityEngine_Quaternion_INTERNAL_CALL_Inversev
syi:_Screen_get_height_m3831644396
VMa:__ZN12BaseRenderer23RendererBecameInvisibleEv
wRc:__ZN20TextRenderingPrivate8FontImpl13CharacterInfo8TransferI18StreamedBinaryReadILb0EEEEvRT_
gBb:__Z29Transfer_Blittable_ArrayFieldI24GenerateTypeTreeTransferfEvRT_R9ArrayInfoRK23StaticTransferFieldInfo
sba:__ZNSt3__26__treeINS_12__value_typeIN4core12basic_stringIcNS2_20StringStorageDefaultIcEEEES6_EENS_19__map_value_compareIS6_S7_NS_4lessIS6_EELb1EEE13stl_allocatorIS7_L18MemLabelIdentifier13ELi16EEE7destroyEPNS_11__tree_nodeIS7_PvEE
V5g:__Z76RuntimeInvoker_RuntimeObject_RuntimeObject_SByte_t454417549_SByte_t454417549PFvvEPK10MethodInfoPvPS4_
z2b:__ZN19CustomRenderTexture9AddParentE4PPtrIS_E
g3a:__ZN8Gradient8TransferI14SafeBinaryReadEEvRT_
vGi:_UnityEvent_1_Invoke_m1533100983_gshared
NYa:__ZNSt3__26vectorIN4core12basic_stringIcNS1_20StringStorageDefaultIcEEEE13stl_allocatorIS5_L18MemLabelIdentifier1ELi16EEE7reserveEj
HGf:_FileWebRequest__ctor_m4003648606
E$g:__ZL71SpriteState_t1353336012_CustomAttributesCacheGenerator_m_DisabledSpriteP21CustomAttributesCache
sbe:_Enum_System_IConvertible_ToSByte_m3488526280
U4i:__ZNK15dense_hashtableI10KeyWrapperIPK19Il2CppGenericMethodES4_N6il2cpp8metadata23Il2CppGenericMethodHashEN14dense_hash_setIS4_S7_NS4_14EqualsComparerINS6_26Il2CppGenericMethodCompareEEENSt3__29allocatorIS4_EEE8IdentityESB_SE_E4findERKS4_
vrb:__ZNK20LocalFileSystemPosix9IsSymLinkERK13FileEntryData
eCj:_GC_new_free_list_inner
HEh:_DefaultComparer_Equals_m85211180_gshared
AVe:_MonoType_InternalGetEvent_m532443236
yff:_Collection_1_IndexOf_m2700825189_gshared
YCi:_MathfInternal__cctor_m2774058555
LAc:__ZN8JSONRead8TransferI10RectOffsetEEvRT_PKc17TransferMetaFlagsb
vZ:__ZN9JSONWrite8TransferIN11UnityEngine15CloudWebService14DataErrorEvent15FileErrorDetailEEEvRT_PKc17TransferMetaFlags
Vtd:_Decoder__ctor_m2623573910
IQ:__ZN12SoundManager20RegisterModifiedClipEP10SampleClip
Lki:_Logger__ctor_m1903664092
dT:__ZN11AudioSource4PlayEd
fvj:__ZN6il2cpp2vm6Object16GetVirtualMethodEP12Il2CppObjectPK10MethodInfo
xOi:_HashSet_1_Add_m199171953_gshared
L2i:__ZN15dense_hashtableI10KeyWrapperIPK17Il2CppGenericInstES4_N6il2cpp8metadata21Il2CppGenericInstHashEN14dense_hash_setIS4_S7_NS4_14EqualsComparerINS6_24Il2CppGenericInstCompareEEENSt3__29allocatorIS4_EEE8IdentityESB_SE_E13set_empty_keyERKS4_
BHh:_EqualityComparer_1_System_Collections_IEqualityComparer_Equals_m3589836321_gshared
SAe:_SmallXmlParser_IsNameChar_m1561000202
msi:_X501__cctor_m2610532554
Lvh:_Enumerator_VerifyState_m3173176371_gshared
h8e:_List_1_CheckCollection_m2220107869_gshared
$$a:__ZN7Cubemap23VirtualRedirectTransferER18StreamedBinaryReadILb0EE
eyf:_RecordProtocol_EncodeRecord_m3884270352
Kld:_SHA256_Create_m896954069
k1c:_Read_CVT
s4d:_Convert_ToUInt32_m776714429
KIa:__ZN12FileAccessor4SeekEx10FileOrigin
Wzb:__ZL26Transfer_SimpleNativeClassI24GenerateTypeTreeTransfer17AnimationCurveTplIfELb0EEvRK29SerializationCommandArgumentsR31RuntimeSerializationCommandInfo
LBc:__ZN8JSONRead21TransferSTLStyleArrayI13dynamic_arrayI9BoundsIntLj4EEEEvRT_17TransferMetaFlags
b2a:__ZN24GenerateTypeTreeTransfer8TransferI13dynamic_arrayI33EnlightenTerrainChunksInformationLj4EEEEvRT_PKc17TransferMetaFlags
vca:__ZN16LightmapSettings20DidChangeActiveSceneEP10UnitySceneS1_
G1g:__ZL59g_AssemblyU2DCSharp_Assembly_CustomAttributesCacheGeneratorP21CustomAttributesCache
q9i:__ZN6il2cpp5utils9PathUtils8BasenameIcEENSt3__212basic_stringIT_NS3_11char_traitsIS5_EENS3_9allocatorIS5_EEEERKSA_
Ttc:__Z35Register_UnityEngine_Event_get_typev
FBe:_PrivateKeyInfo_DecodeRSA_m1427048948
Toj:__ZN6il2cpp2vm9Exception23GetInvalidCastExceptionERKNS_5utils10StringViewIDsEE
Zag:_Assembly_FillName_m1934025015
psd:_String_IndexOf_m2126171214
BMe:_Int64_ToString_m1544341651_AdjustorThunk
FC:__ZN8Animator28BuildControllerPlayableCacheEv
sHe:_Guid_CheckNull_m2903986431
I6:__Z63ThreadAndSerializationSafeCheckGetMonoBehaviourBeingTransferredv
QEj:_GC_enable
$zf:_TlsClientCertificateVerify_ProcessAsSsl3_m3377063356
Fyj:__GLOBAL__sub_I_GenericMethod_cpp
vhi:_Application_Quit_m3096163801
fzd:_StandaloneInputModule_set_repeatDelay_m2820945738
C7f:_UInt16_ToString_m4213290405
znc:__Z37Register_UnityEngine_Input_GetAxisRawv
UH:__ZNK18AnimatorController28HasMultiThreadedStateMachineEv
zbe:_Enum_GetName_m1226611481
ZVi:_Func_2_Invoke_m4121137703_gshared
RS:__ZN11AudioSource5ResetEv
OSb:__ZN12ImageFilters27SetSurfaceUseResolvedBufferEP13RenderTextureb
R6a:__ZN14Texture2DArray23VirtualRedirectTransferER18StreamedBinaryReadILb0EE
uei:_Literal_CompileLiteral_m276843152
ipb:__ZN2UI13RectTransform13AwakeFromLoadE17AwakeFromLoadMode
PXb:__ZN14qsort_internal30FindAndMovePivotToLastPositionIP20ShadowCasterSortDatai26ShadowCasterSortDataSorterEEvT_S4_T0_T1_
p3i:__ZNK15dense_hashtableI10KeyWrapperIPK19Il2CppGenericMethodES4_N6il2cpp8metadata23Il2CppGenericMethodHashEN14dense_hash_setIS4_S7_NS4_14EqualsComparerINS6_26Il2CppGenericMethodCompareEEENSt3__29allocatorIS4_EEE8IdentityESB_SE_E3endEv
utb:__Z18Transfer_BlittableI14SafeBinaryReadLb1EiEvRK29SerializationCommandArgumentsR31RuntimeSerializationCommandInfo
Thb:__ZN17PersistentManager13GetAllFileIDsERKN4core12basic_stringIcNS0_20StringStorageDefaultIcEEEER13dynamic_arrayIxLj8EE
Bqh:__Z66RuntimeInvoker_Void_t1841601450_Int32_t2071877448_Touch_t407273883PFvvEPK10MethodInfoPvPS4_
APd:_Array_LastIndexOf_m4096535198
hVd:_ArrayList_Add_m1719188324
Fae:_Double_System_IConvertible_ToSByte_m1653690240_AdjustorThunk
Afh:__Z59RuntimeInvoker_RuntimeObject_Byte_t3683104436_RuntimeObjectPFvvEPK10MethodInfoPvPS4_
sii:_Bounds_get_size_m3951110137
Dk:_glGetStringi
_sj:__ZNK15dense_hashtableI10KeyWrapperIP18Il2CppGenericClassES3_N6il2cpp8metadata22Il2CppGenericClassHashEN14dense_hash_setIS3_S6_NS3_14EqualsComparerINS5_25Il2CppGenericClassCompareEEENSt3__29allocatorIS3_EEE8IdentityESA_SD_E10test_emptyERK30dense_hashtable_const_iteratorIS3_S3_S6_SF_SA_SD_E
gee:_CultureInfo_set_NumberFormat_m1618950525
cLf:_X509Store__ctor_m1573680316
rLf:_X509Chain_get_CertificateCollection_m324631835
OHh:_EqualityComparer_1__cctor_m1011898363_gshared
eAd:_AnimationTriggers__ctor_m2623627182
Uje:_Array_InternalArray__IndexOf_TisClientCertificateType_t4001384466_m1168139450_gshared
mE:__ZN8Animator9WriteStepEy
h_:__ZN11UnityEngine15CloudWebService20WebRequestRestClient18GetResponseHeadersEv
xec:__ZN16PropertyAccessorC2Ev
B4a:__ZNSt3__23mapIN4core12basic_stringIcNS1_20StringStorageDefaultIcEEEE9PrefValueNS_4lessIS5_EENS_9allocatorINS_4pairIKS5_S6_EEEEEixERSB_
$dc:__ZN15DirectorManager22ConstructPlayableGraphEv
Hmd:_SymmetricAlgorithm_set_IV_m4262655606
EQh:_StencilMaterial__cctor_m2963056855
Acg:_CustomAttributeNamedArgument_GetHashCode_m3715408876_AdjustorThunk
J3c:__Z38Register_UnityEngine_Font_HasCharacterv
wKf:_X509Certificate2_AppendBuffer_m3517242299
O$b:__Z35IntersectSpherePlaneBoundsOptimizedRKN4math7_float4EPS1_i
cee:_CultureInfo_get_IsNeutralCulture_m3874876470
y9d:_Delegate_CreateDelegate_m3813023227
Fgi:_Uri_get_AbsoluteUri_m2120317928
Mvj:__ZN6il2cpp2os5posix15PosixWaitObject13InterruptWaitEv
eDd:_ColorTween_TweenValue_m3279916815
Wba:__Z22CleanupLODGroupManagerPv
hme:_Array_InternalArray__ICollection_Add_TisContentType_t1028629049_m2984242302_gshared
Ptc:__Z21Event_CUSTOM_PopEventP12Il2CppObject
nl:_glUniform3fv
WHj:__ZNK6il2cpp8metadata24Il2CppGenericInstCompareclERK10KeyWrapperIPK17Il2CppGenericInstES8_
Eeb:__ZNSt3__218__insertion_sort_3IRN15ResourceManager10Dependency6SorterEPS2_EEvT0_S6_T_
I_e:_Enumerator_System_Collections_IEnumerator_Reset_m3796537546_AdjustorThunk
q2c:_UNITY_FT_Init_Class_tt_service_gx_multi_masters
Gdh:__Z53RuntimeInvoker_Int32_t2071877448_TimeSpan_t3430258949PFvvEPK10MethodInfoPvPS4_
X3g:__Z64RuntimeInvoker_RuntimeObject_Int32_t2071877448_Int16_t4041245914PFvvEPK10MethodInfoPvPS4_
jVe:_IntComparer_Compare_m3057931085
xWb:__ZNK16LightmapSettings31GetRealtimeLightmapDecodeValuesEv
ZR:__ZN5audio5mixer12SetSuspendedERNS0_16AudioMixerMemoryEb
Oib:__ZN17PersistentManager21UnloadNonDirtyStreamsEv
Ipj:__ZN6il2cpp2vm13LivenessStateC2EP11Il2CppClassjPFvPP12Il2CppObjectiPvES7_PFvvESB_
Mue:_Array_ConvertAll_TisRuntimeObject_TisRuntimeObject_m2423585546_gshared
rRb:__ZN12ImageFilters4BlitER17ShaderPassContextP7TextureP13RenderTextureiPK18SharedMaterialDataPKcP6ShaderiNS_9BlitFlagsE11CubemapFaceRK8Vector2fSH_
MIf:_Oid__ctor_m1936781897
XZ:__ZN11UnityEngine15CloudWebService10RestClientINS0_23WebRequestRestHeaderMapEED2Ev
r5h:_ResourceSet__ctor_m1222864106
Mbf:_Collection_1_System_Collections_IList_get_Item_m3376056117_gshared
Jl:_emscripten_glDepthMask
H_e:_Enumerator_VerifyState_m3639069574_gshared
cqa:__ZN4crnd25static_huffman_data_model22prepare_decoder_tablesEv
kbf:_Enumerator_MoveNext_m689054299_gshared
bsf:_ModulusRing_Difference_m662924064
IBd:_CanvasUpdateRegistry_ObjectValidForUpdate_m855695984
xKd:_InputField_set_onValueChanged_m2406388125
Osc:__Z23GUIStatePopDisplayIndexv
O2:__ZL22CleanupUnityWebStreamsPv
zFf:_ListDictionary_Add_m4276262662
Aca:__Znaj
nkd:_RIPEMD160Managed_GGG_m1639995340
kZj:_emscripten_glEnableClientState__wrapper
F4:__ZN17MessageIdentifierC2EPKcNS_7OptionsEPKN5Unity4TypeES1_
tyh:_Enumerator_System_Collections_IEnumerator_get_Current_m1648049763_gshared
oHj:__ZN6il2cpp6icalls8mscorlib4Mono8Security12Cryptography18KeyPairPersistence15_ProtectMachineEP12Il2CppString
DPj:dynCall_viiifiii
nX:__Z55Register_UnityEngine_AudioSource_get_spatializeInternalv
y6a:__ZN15dense_hashtableINSt3__24pairIKN4core12basic_stringIcNS2_20StringStorageDefaultIcEEEE13dynamic_arrayI4PPtrI6SpriteELj4EEEES6_20StringHash32FunctionIS6_EN14dense_hash_mapIS6_SC_SF_NS0_8equal_toIS6_EE13stl_allocatorISD_L18MemLabelIdentifier81ELi16EEE9SelectKeyESI_SL_E12resize_deltaEjj
cSe:_TextWriter__ctor_m2225796097
hFa:__ZN14SafeBinaryRead8TransferI14ConstantStringEEvRT_PKc17TransferMetaFlags
wma:__ZNK6Camera16GetStereoEnabledEv
at:__ZN13AnimationClip9PPtrCurveaSERKS0_
kbc:__ZN12LightManager15InitializeClassEv
pOa:__ZN9ShaderLab11shaderprops16GetComputeBufferEPK19ShaderPropertySheetS3_NS_16FastPropertyNameE
L5:__ZN18ScriptingArgumentsC2Ev
f5f:_TimeZone_IsDaylightSavingTime_m875882154
HUj:_emscripten_glBlendFuncSeparate__wrapper
Swf:_CipherSuiteCollection_System_Collections_IList_set_Item_m750275607
dna:__Z17HasSampledTexture14GraphicsFormat13formatSupport
pSb:__ZNK25CameraStackRenderingState27GetStereoImageEffectTextureEb
pld:_SHA1CryptoServiceProvider__ctor_m3127563759
O6i:__ZN6il2cpp6icalls6System6System3Net7Sockets6Socket7ReceiveEiP11Il2CppArrayiiNS4_11SocketFlagsEPi
lhc:__ZN13BuildSettings13GetSceneIndexERKN4core12basic_stringIcNS0_20StringStorageDefaultIcEEEE
u1g:__ZL103BaseVertexEffect_t2504093552_CustomAttributesCacheGenerator_BaseVertexEffect_ModifyVertices_m3446986347P21CustomAttributesCache
Bo:FUNCTION_TABLE_ii
qzh:_Enumerator_MoveNext_m335649778_AdjustorThunk
JMa:__ZN10TagManager8TransferI18StreamedBinaryReadILb0EEEEvRT_
dUc:__ZN20TextRenderingPrivate8TextMesh13AwakeFromLoadE17AwakeFromLoadMode
w8f:_UInt32_ToString_m3894907091_AdjustorThunk
Joi:_Matrix4x4__ctor_m828876617_AdjustorThunk
Yde:_CultureInfo_get_TextInfo_m1582311326
ile:_Array_ForEach_TisRuntimeObject_m1849351808_gshared
wAe:_SmallXmlParser_Error_m1832158746
Ck:_glDeleteVertexArrays
hKa:__Z24CreateDirectoryRecursiveRKN4core12basic_stringIcNS_20StringStorageDefaultIcEEEE
ZSj:b41
zmb:__ZN9ShaderLab20SerializedSubProgram8TransferI18StreamedBinaryReadILb0EEEEvRT_
ERe:_StreamAsyncResult_get_AsyncWaitHandle_m4218169359
YSj:b40
Vte:_Array_InternalArray__get_Item_TisContactPoint2D_t3659330976_m825151777_gshared
o4c:__ZN2UI13CanvasManager9AddCanvasEPNS_6CanvasE
J7a:__ZN9Texture3D8TransferI19StreamedBinaryWriteILb0EEEEvRT_
TSb:__ZNK6Camera22CalculateRenderingPathEv
Fyc:__ZN9JSONWrite8TransferI5RectTIfEEEvRT_PKc17TransferMetaFlags
WF:__ZN11UnityEngine9Animation37SetGenericRootTransformPropertyValuesERKNS0_30AnimatorGenericBindingConstantERKN7mecanim10ValueArrayER9Transformbb
swa:__Z13ConvertMipmap14GraphicsFormatPKvS_Pviiii
$ld:_SHA384Managed_processBlock_m3232296629
UDe:_X509Certificate_get_PublicKey_m714501701
Vhi:_AsyncOperation_InternalDestroy_m2067452588
XWc:_tt_sbit_decoder_load_image
Esd:_String_LastIndexOf_m290475879
Eqe:_Array_Sort_TisInt32_t2071877448_m1860415737_gshared
Isc:__ZNSt3__24listIN10GUIManager12SortedScriptE11memory_poolIS2_EE6__sortI13OldSortScriptEENS_15__list_iteratorIS2_PvEESA_SA_jRT_
G8f:_UInt64_System_IConvertible_ToChar_m1930853313_AdjustorThunk
Wzf:_TlsClientCertificate_SendCertificates_m1096074091
g_d:_SyncHashtable_get_Item_m408601391
qbf:_Stack_1_System_Collections_ICollection_CopyTo_m2104527616_gshared
$$f:_StringBuilder_AppendFormat_m1666670800
cjh:__Z97RuntimeInvoker_Boolean_t3825574718_RuntimeObject_TextGenerationSettings_t2543476768_RuntimeObjectPFvvEPK10MethodInfoPvPS4_
_bd:__ZN18UnityConnectClient12CloseServiceEv
Du:__ZN13AnimationClip8TransferI17RemapPPtrTransferEEvRT_
Vnj:__ZN6il2cpp6icalls8mscorlib6System9ThreadingL11ThreadStartEPv
tea:__ZN15DirectorManager12OnSampleTimeEv
mof:_ReadOnlyCollection_1_System_Collections_IList_Remove_m3878418841_gshared
CKd:_InputField_EnforceContentType_m1902926812
a3a:__ZN15dense_hashtableINSt3__24pairIKiiEEi21InstanceIDHashFunctorN14dense_hash_mapIiiS4_NS0_8equal_toIiEE13stl_allocatorIS3_L18MemLabelIdentifier67ELi16EEE9SelectKeyES7_SA_E12resize_deltaEjj
YCa:__ZN12CachedReader10Align4ReadEv
eJc:__ZN15b2WorldManifold10InitializeEPK10b2ManifoldRK11b2TransformfS5_f
ct:__Z14resize_trimmedINSt3__26vectorIN13AnimationClip10FloatCurveE13stl_allocatorIS3_L18MemLabelIdentifier26ELi16EEEEEvRT_j
JDa:__ZNK9Behaviour22GetTypeVirtualInternalEv
Wof:_ReadOnlyCollection_1_System_Collections_IList_get_Item_m887129009_gshared
z0b:__Z21GetScriptingArraySize17ScriptingArrayPtr
VQc:__ZN20TextRenderingPrivate8FontImpl8TransferI14SafeBinaryReadEEvRT_
eka:__ZN9GfxDevice17ImmediateTexCoordEifff
Qci:_Parser_ParseRegularExpression_m2390577313
_Gc:__ZN10ClipperLib7Clipper13AppendPolygonEPNS_5TEdgeES2_
ZPd:_Array_double_swapper_m1175307080
TLf:_X509CertificateEnumerator_System_Collections_IEnumerator_Reset_m327358896
Pod:_Hash__ctor_m2554411450
UJe:_NumberFormatter_AppendDigits_m1308372770
sqd:_Single_System_IConvertible_ToDateTime_m2510003459_AdjustorThunk
H9d:_Delegate_RemoveImpl_m3666700529
ASj:_emscripten_glUniform4f__wrapper
SFf:_NameObjectCollectionBase_OnDeserialization_m3478980442
cL:__ZN25RuntimeAnimatorControllerC2E18MemLabelIdentifier18ObjectCreationMode
oKd:_InputField_set_caretColor_m2252440840
pH:__ZN8Animator8TransferI19StreamedBinaryWriteILb0EEEEvRT_
oNa:__ZNK6Camera16GetProjectionFarEv
Oq:__Z24InverseTransformRotationRK23TransformAccessReadOnlyRKN4math7_float4E
mUe:_MissingFieldException__ctor_m1161042282
fke:_Array_InternalArray__IndexOf_TisSlot_t2267560602_m1912863273_gshared
vpi:_Mesh_get_uv3_m1531319041
A_a:__ZNK14PlayableOutput11DerivesFromE17ScriptingClassPtr
O$a:__ZN7Texture34CreateFileTextureUploadInstructionE18TextureUploadFlagsj
Ixa:__ZN13ComputeShader14SetBufferParamEjRKN9ShaderLab16FastPropertyNameE15ComputeBufferID
$nf:_ReadOnlyCollection_1_System_Collections_Generic_IListU3CTU3E_Insert_m3054305464_gshared
gH:__ZN8Animator8TransferI14SafeBinaryReadEEvRT_
yke:_Array_InternalArray__IndexOf_TisTypeTag_t141209596_m2882894956_gshared
QPh:_Slider_get_value_m4182660424
iDc:__ZNK14b2CapsuleShape5CloneEP16b2BlockAllocator
tx:__ZN17AnimationPlayable34CollectAnimatorControllerPlayablesER13dynamic_arrayIP26AnimatorControllerPlayableLj4EE
LV:__ZN16BaseVideoTexture19UpdateVideoTexturesEv
DTa:__Z28BuildSingleStreamChannelInfo17ShaderChannelMaskRK20VertexChannelsLayoutS_S2_P11ChannelInfo
vPa:__ZNK16LightmapSettings23HasLightProbeTetrahedraEv
hzf:_Context_get_WriteSequenceNumber_m243492531
l5a:__ZN6Sprite23VirtualRedirectTransferER19StreamedBinaryWriteILb0EE
zug:__ZL51Assembly_t4268412390_CustomAttributesCacheGeneratorP21CustomAttributesCache
wsd:_String_LastIndexOfAny_m1473637802
kqc:__Z38Transform_CUSTOM_INTERNAL_set_positionP12Il2CppObjectRK8Vector3f
$pi:_PlayerEditorConnectionEvents_InvokeMessageIdSubscribers_m795891627
Qej:__ZNK15dense_hashtableINSt3__24pairIK10KeyWrapperINS1_IPK9FieldInfoP11Il2CppClassEEEjEES9_17ReflectionMapHashIS8_EN14dense_hash_mapIS9_jSD_NS9_14EqualsComparerINS0_8equal_toIS8_EEEENS0_9allocatorISB_EEE9SelectKeyESI_SK_E5beginEv
RXa:__ZNK9ShaderLab7Program19HasMatchingVariantsERK13dynamic_arrayI16ShaderKeywordSetLj4EE
Ona:__ZN14DataBufferGLES11CopySubDataEPKS_jjj
ie:_emscripten_glVertexPointer
SBa:__ZNSt3__26__treeI20DeviceDepthStateGLES11memcmp_lessIS1_S1_ENS_9allocatorIS1_EEE7destroyEPNS_11__tree_nodeIS1_PvEE
jGd:_Graphic__ctor_m821539719
D9i:__ZN6il2cpp2vm7Runtime47RaiseExecutionEngineExceptionIfMethodIsNotFoundEPK10MethodInfo
tYb:__Z17GetFrustumPortionPK8Vector3fffPS_
tqj:__ZN15dense_hashtableINSt3__24pairIK10KeyWrapperIP14Il2CppIUnknownEjEES5_N6il2cpp5utils11PointerHashIS3_EEN14dense_hash_mapIS5_jSB_NS5_14EqualsComparerINS0_8equal_toIS4_EEEENS0_9allocatorIS7_EEE9SelectKeyESG_SI_E14squash_deletedEv
_bi:_PatternCompiler_EmitClose_m2394480040
fEd:_DefaultControls_CreateDropdown_m1384069408
Zxd:_PointerEventData_get_clickCount_m4064532478
oce:_EventArgs__cctor_m1350395667
aia:__ZNK9GfxDevice27GetPlatformAdjustedViewportEv
$ti:_X509Stores_Open_m2057354563
Rce:_CCGregorianCalendar_is_leap_year_m567513478
yQd:_Attribute_IsDefined_m2118467641
aBi:_SpriteAtlasManager_Register_m447878083
EBe:_PrivateKeyInfo_Normalize_m3959595934
IUh:_InternalEnumerator_1_System_Collections_IEnumerator_get_Current_m3125080595_gshared
mhf:_Collection_1_System_Collections_IList_Add_m2091889616_gshared
Bec:__ZN16StreamedResource8TransferI24GenerateTypeTreeTransferEEvRT_
cFc:__ZN11b2GearJoint4DumpEv
BFd:_DropdownItem_OnPointerEnter_m761897861
Gya:__ZN10Matrix3x3f15InvertTransposeEv
_fe:_Array_InternalArray__ICollection_Remove_TisKeyValuePair_2_t1174980068_m2768765894_gshared
dQb:__Z11IsBatchmodev
Wef:_Collection_1_set_Item_m2199807215_gshared
cxb:__Z29Transfer_Blittable_ArrayFieldI14SafeBinaryRead8Vector3fEvRT_R9ArrayInfoRK23StaticTransferFieldInfo
I7f:_UInt32_System_IConvertible_ToBoolean_m91295134
m2f:_Monitor_Monitor_test_synchronised_m1542589500
oOg:__ZL68RuntimePlatform_t1869584967_CustomAttributesCacheGenerator_WP8PlayerP21CustomAttributesCache
KRc:__ZN20TextRenderingPrivate8FontImpl18ResetCachedTextureEv
rCe:_SymmetricTransform_TransformFinalBlock_m4192185386
fHe:_TextInfo__ctor_m1263401274
OCj:_GC_print_finalization_stats
hAh:_ValueCollection__ctor_m927733289_gshared
SEc:__ZNK12b2WheelJoint10GetAnchorBEv
Qkc:__Z53Register_UnityEngine_Behaviour_get_isActiveAndEnabledv
EHf:_IPAddress_ToString_m267966740
lq:__ZNSt3__26vectorIN4core12basic_stringIcNS1_20StringStorageDefaultIcEEEENS_9allocatorIS5_EEE8__appendEj
Udb:__ZN26PlayerSettingsSplashScreen8TransferI17RemapPPtrTransferEEvRT_
tYh:_InternalEnumerator_1_get_Current_m3922357178_gshared
m8i:__ZN6il2cpp6icalls8mscorlib6SystemL17CollectTypeFieldsINS_5utils10functional10TrueFilterEEEvP11Il2CppClassPKS7_iRNSt3__26vectorIP9FieldInfoNSB_9allocatorISE_EEEERKT_
hYg:__ZL72ColorBlock_t2652774230_CustomAttributesCacheGenerator_m_HighlightedColorP21CustomAttributesCache
x5f:_Type_get_IsValueType_m1733572463
x6b:__Z13GetTagManagerv
yOc:__ZN14PhysicsQuery2D7RaycastERK8Vector2fS2_fRKN10Collider2D13ContactFilterEPKS3_bP12RaycastHit2Di
Cge:_Array_InternalArray__ICollection_Remove_TisUInt16_t986882611_m65494986_gshared
Pmf:_ReadOnlyCollection_1_IndexOf_m3054637117_gshared
MYi:__ZL10roundUp128PyS_
eY:__ZN11UnityEngine15CloudWebService17CloudJobSchedulerD0Ev
rrd:_String_System_IConvertible_ToBoolean_m2696751322
hgb:__ZN18LoadSceneOperation7PerformEv
O4c:__ZNK2UI11CanvasGroup22GetTypeVirtualInternalEv
Qoi:_Matrix4x4_MultiplyPoint3x4_m1436516889
zsd:_String_LastIndexOfAny_m4281325295
YGc:__ZN10ClipperLib7Clipper14IntersectEdgesEPNS_5TEdgeES2_RNS_8IntPointE
Nlh:__Z163RuntimeInvoker_Void_t1841601450_RuntimeObject_Int32_t2071877448_SByte_t454417549_SByte_t454417549_SingleU26_t4173844468_SingleU26_t4173844468_SingleU26_t4173844468PFvvEPK10MethodInfoPvPS4_
atc:__Z21CleanupGlobalGUIStatev
a4f:_TimeSpan__ctor_m1888018443_AdjustorThunk
xsh:__Z74RuntimeInvoker_Int32_t2071877448_UIVertex_t1204258818_UIVertex_t1204258818PFvvEPK10MethodInfoPvPS4_
b_d:_SyncHashtable_get_Count_m3694444082
sGb:__Z18Transfer_BlittableI18StreamedBinaryReadILb0EELb1EN4math12int3_storageEEvRK29SerializationCommandArgumentsR31RuntimeSerializationCommandInfo
cdj:__ZNSt3__26vectorINS_12basic_stringIcNS_11char_traitsIcEENS_9allocatorIcEEEENS4_IS6_EEE8allocateEj
oAa:__ZN22VertexDeclarationCache5ClearEv
_ib:__ZN15CacheWriterBase18GetAddressOfMemoryEv
Zz:__Z27ProcessRootMotionEmptyMixerP35AnimationPlayableEvaluationConstantP32AnimationPlayableEvaluationInputP33AnimationPlayableEvaluationOutput
ZZb:__ZN6Camera24PrepareCullingParametersERK23CameraCullingParameters13RenderingPathR11CullResults
Zgc:__Z12SetIUISystemP9IUISystem
ugb:__ZN19RuntimeSceneManager22EndIntegrateMainThreadEP10UnitySceneNS_11LoadingModeE
Eyb:__Z26Transfer_UnityEngineObjectI17RemapPPtrTransferLb0EEvRK29SerializationCommandArgumentsR31RuntimeSerializationCommandInfo
Gsd:_String_IsNullOrEmpty_m2802126737
jTd:_Byte_Parse_m1442736478
jMe:_Int64_Parse_m3258022240
qsd:_String_IndexOfOrdinal_m3591623977
JYf:_CryptoConfig_EncodeLongNumber_m2352037787
$5f:_Type_GetMethod_m475234662
e7h:_ActivationServices_get_ConstructionActivator_m1726426854
ZAb:__Z29Transfer_Blittable_ArrayFieldI24GenerateTypeTreeTransfer4AABBEvRT_R9ArrayInfoRK23StaticTransferFieldInfo
tCg:__ZL52Activator_t1850728717_CustomAttributesCacheGeneratorP21CustomAttributesCache
QDj:_GC_adj_bytes_allocd
bme:_Array_InternalArray__ICollection_Add_TisKeyframe_t1449471340_m887263954_gshared
Kne:_Array_InternalArray__Insert_TisDateTime_t693205669_m1484996356_gshared
X2e:_List_1_System_Collections_IList_Remove_m3933652540_gshared
QQe:_MonoIO_get_ConsoleInput_m2976499023
Ohg:_OpCode_get_Size_m481593949_AdjustorThunk
AXd:_BitArrayEnumerator_checkVersion_m3839504595
OOd:_Array_GetUpperBound_m1352329707
pFc:__ZN13b2PulleyJoint24SolveVelocityConstraintsERK12b2SolverData
dqj:__ZN6il2cpp6icalls8mscorlib6System10Reflection10MonoMethod19get_base_definitionEP22Il2CppReflectionMethod
Da:invoke_fiiifii
Exf:_RecordProtocol__ctor_m168945279
e7d:_DateTimeOffset_Equals_m3728302791_AdjustorThunk
QVa:__ZN20SphericalHarmonicsL219AddDirectionalLightERKN4math7_float3ERKNS0_7_float4E
Y4f:_TimeSpan_op_GreaterThanOrEqual_m3997050520
kea:__Z26ScheduleJobForEachInternalR8JobFencePFvPvjES1_iPFvS1_E11JobPriority
CJf:_OidEnumerator_MoveNext_m1889267785
QPb:__ZZ23InitPlayerLoopCallbacksvEN41PostLateUpdateProfilerEndFrameRegistrator7ForwardEv
whc:__ZN9Scripting18RaiseMonoExceptionEPKcz
V0a:__ZN9Texture2D8TransferI19StreamedBinaryWriteILb0EEEEvRT_
tHi:_TweenRunner_1_StartTween_m3792842064_gshared
Kbc:__ZN9ShaderLab16FastPropertyName15InitBy28BitHashEj
Aqd:_Single_System_IConvertible_ToInt32_m3269519527_AdjustorThunk
yPc:__ZN14PhysicsQuery2D8LinecastERK8Vector2fS2_RKN10Collider2D13ContactFilterEPKS3_bP12RaycastHit2Di
vld:_SHA1Internal_ProcessBlock_m4070037334
cMa:__ZN17PersistentManager17IsObjectAvailableEi
B6h:_Marshal_copy_from_unmanaged_m98320635
Soe:_Array_InternalArray__set_Item_TisDouble_t4078015681_m24756265_gshared
$ki:_Display_RelativeMouseAtImpl_m700362000
JBi:_Vector2_get_right_m4262310679
R8b:__ZN13ProduceHelperIN2UI13RectTransformELb0EE7ProduceE18MemLabelIdentifier18ObjectCreationMode
n8a:__ZN17PackedFloatVector12UnpackFloatsEPfiiii
Gkf:_ReadOnlyCollection_1__ctor_m3671019970_gshared
bD:__ZN17AnimationPlayable28UpdateInternalStateRecursiveILi3ELb0EEEvPK35AnimationPlayableEvaluationConstant
ala:__ZN13GfxDeviceGLES21DestroyComputeProgramER12ObjectHandleI18ComputeProgram_TagPvE
Z1d:_Convert_ToDecimal_m2007036836
inj:__ZN6il2cpp6icalls8mscorlib6System5Array12SetValueImplEP11Il2CppArrayP12Il2CppObjecti
_ba:__ZN17UniqueIDGenerator16DestroyPureIndexEj
E8:__ZL21AppendNestedClassName17ScriptingClassPtrRN4core17string_with_labelILi1EEE
jkb:__ZN14SafeBinaryRead21TransferSTLStyleArrayINSt3__26vectorIN9ShaderLab20SerializedSubProgram12UAVParameterENS1_9allocatorIS5_EEEEEEvRT_17TransferMetaFlags
l9h:_Context_NotifyDynamicSinks_m1367144344
nZ:__ZN24TextDOMTransferWriteBaseI9JSONWriteE12PushMetaFlagEi
zzc:__Z18Transfer_BlittableI8JSONReadLb1E10ColorRGBAfEvRK29SerializationCommandArgumentsR31RuntimeSerializationCommandInfo
Kxf:_TlsClientCertificateVerify__ctor_m110646389
Bta:__ZN6prcoreL26RemapGenericIntegerToFloatI17TexFormatARGB888815TexFormatRFloatEEvPKNS_9InnerInfoE
u9h:_Context_GetServerContextSinkChain_m390126977
Rcj:__ZN6il2cpp2vm17TypeNameParseInfoD2Ev
gQ:__ZN4FMOD7Channel7setModeEj
xSe:_StringReader_Read_m513112775
I2a:__ZNK8Renderer8GetLayerEv
YRa:__ZN12FlareManager11DeleteFlareEi
BUb:__ZNK6Camera20GetReplacementShaderEv
iUj:_glProgramBinary__wrapper
Y7d:_Decimal__ctor_m569480123_AdjustorThunk
ZGf:_HttpWebRequest__cctor_m3013631978
SGj:__ZNSt3__26__treeINS_12__value_typeINS_12basic_stringIcNS_11char_traitsIcEENS_9allocatorIcEEEEPFvvEEENS_19__map_value_compareIS7_SA_NS_4lessIS7_EELb1EEENS5_ISA_EEE4findIS7_EENS_15__tree_iteratorISA_PNS_11__tree_nodeISA_PvEEiEERKT_
xkb:__ZNSt3__26vectorIN9ShaderLab20SerializedSubProgram14ConstantBufferENS_9allocatorIS3_EEE7reserveEj
Qqa:__ZL23stbir__calculate_memoryP11stbir__info
bah:__Z83RuntimeInvoker_Void_t1841601450_Int64_t909078037_Int32_t2071877448_Int64_t909078037PFvvEPK10MethodInfoPvPS4_
GMh:_Scrollbar_FindSelectableOnRight_m3219495255
Qni:_Logger_IsLogTypeAllowed_m243840823
ERb:__ZNK6Camera18GetRenderRectangleEv
agj:__ZNK15dense_hashtableINSt3__24pairIK10KeyWrapperINS1_IPK10MethodInfoP11Il2CppClassEEEjEES9_17ReflectionMapHashIS8_EN14dense_hash_mapIS9_jSD_NS9_14EqualsComparerINS0_8equal_toIS8_EEEENS0_9allocatorISB_EEE9SelectKeyESI_SK_E3endEv
w6a:__ZN13sorted_vectorIN4core12basic_stringIcNS0_20StringStorageDefaultIcEEEENSt3__24lessIS4_EE13stl_allocatorIS4_L18MemLabelIdentifier81ELi16EEE4findIS4_EENS5_11__wrap_iterIPS4_EERKT_
tne:_Array_InternalArray__ICollection_CopyTo_TisVector3_t2243707580_m509487340_gshared
eAc:__ZL26Transfer_SimpleNativeClassI8JSONRead10RectOffsetLb1EEvRK29SerializationCommandArgumentsR31RuntimeSerializationCommandInfo
$7c:__Z44CanvasRenderer_CUSTOM_INTERNAL_CALL_SetColorP12Il2CppObjectRK10ColorRGBAf
pCj:_GC_should_collect
s7h:_UrlAttribute_Equals_m1587451932
Vwc:__Z18Transfer_BlittableI9JSONWriteLb1EsEvRK29SerializationCommandArgumentsR31RuntimeSerializationCommandInfo
QGc:__ZN10ClipperLib8JoinHorzEPNS_5OutPtES1_S1_S1_NS_8IntPointEb
zKe:_Int16_ToString_m4099416068_AdjustorThunk
rhd:_DSAParameters_t1872138834_marshal_pinvoke_cleanup
gic:__ZN9Transform16SetLocalRotationERK11Quaternionf
yQb:__ZN13RenderManager37RenderCamerasWithScriptableRenderLoopEi
Uye:_ASN1_Element_m2600236165
gXi:_Canvas_get_renderMode_m3398547532
$3:__ZN23InstancedPropInfoStaticL16RegisterCallbackEPv
jF:__ZN7mecanim8skeleton25SkeletonPoseComputeLocalQEPKNS0_8SkeletonEPKNS0_13SkeletonPoseTIN4math4trsXEEEPS7_ii
yuj:__ZN6il2cpp2os19ReleaseSocketHandleEj
$U:__ZN11AudioModule16GetDSPSampleRateEv
Edg:_TypeBuilder_get_next_table_index_m1415870184
bPj:___cxa_can_catch
Osf:_SequentialSearchPrimeGeneratorBase_GenerateNewPrime_m296245934
oUd:_Char_GetUnicodeCategory_m4273361321
aUe:_Math_Round_m565516458
c9h:_Identity_get_ClientDynamicProperties_m767245959
Fvj:__ZN6il2cpp2os5posix15PosixWaitObjectC2ENS2_4TypeE
NSb:__ZN6Camera21PostMultiCustomRenderENS_10RenderFlagEb
tig:_TypeBuilder_create_generic_class_m986834171
oxa:__ZN12_GLOBAL__N_112UploadImagesEP7ApiGLESjji14GraphicsFormatPKhjS2_iiii16TextureUsageModePh
CNb:__ZN23ShaderVariantCollection13WarmupShadersEv
Wyf:_Context_set_ProtocolNegotiated_m1177527245
M7f:_UInt32_System_IConvertible_ToChar_m1056040486
j8:__Z25GetCommonScriptingClassesv
DEf:_TlsStream_get_Length_m1562309511
Ygb:__Z27scripting_gc_collect_unsafei
eV:__ZN11AudioModule20SuspendVideoTexturesEv
eX:__Z59Register_UnityEngine_AudioExtensionManager_GetAudioListenerv
fbc:__ZN12CubemapArrayC2E18MemLabelIdentifier18ObjectCreationMode
l0d:_Convert_ToByte_m395020137
qAb:__Z26Transfer_UnityEngineObjectI24GenerateTypeTreeTransferLb0EEvRK29SerializationCommandArgumentsR31RuntimeSerializationCommandInfo
KUc:_UNITY_FT_GlyphLoader_CheckPoints
kTe:_TextWriter_WriteLine_m1754475888
URa:__ZN15SharedLightData7PrecalcEv
hNa:__ZN10Matrix4x4fmLERKS_
ute:_Array_InternalArray__get_Item_TisDouble_t4078015681_m2215331088_gshared
ODb:__Z35Transfer_Blittable_FixedBufferFieldI18StreamedBinaryReadILb1EEsEvRK29SerializationCommandArgumentsR31RuntimeSerializationCommandInfo
eBh:_Dictionary_2_Init_m3666073812_gshared
jIa:__ZN15ArchiveReadFileD0Ev
kCe:_SymmetricTransform_TransformBlock_m1524716432
JKi:_GUIUtility_TakeCapture_m1786193394
bje:_Array_compare_TisColor32_t874517518_m3842009370_gshared
lbd:__ZN11UnityEngine15PlatformWrapper18GetOperatingSystemEv
gpf:_ReadOnlyCollection_1_System_Collections_Generic_ICollectionU3CTU3E_Remove_m974176789_gshared
v9d:_Delegate_return_type_match_m4278947849
cMd:_InputField_GenerateHightlight_m1346735465
q_i:_Physics2D_Raycast_m1275014335
smi:_UnityEventBase_ToString_m2323130098
egi:_Uri_ParseNoExceptions_m1151989845
E$d:_GC_SuppressFinalize_m953228702
zUc:_FT_MSB
Xlj:__ZN15dense_hashtableINSt3__24pairIK10KeyWrapperINS1_IP11Il2CppClassjEEES4_EES6_N6il2cpp8metadata14ArrayClassHashEN14dense_hash_mapIS6_S4_SB_NS6_14EqualsComparerINSA_17ArrayClassCompareEEENS0_9allocatorIS8_EEE9SelectKeyESF_SH_E3endEv
bUf:_SoapServices_PreLoad_m490411755
Owi:_RectOffset__ctor_m2517237351
t7g:__Z63RuntimeInvoker_RuntimeObject_Int32_t2071877448_SByte_t454417549PFvvEPK10MethodInfoPvPS4_
mHj:__ZN6il2cpp6icalls8mscorlib4Mono8Security12Cryptography18KeyPairPersistence10_CanSecureEP12Il2CppString
uSh:_Action_1_Invoke_m4180501989_gshared
yPh:_Slider__ctor_m3124136916
vha:__ZN13GfxDeviceGLES14SetRasterStateEPK17DeviceRasterState
UKd:_InputField_set_caretPositionInternal_m231166704
qyf:_TlsServerHello__ctor_m3032108168
mCa:__ZN14SafeBinaryRead11EndTransferEv
aug:__ZL98ILGenerator_t99948092_CustomAttributesCacheGenerator_ILGenerator_Mono_GetCurrentOffset_m3553856682P21CustomAttributesCache
dvb:__ZN14SafeBinaryRead8TransferI8MonoPPtrEEvRT_PKc17TransferMetaFlags
Q0h:_InternalEnumerator_1_System_Collections_IEnumerator_get_Current_m1533037706_gshared
oya:__ZN21UniformBufferTFMethod13MapBoneBufferEj
gCf:_RecordProtocol_SendChangeCipherSpec_m3542001341
Fpe:_Array_InternalArray__set_Item_TisVector3_t2243707580_m1390667454_gshared
jsc:__ZN12GUIClipState10BeginOnGUIER10InputEvent
xnj:__ZNSt3__26vectorIcNS_9allocatorIcEEEC2Ej
ync:__Z40Register_UnityEngine_Input_GetKeyDownIntv
hAe:_KeyPairPersistence_CanSecure_m2251009700
PA:__ZN7mecanim5human14HumanPoseClearERNS0_9HumanPoseERKNS_6bitsetILj70EEE
IRf:_ReturnMessage_get_Properties_m531965085
Ffg:_GenericTypeParameterBuilder_IsSubclassOf_m563999142
Dce:_Exception_ToString_m627574695
$ig:_AddEventAdapter_Invoke_m3970567975
Jtc:__Z30Event_Get_Custom_PropModifiersP12Il2CppObject
Kx:__ZN7mecanim9animation16CreateClipOutputEPKNS0_4ClipERNS_6memory9AllocatorE
Lne:_Array_InternalArray__Insert_TisDecimal_t724701077_m1429254816_gshared
Nah:__Z191RuntimeInvoker_Int32_t2071877448_RuntimeObject_Int32_t2071877448_Int32_t2071877448_RuntimeObject_Int32_t2071877448_SByte_t454417549_Int32U26_t455636984_BooleanU26_t3168250738_SByte_t454417549PFvvEPK10MethodInfoPvPS4_
e4f:_TimeSpan_get_Days_m1002111510
CIb:__ZNSt3__218__stable_sort_moveIRN10vector_mapI17ScriptingClassPtrPKN5Unity4TypeENS_4lessIS2_EENS_9allocatorINS_4pairIS2_S6_EEEEE13value_compareENS_11__wrap_iterIPSB_EEEEvT0_SJ_T_NS_15iterator_traitsISJ_E15difference_typeEPNSM_10value_typeE
djb:__ZN6Shader21AwakeFromLoadThreadedEv
Dsa:__ZN6prcoreL17RemapGenericFloatI17TexFormatRGBFloat17TexFormatRGBAHalfEEvPKNS_9InnerInfoE
HZg:__ZL70InputField_t1631627530_CustomAttributesCacheGenerator_m_CharacterLimitP21CustomAttributesCache
vIj:__ZN6il2cpp2os9SemaphoreC2Eii
EUh:_InternalEnumerator_1_get_Current_m2960188445_AdjustorThunk
fvb:__ZNSt3__26vectorI8MonoPPtr13stl_allocatorIS1_L18MemLabelIdentifier1ELi16EEE8__appendEj
ZQh:_Text_set_alignByGeometry_m1514652028
rTb:__ZN14qsort_internal30FindAndMovePivotToLastPositionIP17RODataReplacementi19ROSorterReplacementEEvT_S4_T0_T1_
zya:__ZN15UniformTFMethod20IsBoneCountSupportedEi
pPe:_FileStream_get_Position_m465478322
d3i:__ZN14dense_hash_setI10KeyWrapperIPK19Il2CppGenericMethodEN6il2cpp8metadata23Il2CppGenericMethodHashENS4_14EqualsComparerINS6_26Il2CppGenericMethodCompareEEENSt3__29allocatorIS4_EEEC2EjRKS7_RKSA_
lQj:dynCall_viidi
Pne:_Array_InternalArray__Insert_TisInt64_t909078037_m3039874636_gshared
JRh:_ToggleGroup_NotifyToggleOn_m997426227
qCf:_RSASslSignatureDeformatter_SetKey_m1150106904
X5:__ZN24ScriptingMethodFiltering17FilterOnSignatureENS_18MethodSearchFilterE
qMh:_Scrollbar_ClickRepeat_m3403943364
XIc:__ZThn4_N16PhysicsManager2D12BeginContactEP9b2Contact
Y2b:__ZN18ScreenManagerWebGL13SetLockCursorE14CursorLockMode
e$c:_cf2_arrstack_finalize
GVe:_MonoType_GetMethodsByName_m1854415088
_uh:_Enumerator_get_CurrentValue_m3147984131_gshared
Ndg:_DerivedType_GetMethods_m165266904
RBe:_RSAManaged_EncryptValue_m4089823119
C8b:__ZN13MonoBehaviour19HandleNotificationsEPviR11MessageData
Mji:_Component_get_gameObject_m2159020946
$Ij:__ZN6il2cpp2os9EventImpl5ResetEv
z5i:__ZN6il2cpp2vm13MetadataCache23GetMethodGenericContextEPK10MethodInfo
pIi:_Event_get_keyCode_m4176847855
dQe:_ReadDelegate_Invoke_m2091885836
Weg:_TypeBuilder_GetField_m2112455315
ITj:b58
JTj:b59
CQb:__ZN25CameraStackRenderingState18EndStereoRenderingEv
qTj:b52
rTj:b53
Yxj:__ZN6il2cpp2vm12AssemblyName20AssemblyNameToStringERK18Il2CppAssemblyName
pTj:b51
GTj:b56
HTj:b57
sTj:b54
DTj:b55
_4d:_DateTime__ctor_m3604679583_AdjustorThunk
eBe:_MACAlgorithm_Core_m2390605245
K$h:_InternalEnumerator_1_System_Collections_IEnumerator_get_Current_m30488070_gshared
adc:__ZN10GameObject12CleanupClassEv
jia:__ZN9GfxDevice25SetShaderPropertiesSharedERK19ShaderPropertySheet
NGi:_IndexedSet_1_GetEnumerator_m3646001838_gshared
qpa:__ZN18AsyncUploadManager19AsyncResourceUploadER9GfxDeviceii9TextureID
DKh:_VertexHelper_AddUIVertexTriangleStream_m4009409241
scc:__ZL25InitializeDefaultMaterialv
z8c:__Z53Register_UnityEngine_CanvasRenderer_get_materialCountv
p2:__GLOBAL__sub_I_runtime_graphics_lod_0_cpp
lSh:_VertexHelper_AddVert_m3290455716
pGa:__ZN17PersistentManager12UnloadStreamERKN4core12basic_stringIcNS0_20StringStorageDefaultIcEEEEb
nK:__ZN15SerializeTraitsI9OffsetPtrIN7mecanim9animation17BlendTreeConstantEEE8TransferI19StreamedBinaryWriteILb0EEEEvRS4_RT_
E6b:__ZN14dense_hash_mapIN4core12basic_stringIcNS0_20StringStorageDefaultIcEEEE10vector_setI4PPtrI11SpriteAtlasENSt3__24lessIS8_EE13stl_allocatorIS8_L18MemLabelIdentifier81ELi16EEE20StringHash32FunctionIS4_ENS9_8equal_toIS4_EESC_INS9_4pairIKS4_SF_EELSD_81ELi16EEEixERSL_
G4a:__ZN13ScreenManager17RequestResolutionEiibi
eZf:_DESTransform__ctor_m4096028381
Zaj:_il2cpp_unity_liveness_calculation_from_statics
sB:__ZNK26AnimatorControllerPlayable11DerivesFromE17ScriptingClassPtr
t3f:_Scheduler_get_Instance_m1989471839
s3a:__ZN8Renderer8TransferI17RemapPPtrTransferEEvRT_
kth:__Z76RuntimeInvoker_Boolean_t3825574718_UIVertex_t1204258818_UIVertex_t1204258818PFvvEPK10MethodInfoPvPS4_
vff:_Collection_1_Contains_m1299140035_gshared
FTj:_glBlitFramebuffer__wrapper
ime:_Array_InternalArray__ICollection_Add_TisUICharInfo_t3056636800_m968274080_gshared
XHi:_ObjectPool_1__ctor_m1532275833_gshared
cnc:__Z22Input_CUSTOM_GetKeyInti
rRi:__ZL24UnresolvedVirtualCall_71P12Il2CppObjectS0_S0_iS0_S0_S0_PK10MethodInfo
e7e:_List_1_GetIndex_m3262928832_gshared
DNc:__ZN16PhysicsManager2D19AddRigidbodyUpdatesEP11Rigidbody2D
Z0b:__Z24LookRotationToQuaternionRK8Vector3fS1_P11Quaternionf
X0b:__ZN16ReflectionProbes9GetCameraEv
Mnb:__ZL18IsGpuProgramUsable20ShaderGpuProgramTypePK6Shader
rFe:_ArgumentException__ctor_m2105824819
c7c:__ZN2UI6Canvas17SetSortingLayerIDEi
KAd:_BaseMeshEffect_get_graphic_m3358796463
Cvj:__ZN6il2cpp2vm11MethodStack23CleanupForCurrentThreadEv
GWi:_Predicate_1_Invoke_m695569038_gshared
UYe:_Enumerator_VerifyState_m825848279_AdjustorThunk
QSa:__ZN20TierGraphicsSettings8TransferI24GenerateTypeTreeTransferEEvRT_
CKi:_GUIStyleState_Cleanup_m824895509
Rwb:__ZN14SafeBinaryRead21TransferSTLStyleArrayI13dynamic_arrayI4AABBLj4EEEEvRT_17TransferMetaFlags
jZa:__ZN18UnityPropertySheet8TransferI19StreamedBinaryWriteILb0EEEEvRT_
EAf:_TlsServerCertificate_checkServerIdentity_m3836435780
cfa:__ZNSt3__26__treeINS_12__value_typeIiN11TypeManager18TypeCallbackStructEEENS_19__map_value_compareIiS4_NS_4lessIiEELb1EEENS_9allocatorIS4_EEE7destroyEPNS_11__tree_nodeIS4_PvEE
TCe:_PKCS12_Decrypt_m2353135969
Iji:_Color32_ToString_m685380321
Akg:_MonoEvent_ToString_m386956596
FHc:__ZN16PhysicsManager2D42RegisterTransformChangeInterestForColliderEP10Collider2D
Kqe:_Array_Sort_TisRuntimeObject_m3309514378_gshared
xma:__ZL19GetCameraTargetRectRK6Camerabb
lad:__ZN11UnityEngine7Connect17XRDeviceInfoEventD0Ev
rxh:_Transform_1_BeginInvoke_m1786442111_gshared
XIe:_Int32_GetFormatException_m1729046182
ELa:__ZN13dynamic_arrayIN10GameObject13ComponentPairELj4EE6insertEPS1_RKS1_
z0:__ZN21UnityDefaultAllocatorI17LowLevelAllocatorE10DeallocateEPv
Ht:__ZN15PackedIntVector8TransferI14SafeBinaryReadEEvRT_
ejg:_FieldInfo_get_IsLiteral_m267898096
w5g:__Z45RuntimeInvoker_RuntimeObject_Int64_t909078037PFvvEPK10MethodInfoPvPS4_
EDf:_SslStreamBase_EndNegotiateHandshake_m1732321201
Pxh:_Transform_1_BeginInvoke_m1167293475_gshared
LO:__ZN13AudioListener8DoUpdateEv
lvc:__ZN5Unity9rapidjson13GenericReaderINS0_4UTF8IcEES3_13JSONAllocatorE9ParseTrueILj1ENS0_25GenericInsituStringStreamIS3_EENS0_15GenericDocumentIS3_S4_S4_EEEEvRT0_RT1_
g0d:__Z13bankers_roundd
Jdb:__ZN14SafeBinaryRead8TransferI5RectTIfEEEvRT_PKc17TransferMetaFlags
ti:_emscripten_glGenFramebuffers
oZd:_Hashtable_CopyTo_m2778915805
Zea:__ZN17BaseObjectManager16StaticInitializeEPv
bdg:_ConstructorBuilder_get_IsCompilerContext_m2796899803
Pje:_Array_IndexOf_TisUIVertex_t1204258818_m613887160_gshared
H0d:_DateTime_CoreParse_m2014268103
Bxc:__Z18Transfer_BlittableI9JSONWriteLb0EyEvRK29SerializationCommandArgumentsR31RuntimeSerializationCommandInfo
tXa:__ZN13RenderTexture15ThreadedCleanupEv
Tie:_Array_BinarySearch_TisRuntimeObject_m3361740551_gshared
__a:__ZN12CubemapArray23VirtualRedirectTransferER14SafeBinaryRead
Ox:__ZN21AnimationClipPlayable16ProcessHumanPassEPK35AnimationPlayableEvaluationConstantPK32AnimationPlayableEvaluationInputP33AnimationPlayableEvaluationOutput
npf:_ReadOnlyCollection_1_System_Collections_IList_Add_m616574295_gshared
YIe:_Int32_ProcessTrailingWhitespace_m2812079777
Eoc:__Z43RectTransform_CUSTOM_INTERNAL_set_sizeDeltaP12Il2CppObjectRK13Vector2fIcall
AIf:_WebProxy__ctor_m3679722173
Lrj:__ZN15dense_hashtableINSt3__24pairIK10KeyWrapperINS1_IPKcS4_EEEiEES6_24NamespaceAndNamePairHashN14dense_hash_mapIS6_iS9_NS6_14EqualsComparerI26NamespaceAndNamePairEqualsEENS0_9allocatorIS8_EEE9SelectKeyESD_SF_E6insertERKS8_
cEa:__ZN24GenerateTypeTreeTransfer18BeginArrayTransferEPKcS1_Ri17TransferMetaFlags
Fpa:__Z16DecompressCrunchPKhRjR13TextureFormatiiii18MemLabelIdentifier
nm:___syscall51
rm:___syscall54
zob:__ZN9ShaderLab9SubShader19CreateFromSubShaderERKS0_
eH:__ZNK8Animator20IsAnyRendererVisibleEv
L$c:_cff_builder_add_point1
Fsj:__ZN6il2cpp2vm5Image21GetCachedResourceDataEPK11Il2CppImageRKNSt3__212basic_stringIcNS5_11char_traitsIcEENS5_9allocatorIcEEEE
vId:_HorizontalOrVerticalLayoutGroup_set_childControlWidth_m4209477792
Xle:_Array_InternalArray__ICollection_Add_TisUInt32_t2149682021_m2629016323_gshared
Otb:__Z18Transfer_BlittableI14SafeBinaryReadLb0E10ColorRGBAfEvRK29SerializationCommandArgumentsR31RuntimeSerializationCommandInfo
Aa:invoke_iiiiiiiiii
IW:__ZN11AudioSource25GetNumExtensionPropertiesEv
Dne:_Array_InternalArray__Insert_TisKeyValuePair_2_t888819835_m975554221_gshared
$9g:__Z59RuntimeInvoker_RuntimeObject_Int64_t909078037_RuntimeObjectPFvvEPK10MethodInfoPvPS4_
igb:__ZN18LoadSceneOperation19IntegrateTimeSlicedEi
E3f:_Scheduler_SchedulerThread_m2209572785
Yve:_SortKeyBuffer_GetResultAndReset_m2516956577
d5b:__ZN10FileSystem19SetCurrentDirectoryERKN4core12basic_stringIcNS0_20StringStorageDefaultIcEEEE
F8:__ZN16ScriptingManager24NotifyScriptCacheReleaseEi
Ikc:__Z47Register_UnityEngine_Coroutine_ReleaseCoroutinev
wP:__ZN15AudioReverbZone13SetFMODValuesEv
e5:__ZL19StaticDestroyShaderPv
de:_glRenderbufferStorageMultisample
Bvi:_Ray_GetPoint_m2427899009
AC:__ZN23AnimationPlayableOutput17SetTargetAnimatorEP8Animator
Yyc:__ZN9JSONWrite8TransferI13dynamic_arrayIN4math12int3_storageELj4EEEEvRT_PKc17TransferMetaFlags
bti:_X509Chain__ctor_m1113875360
Aof:_ReadOnlyCollection_1__ctor_m2387481411_gshared
ZAf:_TlsServerHello_processProtocol_m1241336522
Zfe:_Array_InternalArray__ICollection_Remove_TisKeyValuePair_2_t888819835_m1287715465_gshared
S9h:_ContextAttribute_IsContextOK_m3281216012
oRe:_PathTooLongException__ctor_m3212099251
dWf:_ObjectManager_RaiseDeserializationEvent_m1611173032
fv:__ZN17PackedFloatVector8TransferI18StreamedBinaryReadILb0EEEEvRT_
a0a:__ZN7Cubemap23VirtualRedirectTransferER17RemapPPtrTransfer
Bmc:__Z37Register_UnityEngine_Screen_get_widthv
ofc:__ZN22BlockMemoryCacheWriter11GetPathNameEv
QGd:_Graphic_Rebuild_m2617722358
nic:__ZN23TransformChangeDispatch38CheckAndClearChangedForMultipleSystemsEyP19ProfilerInformation
N6d:_DateTime_ToString_m3108726445_AdjustorThunk
rY:__ZN19CloudServiceHandlerD2Ev
dte:_Array_InternalArray__get_Item_TisTableRange_t2011406615_m602485977_gshared
XLd:_InputField_Append_m2623574152
lFe:_ApplicationException__ctor_m1120437222
dp:stackAlloc
$kc:__Z44Camera_CUSTOM_INTERNAL_CALL_ScreenPointToRayP12Il2CppObjectRK8Vector3fR3Ray
uJa:__ZN25SingleBlockMemoryFileData4LockEPPv
bhg:_MethodBuilder_GetHashCode_m1713271764
gcf:_Collection_1_IsSynchronized_m1319022347_gshared
fve:_MSCompatUnicodeTable_GetResource_m3816716847
Mmc:__Z32RectOffset_Get_Custom_PropBottomP12Il2CppObject
bPd:_Array_CreateInstance_m15016505
hwb:__ZNSt3__26vectorI17AnimationCurveTplIfE13stl_allocatorIS2_L18MemLabelIdentifier1ELi16EEE6assignINS_11__wrap_iterIPS2_EEEENS_9enable_ifIXaasr21__is_forward_iteratorIT_EE5valuesr16is_constructibleIS2_NS_15iterator_traitsISC_E9referenceEEE5valueEvE4typeESC_SC_
cMj:_stat
Vjd:_RijndaelTransform_Decrypt128_m1282993908
hXi:_Canvas_get_isRootCanvas_m3746337338
ane:_Array_InternalArray__ICollection_CopyTo_TisUInt16_t986882611_m3228377237_gshared
q_g:__ZL68Navigation_t1571958496_CustomAttributesCacheGenerator_m_SelectOnDownP21CustomAttributesCache
_Fc:__ZN15b2DistanceJoint23InitVelocityConstraintsERK12b2SolverData
MNb:__ZNSt3__218__insertion_sort_3IRNS_4lessIN22BuiltinResourceManager8ResourceEEEPS3_EEvT0_S7_T_
njd:_RC2_set_KeySize_m2015782960
ma:invoke_iiiiiiiiiiii
HCe:_StrongName_get_PublicKey_m3777577320
$li:_PersistentCallGroup_Initialize_m3729167844
kS:__ZN10AudioMixer12RebindOutputEv
vlj:__ZNK15dense_hashtableINSt3__24pairIK10KeyWrapperIP11Il2CppClassES4_EES5_N6il2cpp8metadata16SZArrayClassHashEN14dense_hash_mapIS5_S4_SA_NS5_14EqualsComparerINS9_19SZArrayClassCompareEEENS0_9allocatorIS7_EEE9SelectKeyESE_SG_E5beginEv
Q$i:__ZN6il2cpp2vm17SetupFieldsLockedEP11Il2CppClassRKNS_2os12FastAutoLockE
NS:__ZN11AudioSourceD0Ev
ksb:__ZN16MemoryFileSystem4NameEv
xvd:_BaseRaycaster_OnEnable_m3641767070
sUe:_MissingMemberException_get_Message_m2763732423
Jsf:_PrimeGeneratorBase_get_PrimalityTest_m308005118
irc:__Z13SetCopyBufferRKN4core12basic_stringIcNS_20StringStorageDefaultIcEEEE
A1e:_List_1_CheckIndex_m2328469916_gshared
wdh:__Z75RuntimeInvoker_RuntimeObject_RuntimeObject_Decimal_t724701077_RuntimeObjectPFvvEPK10MethodInfoPvPS4_
hTc:_UNITY_FT_New_Size
Xic:__Z42ScriptingGetComponentsOfTypeFromGameObjectRK26ScriptingGetComponentsArgs
EIi:_GUI_set_changed_m3199207797
naf:_List_1_get_Item_m3157283227_gshared
Y3d:_Convert_ToString_m2915777777
GZa:__ZNSt3__27__sort4IRPFbRKNS_4pairIN9ShaderLab16FastPropertyNameEN18UnityPropertySheet11UnityTexEnvEEES8_EPS6_EEjT0_SD_SD_SD_T_
a$c:_cf2_hintmap_build
WYc:_Line_Up
mWe:_MonoType_GetGenericTypeDefinition_m2363776160
ezf:_Context_set_SentConnectionEnd_m2641458842
ke:_emscripten_glBufferSubData
mSd:_Buffer_BlockCopyInternal_m2627156229
JGd:_Graphic_set_material_m329335629
gvd:_ExecuteEvents_get_pointerExitHandler_m3250605428
Fra:__ZN6prcoreL12RemapGenericI15TexFormatRGB88817TexFormatARGB8888EEvPKNS_9InnerInfoE
Vp:__Z17CalculateGlobalRS23TransformAccessReadOnly
Hxe:_Kernel_multiByteDivide_m735279869
NDh:_Dictionary_2_ToTValue_m542772656_gshared
c3f:_Thread_GetNewManagedId_internal_m3211695465
CYi:_UISystemProfilerApi_EndSample_m3264820872
bpa:__ZN17GenericDynamicVBO17DrawChunkInternalERK21DynamicVBOChunkHandle17ShaderChannelMaskS3_P17VertexDeclarationP16DrawBuffersRangeij
Nwb:__ZN14SafeBinaryRead21TransferSTLStyleArrayI13dynamic_arrayI9BoundsIntLj4EEEEvRT_17TransferMetaFlags
Sib:__ZN22MemoryCacherReadBlocks14LockCacheBlockEjPPhS1_
nRd:_Boolean_System_IConvertible_ToChar_m2637404801_AdjustorThunk
upd:_SecurityContext_Capture_m2535194991
c7f:_UInt16_System_IConvertible_ToSByte_m3044765342_AdjustorThunk
DRb:__ZNK9GfxDevice26GetSinglePassStereoEyeMaskEv
rch:__Z66RuntimeInvoker_Void_t1841601450_Int64_t909078037_Int32_t2071877448PFvvEPK10MethodInfoPvPS4_
gSc:__ZN20TextRenderingPrivate8FontImpl16CacheFontForTextEPtiifjPK13dynamic_arrayINS_16TextFormatChangeELj4EE
Ype:_Array_qsort_TisUIVertex_t1204258818_TisUIVertex_t1204258818_m512606409_gshared
chd:__Z21ArrayElementTypeCheckP11Il2CppArrayPv
WWj:_emscripten_glTexSubImage2D__wrapper
lGf:_NameValueCollection_AsSingleString_m10599052
VXb:__ZN14qsort_internal30FindAndMovePivotToLastPositionIP21ForwardRenderPassDataiN23ForwardShaderRenderLoop18RenderObjectSorterILb0EEEEEvT_S6_T0_T1_
mXe:_Object_InternalGetHashCode_m1371384246
uKh:_Navigation_get_defaultNavigation_m2185194207
MOc:__ZN16PhysicsManager2D20WorldContactFilter2D13ShouldCollideEP9b2FixtureS2_
SKe:_Int32_System_IConvertible_ToSByte_m1449623243_AdjustorThunk
FEe:_AccessViolationException__ctor_m1270251537
F9c:__Z42Register_UnityEngine_Canvas_get_rootCanvasv
uti:_X509ExtensionCollection_IndexOf_m3972100651
cvb:__Z14resize_trimmedINSt3__26vectorI8MonoPPtr13stl_allocatorIS2_L18MemLabelIdentifier1ELi16EEEEEvRT_j
Te:_TTF_RenderText_Solid
Y7f:_UInt32_System_IConvertible_ToInt64_m3091851828
vUe:_MissingMethodException__ctor_m3898429715
CTf:_RemotingConfiguration_RegisterClientProviderTemplate_m514821425
Nvh:_Enumerator_System_Collections_IEnumerator_Reset_m3085583937_gshared
lfa:__ZN15dense_hashtableINSt3__24pairIKPKcPK4RTTIEES3_N11TypeManager23ConstCharPtrHashFunctorEN14dense_hash_mapIS3_S7_SA_NS9_19ConstCharPtrEqualToE13stl_allocatorIS8_L18MemLabelIdentifier7ELi16EEE9SelectKeyESC_SF_E15insert_noresizeERKS8_
SBe:_RSAManaged_ExportParameters_m2873993187
H$d:_Convert__cctor_m926133987
dbf:_Enumerator__ctor_m2816143215_AdjustorThunk
oed:__ZN11UnityEngine7Connect16PersistentValuesC2Ev
mLf:_X509Chain_FindParent_m404663796
fxc:__Z18Transfer_BlittableI9JSONWriteLb0E5RectTIiEEvRK29SerializationCommandArgumentsR31RuntimeSerializationCommandInfo
uUe:_MissingMemberException__ctor_m2164043278
VYi:__ZL7log2_32j
TNf:_Interpreter_GetGroupInfo_m312421921
Iva:__Z15IsIEEE754Format14GraphicsFormat
Jyb:__Z19TransferField_ArrayI17RemapPPtrTransfer27Converter_UnityEngineObjectEvRK23StaticTransferFieldInfoR31RuntimeSerializationCommandInfoRT0_
$a:invoke_iifiii
ZWb:__ZN19ShaderPropertySheet24SetTextureFromTextureRefERK23FastTexturePropertyNamePK10TextureRef
uMe:_NumberFormatter_InitDecHexDigits_m1612588520
yja:__ZN13GfxDeviceGLES15UploadTexture2DE9TextureID16TextureDimensionPKhiii14GraphicsFormati18TextureUploadFlags16TextureUsageMode
nR:__ZN4FMOD6System9createDSPEP20FMOD_DSP_DESCRIPTIONPPNS_3DSPE
YB:__ZN7mecanim9animation26DestroyControllerWorkspaceEPNS0_19ControllerWorkspaceERNS_6memory9AllocatorE
qN:__ZN4FMOD8ChannelI11EndCallbackEv
Ymd:_ToBase64Transform_TransformBlock_m2201454137
mtc:__ZN8GUIStyle14SetDefaultFontEPN13TextRendering4FontE
Phg:_OpCode_get_StackBehaviourPop_m3787015663_AdjustorThunk
Qbi:_PatternCompiler_EmitCount_m3609178511
_3a:__ZN15QualitySettings23VirtualRedirectTransferER24GenerateTypeTreeTransfer
Ebj:__ZN6il2cpp2os10FileHandleC2Ev
B2i:__ZN30dense_hashtable_const_iteratorINSt3__24pairIK10KeyWrapperIPK19Il2CppGenericMethodEPK26Il2CppGenericMethodIndicesEES6_N6il2cpp8metadata23Il2CppGenericMethodHashEN14dense_hash_mapIS6_SA_SE_NS6_14EqualsComparerINSD_26Il2CppGenericMethodCompareEEENS0_9allocatorISB_EEE9SelectKeyESI_SK_EppEv
fFf:_HybridDictionary_Add_m1037587952
LSc:_UNITY_FT_Request_Metrics
jqj:__ZN6il2cpp6icalls8mscorlib6System10Reflection10MonoMethod29get_IsGenericMethodDefinitionEP22Il2CppReflectionMethod
Pmj:__ZN6il2cpp2vm6Thread21AllocThreadStaticDataEi
K0d:_DateTime_YearMonthDayFormats_m4204607055
pCd:_ColorBlock_set_disabledColor_m3502887543_AdjustorThunk
Xyj:__ZN30dense_hashtable_const_iteratorINSt3__24pairIK10KeyWrapperIPK19Il2CppGenericMethodEP10MethodInfoEES6_N6il2cpp8metadata23Il2CppGenericMethodHashEN14dense_hash_mapIS6_S9_SD_NS6_14EqualsComparerINSC_26Il2CppGenericMethodCompareEEENS0_9allocatorISA_EEE9SelectKeyESH_SJ_EppEv
VV:__Z13RegisterClassI13AudioListenerEvv
CLi:_Aes__ctor_m4020215067
Ewc:__Z18Transfer_BlittableI9JSONWriteLb0E8Vector3fEvRK29SerializationCommandArgumentsR31RuntimeSerializationCommandInfo
Sf:_emscripten_glUniform4i
OGd:_Graphic_OnDisable_m2360886868
bIi:_ObjectPool_1_Release_m1615270002_gshared
cf:_emscripten_glUniform4f
yj:___unlock
dHa:__ZN15dense_hashtableINSt3__24pairIKN4core12basic_stringIcNS2_20StringStorageDefaultIcEEEEP20ArchiveStorageReaderEES6_20StringHash32FunctionIS6_EN14dense_hash_mapIS6_S9_SC_NS0_8equal_toIS6_EE13stl_allocatorISA_L18MemLabelIdentifier55ELi16EEE9SelectKeyESF_SI_ED2Ev
ZNh:_ScrollRect_InternalCalculateOffset_m3083065267
x3b:__ZN13sorted_vectorINSt3__24pairIN4core12basic_stringIcNS2_20StringStorageDefaultIcEEEES6_EEN10vector_mapIS6_S6_27compare_tstring_insensitiveIS6_E13stl_allocatorIS7_L18MemLabelIdentifier38ELi16EEE13value_compareESD_E9erase_oneIS6_EEjRKT_
HXd:_Comparer_Compare_m4132969818
wT:__ZN20SoundChannelInstance19setReverbPropertiesEP29FMOD_REVERB_CHANNELPROPERTIES
BFh:_DefaultComparer_Equals_m2171836276_gshared
fpj:__ZN6il2cpp2vm9Exception18GetFormatExceptionEPKc
Tqc:__Z40Register_UnityEngine_Transform_IsChildOfv
voi:_Mathf_Floor_m484333823
zVd:_ArrayList_Sort_m923359189
Xmi:_Gradient_Init_m3042650694
Plc:__Z45Register_UnityEngine_Display_GetSystemExtImplv
Ny:__ZN7mecanim9animation23TransformValuesFromClipEiiiRKNS_10ValueArrayERKNS0_10ClipOutputERKNS0_12ClipBindingsERS1_RNS_14ValueArrayMaskEb
SYi:__ZL17log2withScale_128yyi
N5c:__ZNSt3__218__insertion_sort_3IRNS_6__lessIN2UI14DepthSortEntryES3_EEPS3_EEvT0_S7_T_
S8b:__ZN2UI13RectTransform15InitializeClassEv
kda:__ZN13RuntimeStaticI15DirectorManagerLb0EE16StaticInitializeEPv
AAc:__ZN8JSONRead8TransferI23ManagedObjectTransfererEEvRT_PKc17TransferMetaFlagsb
ctf:_ASN1_get_Value_m2229768312
Rud:_BaseInput_get_touchCount_m998724785
ycb:__ZN11TimeManager6UpdateEv
pMd:_InputField_get_preferredWidth_m3185355225
W2f:_Thread_SetState_m3198426726
TVd:_ArrayListWrapper_Contains_m1158465965
jMj:_fflush
TNa:__ZN17LightProbeContext4InitERK16LightmapSettingsRK14RenderSettings
sJj:__GLOBAL__sub_I_Error_cpp
iPi:_AudioSource_INTERNAL_CALL_ReadExtensionPropertyName_m3694806886
$di:_Alternation_GetWidth_m4218808325
Vpf:_ReadOnlyCollection_1_System_Collections_IList_Insert_m2651065875_gshared
RUc:_ft_bitmap_glyph_bbox
sGf:_TypeConverterAttribute__ctor_m4061167050
Gaf:_Enumerator_MoveNext_m3315718998_gshared
zI:__ZN14SafeBinaryRead21TransferSTLStyleArrayI22OffsetPtrArrayTransferI9OffsetPtrIN7mecanim12statemachine21SelectorStateConstantEEEEEvRT_17TransferMetaFlags
zDj:_GC_reclaim_uninit
k$b:__Z34ProcessIndexListIsNodeVisibleStep2RK22SceneCullingParametersPK9SceneNodePK4AABBR9IndexList
CKb:__ZN10MonoScriptD2Ev
Iu:__ZN18StreamedBinaryReadILb0EE8TransferINSt3__26vectorIN13AnimationClip12Vector3CurveE13stl_allocatorIS5_L18MemLabelIdentifier26ELi16EEEEEEvRT_PKc17TransferMetaFlags
eQh:_Slider_OnRectTransformDimensionsChange_m4109401172
wIf:_WebHeaderCollection_Get_m3391944907
jnc:__Z39Input_CUSTOM_INTERNAL_get_mousePositionP8Vector3f
XXc:_tt_cmap13_char_next
wob:__ZN9ShaderLab4Pass16SetupPassOptionsEv
fh:_JS_Sound_ReleaseInstance
_Ng:__ZL72IL2CPPStructAlignmentAttribute_t130316838_CustomAttributesCacheGeneratorP21CustomAttributesCache
xia:__ZN13GfxDeviceGLES19DrawBuffersIndirectEP9GfxBufferPK18VertexStreamSourceiP17VertexDeclaration17ShaderChannelMask16GfxPrimitiveType15ComputeBufferIDj
XDd:_DefaultControls_CreateScrollbar_m770089625
HVj:_emscripten_glPixelStorei__wrapper
kNc:__Z20GetRigidbodyChildrenRK9Transform13dynamic_arrayIP11Rigidbody2DLj4EE
Em:FUNCTION_TABLE_diddi
Xoc:__Z26Material_CUSTOM_SetIntImplP12Il2CppObjectii
GIe:_Int16_System_IConvertible_ToSingle_m3277935657_AdjustorThunk
h5c:__ZNK2UI14CanvasRenderer22GetTypeVirtualInternalEv
rai:_InternalRemotingServices__cctor_m3821625125
Zmc:__Z42Register_UnityEngine_RectOffset_get_bottomv
a0f:_StringBuilder_Insert_m3322917127
KEh:_DefaultComparer_Equals_m724229128_gshared
Cwh:_Enumerator_VerifyCurrent_m1702320752_AdjustorThunk
Owb:__ZN9BoundsInt8TransferI14SafeBinaryReadEEvRT_
y2d:_Convert_ToDouble_m3520060872
aVj:_emscripten_glUniform1f__wrapper
VPj:dynCall_di
wCf:_SslCipherSuite_ComputeServerRecordMAC_m1876572367
SRc:__ZN20TextRenderingPrivate19NativeTextGeneratorC2ERK11UTF16StringPNS_8FontImplE11ColorRGBA32ifRK8Vector2fbifiibffbbbP13dynamic_arrayIN2UI8UIVertexELj4EE
lwc:__Z28RegisterModule_JSONSerializev
j2f:_Interlocked_CompareExchange_m3227034792
Ohd:_HashAlgorithm_get_Hash_m931854461
q3h:_DefaultComparer_Compare_m3564013922_gshared
ypb:__ZN2UI13RectTransform8TransferI14SafeBinaryReadEEvRT_
xxc:__Z35Transfer_Blittable_FixedBufferFieldI9JSONWriteaEvRK29SerializationCommandArgumentsR31RuntimeSerializationCommandInfo
Sih:__Z63RuntimeInvoker_RuntimeObject_Ray_t2469606224_Single_t2076509932PFvvEPK10MethodInfoPvPS4_
Rgc:__Z20IsHumanControllingUsv
ZQb:__ZNK19RenderEventsContext21ExecuteCommandBuffersEijR17ShaderPassContextR15RenderNodeQueueP19ProfilerInformationi
o1:__ZNK20DynamicHeapAllocatorI17LowLevelAllocatorE10GetPtrSizeEPKv
Ns:__ZN7mecanim5human9HumanGoal8TransferI14SafeBinaryReadEEvRT_
Fzi:_Texture2D_GetPixelBilinear_m3514551520
iz:__ZN17AnimationPlayable16AllocateBindingsEPK35AnimationPlayableEvaluationConstant
IEd:_Dropdown_set_value_m2945561009
oia:__ZN13GfxDeviceGLES17DestroyGpuProgramEPK10GpuProgram
QFe:_GregorianCalendar_GetMonth_m523739832
mtb:__Z44InitializeTransferFunctionScriptingTraitsForI18StreamedBinaryReadILb0EEEvR31TransferFunctionScriptingTraits
jXb:__ZNSt3__218__insertion_sort_3IR23CompareReflectionProbesP31RuntimeReflectionProbeBlendInfoEEvT0_S5_T_
Tyb:__ZN12NativeBufferI27Converter_SimpleNativeClassI8GradientEE15SetupForWritingER9ArrayInfo
aga:__ZNSt3__213__stable_sortIRNS_4lessIN4core12basic_stringIcNS2_20StringStorageDefaultIcEEEEEENS_11__wrap_iterIPS6_EEEEvT0_SC_T_NS_15iterator_traitsISC_E15difference_typeEPNSF_10value_typeEi
_2:__ZN12_GLOBAL__N_113StaticDestroyEPv
dIe:_Guid_ToString_m51661589
LQh:_Text_set_font_m1095513810
MZj:_glUnmapBuffer__wrapper
N5d:_DateTime_System_IConvertible_ToUInt32_m1363211018_AdjustorThunk
IJd:_InputField_get_cachedInputTextGenerator_m881618486
aoc:__Z32Mesh_CUSTOM_ExtractArrayFromListP12Il2CppObject
Ibg:_Binder_get_DefaultBinder_m965620943
dBc:__ZN8JSONRead21TransferSTLStyleArrayINSt3__26vectorI8Gradient13stl_allocatorIS3_L18MemLabelIdentifier1ELi16EEEEEEvRT_17TransferMetaFlags
Vcb:__ZNSt3__218__insertion_sort_3IRNS_6__lessINS_4pairIPKN5Unity4TypeE7Hash128EES8_EEPS8_EEvT0_SC_T_
BAb:__ZN10RectOffset8TransferI24GenerateTypeTreeTransferEEvRT_
bQd:_SimpleEnumerator_get_Current_m482975946
PMj:_srand
fJc:__ZNK10Collider2D15GetAttachedBodyEv
Nzb:__Z18Transfer_BlittableI24GenerateTypeTreeTransferLb1E5RectTIiEEvRK29SerializationCommandArgumentsR31RuntimeSerializationCommandInfo
NPa:__ZNSt3__24listI4PPtrI6CameraENS_9allocatorIS3_EEE6removeERKS3_
w5c:__ZN2UI13CanvasManager19RemoveDirtyRendererEPNS_6CanvasEPNS_14CanvasRendererE
A3i:__ZN15dense_hashtableI10KeyWrapperIPK17Il2CppGenericInstES4_N6il2cpp8metadata21Il2CppGenericInstHashEN14dense_hash_setIS4_S7_NS4_14EqualsComparerINS6_24Il2CppGenericInstCompareEEENSt3__29allocatorIS4_EEE8IdentityESB_SE_E12resize_deltaEjj
_hc:__ZN8Material14DisableKeywordERKN4core12basic_stringIcNS0_20StringStorageDefaultIcEEEE
Zad:__ZN11UnityEngine15PlatformWrapper25GetGraphicsRendererStringEv
DLd:_InputField_KeyPressed_m3066588581
jPh:_Selectable_DoStateTransition_m539253088
fmd:_SHA512_Create_m439875055
X$:__ZN11UnityEngine15CloudWebService17WebFileDownloaderINS0_20WebRequestRestClientENS0_23WebRequestRestHeaderMapEED2Ev
Ub:invoke_vi
Zld:_SHA384Managed_update_m2629600295
pHc:__ZNSt3__26vectorINS0_IN10ClipperLib8IntPointENS_9allocatorIS2_EEEENS3_IS5_EEE7reserveEj
Myc:__ZN9JSONWrite8TransferI13dynamic_arrayI9BoundsIntLj4EEEEvRT_PKc17TransferMetaFlags
Sb:invoke_vd
sb:invoke_vf
waa:__ZNK10GameObject8IsActiveEv
FWe:_NumberFormatter__cctor_m1641464619
iUg:__ZL67g_UnityEngine_PhysicsModule_Assembly_CustomAttributesCacheGeneratorP21CustomAttributesCache
PXf:_SByte_System_IConvertible_ToUInt32_m4256495110
vxd:_PointerEventData_set_eligibleForClick_m2036057844
wva:__ZN18GfxFramebufferGLES23SetupDefaultFramebufferEPP17RenderSurfaceBaseS2_N2gl6HandleILNS3_10ObjectTypeE9EEE
rMj:_mbsinit
HVg:__ZL70EventSystem_t3466835263_CustomAttributesCacheGenerator_m_FirstSelectedP21CustomAttributesCache
b5a:__ZN13ScreenManager18RequestOrientationE17ScreenOrientation
n0i:__ZN6il2cpp2vm5Class12SetupMethodsEP11Il2CppClass
tic:__Z39DeleteLastPathNameComponentWithAnySlashRKN4core12basic_stringIcNS_20StringStorageDefaultIcEEEE
msc:__ZN10GUIManager14InitGUIManagerEv
DZg:__ZL68InputField_t1631627530_CustomAttributesCacheGenerator_m_KeyboardTypeP21CustomAttributesCache
pSh:_VerticalLayoutGroup_CalculateLayoutInputHorizontal_m497637066
sQf:_MethodCall__ctor_m4106494862
T6g:__Z167RuntimeInvoker_Void_t1841601450_SByte_t454417549_SByte_t454417549_SByte_t454417549_SByte_t454417549_SByte_t454417549_SByte_t454417549_SByte_t454417549_SByte_t454417549PFvvEPK10MethodInfoPvPS4_
vuc:__Z37Register_UnityEngine_GUIStyle_Cleanupv
Oa:invoke_iiifii
hqc:__Z39Register_UnityEngine_Time_set_timeScalev
Y8i:__ZN6il2cpp6icalls8mscorlib6System8MonoType13IsPointerImplEP20Il2CppReflectionType
i2d:_Convert_ToDecimal_m2284596541
Ri:_emscripten_glFramebufferRenderbuffer
$Zb:__ZN19CullingGroupManager17CullAndSendEventsERK22SceneCullingParametersiRK13CullingOutputRK8JobFence
fMe:_Int64_GetHashCode_m4047499913
FLa:__ZN9Transform30EnsureTransformHierarchyExistsEv
Jaj:_il2cpp_field_get_flags
pV:__ZN11AudioModule26SetDefaultMicrophoneDriverEPv
zQd:_Attribute_IsDefined_m216577166
DUd:_Char_ToUpper_m109978609
$Xh:_InternalEnumerator_1_get_Current_m1089848479_gshared
Cae:_Double_System_IConvertible_ToInt64_m3798425616
ezd:_StandaloneInputModule_get_repeatDelay_m3025279
v6a:__ZN14dense_hash_mapIN4core12basic_stringIcNS0_20StringStorageDefaultIcEEEE13dynamic_arrayI4PPtrI6SpriteELj4EE20StringHash32FunctionIS4_ENSt3__28equal_toIS4_EE13stl_allocatorINSC_4pairIKS4_S9_EEL18MemLabelIdentifier81ELi16EEEixERSH_
o3b:__ZNSt3__26vectorINS_4pairIN4core12basic_stringIcNS2_20StringStorageDefaultIcEEEEPK17MessageIdentifierEENS_9allocatorISA_EEE12__move_rangeEPSA_SE_SE_
nyi:_SceneManager_LoadSceneAsyncNameIndexInternal_m1250496078
sTb:__ZN14qsort_internal17MedianOfThreeSwapIP17RODataReplacement19ROSorterReplacementEEvT_S4_S4_T0_
e$i:__ZNK15dense_hashtableINSt3__24pairIK10KeyWrapperIPK22Il2CppGenericParameterEP11Il2CppClassEES6_N6il2cpp5utils11PointerHashIS4_EEN14dense_hash_mapIS6_S9_SE_NS6_14EqualsComparerINS0_8equal_toIS5_EEEENS0_9allocatorISA_EEE9SelectKeyESJ_SL_E3endEv
pic:__ZN17TransformInternal36OnScaleChangedCalculateTransformTypeE15TransformAccess
XWd:_SynchronizedArrayListWrapper_InsertRange_m709359548
wHa:__ZN17ArchiveFileSystem10ToAbsoluteEPKc
xsf:_BigInteger_op_Modulus_m13450242
Mbd:__ZN19UnityConnectService15GetPlayerUserIdEv
_2d:_Convert_ToInt32_m2988544165
nqe:_Array_Resize_TisColor32_t874517518_m2219502085_gshared
ID:__ZN7mecanim6CRCKeyENS_7eStringE
oEf:_SslStreamBase_get_CanWrite_m2069502593
Gfc:__ZL12SetPrefValueRKN4core12basic_stringIcNS_20StringStorageDefaultIcEEEERK9PrefValue
Gzj:__ZN6il2cpp5utils11StringUtils6PrintfEPKcz
UZa:__ZN15NameToObjectMapI6ShaderNSt3__23mapI4PPtrIS0_EN4core12basic_stringIcNS5_20StringStorageDefaultIcEEEENS1_4lessIS4_EENS1_9allocatorINS1_4pairIKS4_S9_EEEEEENS1_8multimapIS9_S4_NSA_IS9_EENSC_INSD_IKS9_S4_EEEEEEE4FindERSK_
Kwh:_ShimEnumerator_Reset_m98005789_gshared
z$a:__ZN24GenerateTypeTreeTransfer21TransferResourceImageE19ActiveResourceImagePKcR13StreamingInfoPvjiPKN5Unity4TypeE
_4h:_ResourceEnumerator__ctor_m1679839941
Rnf:_ReadOnlyCollection_1_System_Collections_IList_set_Item_m1377990618_gshared
Bgg:_ILGenerator_make_room_m373147874
lEh:_Dictionary_2_Init_m1045257495_gshared
WRd:_Boolean_CompareTo_m3691698947_AdjustorThunk
$je:_Array_InternalArray__IndexOf_TisKeyValuePair_2_t888819835_m2660446234_gshared
rBe:_PKCS1_Verify_v15_m2571212635
WUa:__ZNSt3__212__deque_baseI18ReflectionProbeJobNS_9allocatorIS1_EEED2Ev
eD:__ZN11UnityEngine9Animation27DestroyAnimationSetBindingsEPNS0_20AnimationSetBindingsERN7mecanim6memory9AllocatorE
akb:__ZN15dense_hashtableINSt3__24pairIKiN4core17string_with_labelILi1EEEEEi18SInt32HashFunctionN14dense_hash_mapIiS5_S7_NS0_8equal_toIiEE13stl_allocatorIS6_L18MemLabelIdentifier1ELi16EEE9SelectKeyESA_SD_E13set_empty_keyERKS6_
gL:__ZN8Animator12CleanupClassEv
xZf:_DecoderReplacementFallbackBuffer__ctor_m1305504326
bBc:__Z13TransferFieldI8JSONReadLb0E27Converter_SimpleNativeClassI10RectOffsetEEvRK23StaticTransferFieldInfoR31RuntimeSerializationCommandInfoRT1_
osd:_String_IndexOf_m570401060
mbe:_Enum_System_IConvertible_ToDateTime_m2924690746
iFd:_Dropdown_CreateBlocker_m4109366440
Jhd:_HashAlgorithm_System_IDisposable_Dispose_m2106335965
Gsj:__GLOBAL__sub_I_GenericMetadata_cpp
k8i:__ZN6il2cpp6icalls8mscorlib6System8MonoType18GetFields_internalEP20Il2CppReflectionTypeiS5_
N_b:__Z24CalculateSpotLightBoundsffRK10Matrix4x4fR15SpotLightBounds
ive:_TailoringInfo__ctor_m2248501932
mY:__ZN23CloudWebServicesManager23VirtualRedirectTransferER14SafeBinaryRead
y6g:__Z150RuntimeInvoker_Int32_t2071877448_RuntimeObject_Int32_t2071877448_Int32_t2071877448_RuntimeObject_Int32_t2071877448_Int32_t2071877448_Int32_t2071877448PFvvEPK10MethodInfoPvPS4_
tWd:_FixedSizeArrayListWrapper_InsertRange_m2690348965
fKb:__Z19ShouldTransferFieldR32SerializationCommandQueueBuilder17ScriptingClassPtriR18TransferField_InfoRK20CoreScriptingClasses
yig:_FieldInfo_get_IsStatic_m1411173225
DQe:_MemoryStream_Read_m2289595005
_za:__ZN26SinglePassStereoSupportExt21SetStereoMatrixCommonE21MonoOrStereoscopicEye24BuiltinShaderMatrixParamRK10Matrix4x4f
VR:__ZN5audio5mixer22UpdateAudioMixerMemoryERKNS0_18AudioMixerConstantERNS0_16AudioMixerMemoryEfPN4FMOD6SystemEf
yQc:__ZL21InitializeCachedStripPv
Ynj:__ZN6il2cpp6icalls8mscorlib6System9Threading6Thread23GetCachedCurrentCultureEP12Il2CppThread
EOh:_Selectable_get_allSelectables_m3045831006
sNa:__ZNK6Camera22GetWorldToCameraMatrixEv
svj:__ZN6il2cpp2vm12GenericClass11IsValueTypeEP18Il2CppGenericClass
cJb:__ZN13MonoBehaviour7SetNameEPKc
rvf:_ContentInfo__ctor_m3579805263
Q1i:__ZN15dense_hashtableINSt3__24pairIK10KeyWrapperIPKcEP11Il2CppClassEES5_N6il2cpp5utils11StringUtils12StringHasherIS4_EEN14dense_hash_mapIS5_S8_SE_NS5_14EqualsComparerINSB_13VmStringUtils21CaseSensitiveComparerEEENS0_9allocatorIS9_EEE9SelectKeyESJ_SL_E15set_deleted_keyERKS9_
MNh:_ScrollRect_get_verticalNormalizedPosition_m1701804869
D2:__GLOBAL__sub_I_runtime_shaders_shaderimpl_0_cpp
ygb:__ZN18AwakeFromLoadQueue5ClearEv
Yyh:_Enumerator_get_Current_m2986380627_AdjustorThunk
qZb:__ZNSt3__27__sort5IR15ReflProbeSorterPP15ReflectionProbeEEjT0_S6_S6_S6_S6_T_
Ida:__ZN8Playable10DisconnectEPS_i
qVh:_InternalEnumerator_1_get_Current_m1526874475_AdjustorThunk
tk:_glGenTransformFeedbacks
gGa:__ZN13LoadOperationD2Ev
Zze:_KeyPairPersistence__ctor_m1817312194
kXi:_Canvas_set_scaleFactor_m3986864146
ufe:_Array_InternalArray__ICollection_Contains_TisMark_t2724874473_m1640201705_gshared
VMb:__Z21PlayerStartFirstSceneb
qeg:_TypeBuilder_get_AssemblyQualifiedName_m2097258567
HZa:__ZNSt3__27__sort5IRPFbRKNS_4pairIN9ShaderLab16FastPropertyNameEN18UnityPropertySheet11UnityTexEnvEEES8_EPS6_EEjT0_SD_SD_SD_SD_T_
pna:__ZNK7ApiGLES18GetExtensionStringEv
Cya:__ZN31TransformFeedbackSkinPoseBufferD0Ev
bVj:_emscripten_glVertexAttrib1f__wrapper
tqb:__ZNK12HandlerChain4SizeERK13FileEntryData
gFh:_DefaultComparer_Equals_m1281232537_gshared
bp:FUNCTION_TABLE_iiiiiiiii
QKd:_InputField_set_asteriskChar_m619206227
$Yf:_DES_IsSemiWeakKey_m3967392585
QDc:__Z22GetPhysicsGroundBody2Dv
MIe:_Int16_System_IConvertible_ToUInt32_m883204517_AdjustorThunk
Rlg:_MonoProperty_get_PropertyType_m1921201152
CDd:_FloatTween_TweenValue_m3881535116_AdjustorThunk
nCj:_GC_allochblk
Ngb:__Z15UnloadGameScenev
HZj:_glCheckFramebufferStatus__wrapper
tfb:__ZNSt3__26vectorIN30RuntimeInitializeOnLoadManager15ClassMethodInfoE13stl_allocatorIS2_L18MemLabelIdentifier13ELi16EEE7reserveEj
XFj:__ZN6il2cpp2vm6Atomic9IncrementEPVi
Crf:_BigInteger_get_Rng_m2525288368
LMf:_X509ExtensionEnumerator_Reset_m3200687545
IXd:_CaseInsensitiveHashCodeProvider__ctor_m3775398833
vmc:__Z36Renderer_Get_Custom_PropSortingOrderP12Il2CppObject
wJi:_GUIContent__cctor_m976962423
gfj:__ZNK15dense_hashtableINSt3__24pairIK10KeyWrapperIPK10Il2CppTypeEjEES6_N6il2cpp8metadata14Il2CppTypeHashEN14dense_hash_mapIS6_jSB_NS6_14EqualsComparerINSA_26Il2CppTypeEqualityComparerEEENS0_9allocatorIS8_EEE9SelectKeyESF_SH_E13find_positionERS7_
wWa:__ZN7Texture5ResetEv
fDc:__ZNK14b2CapsuleShape7RayCastEP15b2RayCastOutputRK14b2RayCastInputRK11b2Transformi
czb:__Z18Transfer_BlittableI24GenerateTypeTreeTransferLb1EhEvRK29SerializationCommandArgumentsR31RuntimeSerializationCommandInfo
akc:__ZNK16TypeTreeIterator10ByteOffsetEv
tGd:_Graphic_get_rectTransform_m2697395074
Rca:__ZnwjRKSt9nothrow_t
BG:__ZN8Animator11ClearObjectEv
OJf:_X500DistinguishedName_Decode_m3070515374
oYa:__ZN14SafeBinaryRead19TransferSTLStyleMapINSt3__23mapI39DeprecatedFastPropertyNameSerializationN18UnityPropertySheet11UnityTexEnvENS1_4lessIS3_EENS1_9allocatorINS1_4pairIKS3_S5_EEEEEEEEvRT_17TransferMetaFlags
FHf:_IPv6Address_set_ScopeId_m1442934355
eWf:_ObjectManager_RaiseOnDeserializedEvent_m512850179
Xjc:__Z35UnregisterSerializationCacheBuilderPFv17ScriptingClassPtrR23CachedSerializationDataRbE
iOa:__Z30GetBuiltinVectorParamArraySize24BuiltinShaderVectorParam
Vue:_CodePointIndexer__ctor_m797342079
k2a:__ZN18StreamedBinaryReadILb0EE21TransferSTLStyleArrayI13dynamic_arrayI7Hash128Lj8EEEEvRT_17TransferMetaFlags
$2a:__ZN21RendererUpdateManager11AddRendererER8Renderer
O7b:__Z13RegisterClassI15ResourceManagerEvv
Wtb:__Z35Transfer_Blittable_FixedBufferFieldI14SafeBinaryReadsEvRK29SerializationCommandArgumentsR31RuntimeSerializationCommandInfo
v8a:__ZN14SafeBinaryRead21TransferSTLStyleArrayI13dynamic_arrayIfLj4EEEEvRT_17TransferMetaFlags
Hzj:__ZN6il2cpp5utils11StringUtils11Utf16ToUtf8EPKDs
Yeb:__ZN18StreamedBinaryReadILb0EE21TransferSTLStyleArrayINSt3__26vectorIN15ResourceManager10DependencyE13stl_allocatorIS5_L18MemLabelIdentifier52ELi16EEEEEEvRT_17TransferMetaFlags
obd:__ZN11UnityEngine15PlatformWrapper20IsRootedOrJailbrokenEv
YPb:__ZZ23InitPlayerLoopCallbacksvEN52PreLateUpdateScriptRunBehaviourLateUpdateRegistrator7ForwardEv
oKf:_X509Certificate2_GetNameInfo_m402390219
J_b:__Z33IntersectAABBPlaneBoundsOptimizedRK4AABBPKN4math7_float4Ei
gQd:_Swapper_BeginInvoke_m2652511022
Mwi:_RectOffset_t3387826427_marshal_pinvoke_back
Bia:__ZN9GfxDevice19EndGeometryJobFrameEv
Yyb:__ZN27Converter_SimpleNativeClassI17AnimationCurveTplIfEE17ScriptingToNativeER18ScriptingObjectPtrPS1_
XHj:__ZN6il2cpp8metadata24Il2CppGenericInstCompare7CompareERK10KeyWrapperIPK17Il2CppGenericInstES8_
y2i:__ZNK15dense_hashtableINSt3__24pairIK10KeyWrapperIPK19Il2CppGenericMethodEPK26Il2CppGenericMethodIndicesEES6_N6il2cpp8metadata23Il2CppGenericMethodHashEN14dense_hash_mapIS6_SA_SE_NS6_14EqualsComparerINSD_26Il2CppGenericMethodCompareEEENS0_9allocatorISB_EEE9SelectKeyESI_SK_E5beginEv
KGd:_Graphic_get_materialForRendering_m2600868951
pKj:_TimerFinScript_Start_m2880519496
Xw:__ZN27AnimationLayerMixerPlayable21UpdateLayerParametersEv
wfc:__ZN9Polygon2D7DefaultEv
gff:_Collection_1_System_Collections_IList_Contains_m3210868188_gshared
m9b:__ZNK17AnimationCurveTplIfE8EvaluateEfPNS0_5CacheE
aPb:__Z31ManagerContextInitializeClassesv
PJe:_NumberFormatter_AppendIntegerString_m868842252
qsg:__ZL53SortedList_t3004938869_CustomAttributesCacheGeneratorP21CustomAttributesCache
nTc:_UNITY_FT_List_Finalize
vUb:__Z20LightAttenuateApproxRKfS0_
mDa:__ZN9Scripting30SetCachedPtrOnScriptingWrapperE18ScriptingObjectPtrP6Object
uCb:__Z18Transfer_BlittableI19StreamedBinaryWriteILb0EELb0EdEvRK29SerializationCommandArgumentsR31RuntimeSerializationCommandInfo
Ktd:_ASCIIEncoding_GetBytes_m3649277167
FFc:__ZN16b2PrismaticJoint4DumpEv
oK:__ZN7mecanim9animation21BlendTreeNodeConstant8TransferI19StreamedBinaryWriteILb0EEEEvRT_
gSa:__ZN18BlockRangeInternal16PopLastNodeIndexEP10BlockRangeji
Y9f:_Version__ctor_m2972638031
mye:_Kernel_MultiplyByDword_m155008287
R7a:__ZN4MeshD0Ev
V9g:__Z121RuntimeInvoker_Void_t1841601450_Int64_t909078037_RuntimeObject_RuntimeObject_Int64_t909078037_RuntimeObject_RuntimeObjectPFvvEPK10MethodInfoPvPS4_
Fgd:__ZL42RequestRecreateEyeTexturesBeforeNextUpdatev
rma:__ZNK6Camera20IsCurrentlyRenderingEv
My:__ZN21AnimationClipPlayable23ProcessRootMotionNoClipEPK35AnimationPlayableEvaluationConstantPK32AnimationPlayableEvaluationInputP33AnimationPlayableEvaluationOutput
i8c:__Z36CanvasRenderer_CUSTOM_SetPopMaterialP12Il2CppObjectS0_i
acj:_UpdatedEventHandler_Invoke_m4240581743
Exc:__Z18Transfer_BlittableI9JSONWriteLb0EdEvRK29SerializationCommandArgumentsR31RuntimeSerializationCommandInfo
aFc:__ZNK11b2GearJoint16GetReactionForceEf
oJ:__ZN15SerializeTraitsI9OffsetPtrIN7mecanim9animation17BlendTreeConstantEEE8TransferI24GenerateTypeTreeTransferEEvRS4_RT_
SRh:_Toggle_OnDidApplyAnimationProperties_m325835214
gLj:_wctomb
dlc:__Z27Camera_CUSTOM_GetAllCamerasP11Il2CppArray
I$d:_Convert_InternalFromBase64String_m3682756716
_c:___cxa_rethrow
hzc:__Z18Transfer_BlittableI8JSONReadLb1EhEvRK29SerializationCommandArgumentsR31RuntimeSerializationCommandInfo
dMc:__ZN18Overlap2DQueryBase13ReportFixtureEP9b2Fixture
u4f:_TimeSpan_Add_m3228293154
jFh:_DefaultComparer_Equals_m4098991076_gshared
D1b:__ZN13MonoBehaviour8SetClassE17ScriptingClassPtr18ScriptingObjectPtr
Yuf:_RC4__cctor_m523650203
W9h:_CrossContextDelegate_Invoke_m2908136830
hrb:__ZN20LocalFileSystemPosix4ReadER13FileEntryDatayyPvPy
XXb:__ZNSt3__211__sift_downIRN23ForwardShaderRenderLoop18RenderObjectSorterILb0EEEP21ForwardRenderPassDataEEvT0_S7_T_NS_15iterator_traitsIS7_E15difference_typeES7_
GTe:_UnmanagedMemoryStream_get_Position_m4093669769
sJb:__ZN13MonoBehaviour5DoGUIENS_13GUILayoutTypeEii
keg:_DerivedType_IsDefined_m555719351
abi:_Mark_get_IsDefined_m3332701456
XEa:__ZNK12TLSAllocatorI14StackAllocatorE8ContainsEPKv
Acb:__ZN11TimeManager8TransferI18StreamedBinaryReadILb0EEEEvRT_
Vob:__ZN15SerializeTraitsINSt3__23mapI4PPtrI6ShaderEN4core12basic_stringIcNS5_20StringStorageDefaultIcEEEENS0_4lessIS4_EENS0_9allocatorINS0_4pairIKS4_S9_EEEEEEE8TransferI24GenerateTypeTreeTransferEEvRSH_RT_
kZf:_DESTransform__cctor_m1179482644
c8a:__ZN14BlendShapeData8TransferI14SafeBinaryReadEEvRT_
xbe:_Enum_Format_m2294492821
k$a:__ZN7Texture25ReloadFromStorageIfNeededEPvb
ywc:__Z35Transfer_Blittable_FixedBufferFieldI9JSONWritehEvRK29SerializationCommandArgumentsR31RuntimeSerializationCommandInfo
wag:_OverflowException__ctor_m2564269836
Uwh:_ShimEnumerator_get_Entry_m2332479818_gshared
t6d:_DateTime_CheckDateTimeKind_m329345155_AdjustorThunk
R1c:_Update_Max
knj:__ZN6il2cpp6icalls8mscorlib6SystemL15ThrowNoWideningEv
u9b:__ZNK23TransformChangeDispatch24GetChangeMaskForInterestENS_12InterestTypeE
wqc:__Z45Transform_CUSTOM_INTERNAL_CALL_TransformPointP12Il2CppObjectRK8Vector3fRS1_
Qef:__ZN23InterfaceActionInvoker2Ii18Color32_t874517518E6InvokeEjP11Il2CppClassP12Il2CppObjectiS0_
B5b:__ZL10KeyHandleriPK23EmscriptenKeyboardEventPv
kJc:__ZN15dense_hashtableINSt3__24pairIKNS1_IPK10Collider2DS4_EE11Collision2DEES5_NS2_23ColliderPairHashFunctorEN14dense_hash_mapIS5_S7_S9_NS0_8equal_toIS5_EE13stl_allocatorIS8_L18MemLabelIdentifier67ELi16EEE9SelectKeyESC_SF_EC2ERKSI_j
GYa:__ZNSt3__26__treeINS_12__value_typeI39DeprecatedFastPropertyNameSerializationfEENS_19__map_value_compareIS2_S3_NS_4lessIS2_EELb1EEENS_9allocatorIS3_EEE7destroyEPNS_11__tree_nodeIS3_PvEE
AXc:_tt_cmap4_char_index
V4f:_TimeSpan_op_Addition_m3421801803
Dqb:__ZNK12HandlerChain8IsHiddenERK13FileEntryData
YYg:__ZL50Graphic_t2426225576_CustomAttributesCacheGeneratorP21CustomAttributesCache
myb:__ZL26Transfer_SimpleNativeClassI17RemapPPtrTransfer10RectOffsetLb0EEvRK29SerializationCommandArgumentsR31RuntimeSerializationCommandInfo
QTc:__Z14ValidateFormatR13dynamic_arrayIN20TextRenderingPrivate16TextFormatChangeELj4EE
Yt:__ZNSt3__26vectorIN13AnimationClip15QuaternionCurveE13stl_allocatorIS2_L18MemLabelIdentifier26ELi16EEE6assignINS_11__wrap_iterIPS2_EEEENS_9enable_ifIXaasr21__is_forward_iteratorIT_EE5valuesr16is_constructibleIS2_NS_15iterator_traitsISC_E9referenceEEE5valueEvE4typeESC_SC_
p5d:_DateTime_System_IConvertible_ToInt32_m2789391054_AdjustorThunk
Jgh:__Z73RuntimeInvoker_Single_t2076509932_Vector3_t2243707580_Vector3_t2243707580PFvvEPK10MethodInfoPvPS4_
Wye:_ASN1Convert_FromInt32_m1541043489
yyd:_PointerInputModule_ProcessMove_m3200120346
p0d:_Convert_ToByte_m1008221737
Ztf:_MD2Managed_MD2Transform_m3825201358
E_g:__ZL69Scrollbar_t3248359358_CustomAttributesCacheGenerator_m_OnValueChangedP21CustomAttributesCache
NGc:__ZN10ClipperLib14PointInPolygonERKNS_8IntPointEPNS_5OutPtE
NEd:_Dropdown_AddOptions_m835420907
eOa:__ZNK9ShaderLab20ShaderBlendStateDesc15ToGfxBlendStateEPK19ShaderPropertySheetS3_R13GfxBlendState
ZBd:_CanvasUpdateRegistry_IsRebuildingLayout_m1677873278
JC:__ZN11UnityEngine9AnimationL22GenericBindingCallbackEPvS1_i
B1c:_Compute_Point_Displacement
Cob:__ZN9ShaderLab9IntShaderC2Ev
d9i:__ZN6il2cpp6icalls8mscorlib6SystemL9IsPrivateEPK9EventInfo
zGj:__ZN6il2cpp6icalls8mscorlib6System10Reflection4Emit11TypeBuilder20setup_internal_classEP27Il2CppReflectionTypeBuilderS7_
ETh:_ArrayReadOnlyList_1_IndexOf_m1809425308_gshared
Raj:_il2cpp_gc_disable
Ivc:__ZN5Unity9rapidjson6WriterI16TempBufferWriterNS0_4UTF8IcEES4_13JSONAllocatorE11WriteUint64Ey
fxd:_ExecuteEvents_U3Cs_HandlerListPoolU3Em__0_m2903690915
xZd:_Hashtable_Clone_m165405752
IFc:__ZN16b2PrismaticJoint24SolveVelocityConstraintsERK12b2SolverData
Q_i:__ZN13Il2CppHashMapIPK22Il2CppGenericParameterP11Il2CppClassN6il2cpp5utils11PointerHashIS1_EENSt3__28equal_toIS2_EENS9_9allocatorINS9_4pairIK10KeyWrapperIS2_ES4_EEEEEC2EjRKS8_RKSB_
zAc:__ZN8JSONRead21TransferSTLStyleArrayI31ArrayOfManagedObjectsTransfererEEvRT_17TransferMetaFlags
fKa:__Z15CreateDirectoryRKN4core12basic_stringIcNS_20StringStorageDefaultIcEEEE
LVa:__Z21CalculateGlobalMatrix23TransformAccessReadOnly
brg:__ZL70InternalsVisibleToAttribute_t1037732567_CustomAttributesCacheGeneratorP21CustomAttributesCache
Fcb:__ZNK13BuildSettings22GetTypeVirtualInternalEv
nOe:_MonoIO_GetCurrentDirectory_m1509324201
J0f:_UTF32Encoding_GetHashCode_m4205784236
k1d:_DateTime_ToUniversalTime_m1815024752
M7b:__Z13RegisterClassI14RenderSettingsEvv
k0b:__ZNK25CameraStackRenderingState25CalculateCameraTargetTypeEv
YEj:_GC_set_on_event
fth:__Z80RuntimeInvoker_Boolean_t3825574718_Navigation_t1571958496_Navigation_t1571958496PFvvEPK10MethodInfoPvPS4_
ecf:_Collection_1_ConvertItem_m3563206219_gshared
S4f:_TimeSpan_Subtract_m3597791685_AdjustorThunk
$A:__ZN7mecanim12statemachine24CreateStateMachineOutputEPKNS0_20StateMachineConstantEjRNS_6memory9AllocatorE
qvj:__ZN6il2cpp2vm12GenericClass8GetClassEP18Il2CppGenericClass
aja:__ZNK9GfxDevice27GetActiveRenderSurfaceWidthEv
$ad:__ZN11UnityEngine15PlatformWrapper28GetCleanGraphicsFixedVersionEv
w:tempBigIntP
qdj:__ZN6il2cpp2vm4Type7GetTypeEPK10Il2CppType
i6b:__ZN16SpriteRenderData28PrepareRenderingDataIfNeededEv
lQd:_AssemblyLoadEventHandler_Invoke_m108373765
xyd:_PointerInputModule_ShouldStartDrag_m4163638715
wRi:__ZL24UnresolvedVirtualCall_76P12Il2CppObjectPK10MethodInfo
Ksa:__ZN6prcoreL17RemapGenericFloatI18TexFormatRGBAFloat17TexFormatRGBAHalfEEvPKNS_9InnerInfoE
zQb:__Z16FindCameraStacksRKNSt3__24listI4PPtrI6CameraENS_9allocatorIS3_EEEERNS_6vectorI11CameraStackNS4_ISA_EEEE
K1a:__ZN10GISettings8TransferI14SafeBinaryReadEEvRT_
xn:FUNCTION_TABLE_vifff
aof:_ReadOnlyCollection_1_System_Collections_Generic_ICollectionU3CTU3E_Remove_m2957273994_gshared
v2b:__ZN19CustomRenderTexture12ClearGPUDataEv
nvd:_BaseInputModule_ShouldActivateModule_m2899747874
qsh:__Z86RuntimeInvoker_Int32_t2071877448_DateTimeOffset_t1362988906_DateTimeOffset_t1362988906PFvvEPK10MethodInfoPvPS4_
FWa:__ZN13RenderTexture13ApplySettingsEv
zSj:_glVertexAttrib4f__wrapper
Xe:_JS_Sound_SetListenerPosition
pn:FUNCTION_TABLE_fiffi
Bhg:_ModuleBuilderTokenGenerator_GetToken_m3427457873
_7c:__Z55Register_UnityEngine_CanvasGroup_get_ignoreParentGroupsv
TOh:_Selectable_get_isPointerInside_m3162215687
zje:_Array_FindIndex_TisRuntimeObject_m4149904176_gshared
c0e:_List_1_System_Collections_IList_Contains_m149594880_gshared
D9f:_UnauthorizedAccessException__ctor_m3480402128
jye:_BigInteger_op_Modulus_m3788401748
Vda:__ZZN15DirectorManager15InitializeClassEvEN45FixedUpdateDirectorFixedSampleTimeRegistrator7ForwardEv
wai:_ArgInfo_GetInOutArgs_m3184132151
Iib:__ZNK8Material16MarkDependenciesER27GarbageCollectorThreadState
nJc:__ZN15dense_hashtableINSt3__24pairIKNS1_IPK10Collider2DS4_EE11Collision2DEES5_NS2_23ColliderPairHashFunctorEN14dense_hash_mapIS5_S7_S9_NS0_8equal_toIS5_EE13stl_allocatorIS8_L18MemLabelIdentifier67ELi16EEE9SelectKeyESC_SF_E5clearEv
Hxc:__ZL17Transfer_GUIStyleI9JSONWriteLb0EEvRK29SerializationCommandArgumentsR31RuntimeSerializationCommandInfo
nVb:__Z28GetHaloVertexPositionsStereoP8Vector3fRKS_S2_f
zta:__ZN6prcoreL27StretchGenericFloatBilinearI15TexFormatRGHalfEEvPKNS_9InnerInfoE
gZe:_Enumerator_MoveNext_m598197344_AdjustorThunk
y2:__GLOBAL__sub_I_runtime_misc_0_cpp
Gr:__ZN13AnimationClip23VirtualRedirectTransferER18StreamedBinaryReadILb0EE
ctd:_String_JoinUnchecked_m1880555587
kOa:__ZNK9ShaderLab7Program21GetMatchingSubProgramEPK6ShaderPKNS_4PassERK16ShaderKeywordSetjPS7_R19ShaderSnippetResult
Ene:_Array_InternalArray__Insert_TisKeyValuePair_2_t1174980068_m2464431954_gshared
Toc:__Z49Register_UnityEngine_Resources_GetBuiltinResourcev
MXc:_tt_cmap10_char_index
JEd:_Dropdown_Awake_m335654827
QDh:_Dictionary_2_U3CCopyToU3Em__0_m1479035402_gshared
pXd:_BitArray_set_Item_m3801461194
s$i:__ZN15dense_hashtableINSt3__24pairIK10KeyWrapperIPK22Il2CppGenericParameterEP11Il2CppClassEES6_N6il2cpp5utils11PointerHashIS4_EEN14dense_hash_mapIS6_S9_SE_NS6_14EqualsComparerINS0_8equal_toIS5_EEEENS0_9allocatorISA_EEE9SelectKeyESJ_SL_E3endEv
Nsd:_String_Remove_m3580114465
PKi:_GUIUtility_EndGUIFromException_m3100752188
MW:__ZN11AudioSource24ClearExtensionPropertiesE12PropertyName
Vmb:__ZN9ShaderLab22SerializedBindChannels8TransferI19StreamedBinaryWriteILb0EEEEvRT_
xwb:__ZN15SerializeTraitsI5RectTIiEE8TransferI14SafeBinaryReadEEvRS1_RT_
Rch:__Z82RuntimeInvoker_Int32_t2071877448_RuntimeObject_Int32_t2071877448_Int16_t4041245914PFvvEPK10MethodInfoPvPS4_
ptc:__ZN5IMGUI20MoveWindowFromLayoutER8GUIStateiRK5RectTIfE
tTc:_UNITY_FT_Stream_ReadUShort
bLd:_InputField_OnEnable_m3797157569
bnc:__Z51Register_UnityEngine_GUILayer_INTERNAL_CALL_HitTestv
nYa:__ZNSt3__26__treeINS_12__value_typeIN4core12basic_stringIcNS2_20StringStorageDefaultIcEEEES6_EENS_19__map_value_compareIS6_S7_NS_4lessIS6_EELb1EEE13stl_allocatorIS7_L18MemLabelIdentifier1ELi16EEE7destroyEPNS_11__tree_nodeIS7_PvEE
qWi:_Nullable_1__ctor_m796575255_gshared
NAj:__ZN6il2cpp2vm8Profiler7GCEventE13Il2CppGCEvent
z5d:_DateTimeUtils_ToString_m3878360633
Ylj:__ZN15dense_hashtableINSt3__24pairIK10KeyWrapperIP11Il2CppClassES4_EES5_N6il2cpp8metadata16SZArrayClassHashEN14dense_hash_mapIS5_S4_SA_NS5_14EqualsComparerINS9_19SZArrayClassCompareEEENS0_9allocatorIS7_EEE9SelectKeyESE_SG_E4findERS6_
jnj:__ZN6il2cpp6icalls8mscorlib6SystemL16ThrowInvalidCastEPK11Il2CppClassS5_
Goa:__Z13IsDepthFormat14GraphicsFormat
Pdb:__ZN12AspectRatios8TransferI24GenerateTypeTreeTransferEEvRT_
kii:_Bounds_GetHashCode_m458298790
bQc:__Z12FormatBufferPciPKcz
Pzd:_TouchInputModule_Process_m1373751353
Ugg:_MethodBuilder_Invoke_m1874904900
E$i:__ZN6il2cpp2vm5Class13GetArrayClassEP11Il2CppClassj
$Mb:__ZN19RuntimeSceneManager18LoadSceneAsyncIntoER10UnitySceneRKN4core12basic_stringIcNS2_20StringStorageDefaultIcEEEENS_11LoadingModeEb
Xdg:_DerivedType_InvokeMember_m4149586013
FEf:_TlsStream_SetLength_m1460039587
wtc:__ZN11IMGUIModule12AddGUIScriptER8ListNodeI13MonoBehaviourE
qb:invoke_difi
sca:__ZL50StaticRegisterSceneLoadedCallback_LightmapSettingsPv
Y8g:__Z119RuntimeInvoker_Void_t1841601450_RuntimeObject_RuntimeObject_RuntimeObject_RuntimeObject_Int32_t2071877448_RuntimeObjectPFvvEPK10MethodInfoPvPS4_
Om:FUNCTION_TABLE_iiffi
MHd:_GridLayoutGroup_get_cellSize_m1061731753
eoa:__ZN21GLESGpuProgramApplier11ApplyVectorERKN20GpuProgramParameters14ValueParameterEPK8Vector4ft
$9c:__ZN22BaseUnityConnectClient17SaveSessionValuesEv
Efi:_Parser_IsIgnoreCase_m4155598997
ZIi:_GUILayoutUtility_LayoutSingleGroup_m3024581181
XZc:_cff_size_done
E_b:__ZN29ExtractProjectionPlanesHelperILb1EE5ApplyERK10Matrix4x4fP5Plane
fRb:__ZN22RenderingCommandBuffer13GetAndCheckRTE24BuiltinRenderTextureTypeRKN9ShaderLab16FastPropertyNameEPKcPP13RenderTexture
L2b:__ZN6Camera34UpdatePreviousViewProjectionMatrixEv
MXa:__ZN9ShaderLab11ShaderState25RemoveUnsupportedProgramsEPK6Shader
Pnb:__ZL23AddGpuProgramParametersR20GpuProgramParametersRKNSt3__26vectorIN9ShaderLab20SerializedSubProgram15MatrixParameterENS1_9allocatorIS5_EEEERKNS2_INS4_15VectorParameterENS6_ISB_EEEEiP16PropertyNamesSet
crc:__Z44Register_UnityEngine_Object_DestroyImmediatev
Ewg:__ZL62_ConstructorBuilder_t1236878896_CustomAttributesCacheGeneratorP21CustomAttributesCache
Dhc:__Z26scripting_class_has_parent17ScriptingClassPtrS_
MLe:_Int64_System_IConvertible_ToInt16_m2022633688_AdjustorThunk
xXe:_OrdinalComparer__ctor_m2952942058
Scd:__ZNSt3__26__treeINS_12__value_typeIN4core12basic_stringIcNS2_20StringStorageDefaultIcEEEEN11UnityEngine7Connect19RemoteSettingsValueEEENS_19__map_value_compareIS6_SA_NS_4lessIS6_EELb1EEE13stl_allocatorISA_L18MemLabelIdentifier6ELi16EEE16__construct_nodeERKNS_4pairIKS6_S9_EE
uAi:_Transform_INTERNAL_get_localPosition_m130325652
sX:__Z71Register_UnityEngine_AudioSource_INTERNAL_CALL_ClearExtensionPropertiesv
hJj:__ZN6il2cpp8metadata25Il2CppGenericClassCompare7CompareEPK18Il2CppGenericClassS4_
lG:__ZNK8Animator20IsInMatchTargetStateEv
EO:__ZN13AudioListener23VirtualRedirectTransferER24GenerateTypeTreeTransfer
Dm:FUNCTION_TABLE_viiifiii
buc:__Z36Register_UnityEngine_GUI_set_changedv
UCd:_ColorTween_get_startColor_m278546349_AdjustorThunk
K_f:_Encoding_get_Unicode_m1382741113
fii:_Behaviour_set_enabled_m602406666
J8h:_LifetimeServices_set_SponsorshipTimeout_m1403222216
IUd:_Char_ToString_m1401375624_AdjustorThunk
jle:_Array_InternalArray__ICollection_Add_TisTableRange_t2011406615_m147373358_gshared
I1d:_Convert_ToDateTime_m1251728572
lle:_Array_InternalArray__ICollection_Add_TisBoolean_t3825574718_m1009318882_gshared
Xof:_ReadOnlyCollection_1_System_Collections_IList_set_Item_m1149349508_gshared
wA:__ZN27AnimationLayerMixerPlayable18SetInputConnectionEP8Playablei
fA:__ZN7mecanim28TransformValueArrayBlendNodeEiiiRKNS_10ValueArrayERKNS_14ValueArrayMaskERS0_RS3_RNS_16ValueArrayWeightEf
GVf:_ObjectReader_ReadObjectContent_m3949770110
xpi:_Mesh_get_colors32_m1054093013
d1i:__ZN6il2cpp2vm5Class40GetInterfaceInvokeDataFromVTableSlowPathEPK12Il2CppObjectPK11Il2CppClassj
ZSa:__ZN20TierGraphicsSettings8TransferI18StreamedBinaryReadILb0EEEEvRT_
JQh:_Text_get_font_m3115501113
qmj:__GLOBAL__sub_I_Thread_cpp
vYa:__ZN14SafeBinaryRead8TransferINSt3__24pairIN9ShaderLab16FastPropertyNameE10ColorRGBAfEEEEvRT_PKc17TransferMetaFlags
IYi:__ZL9rshift128PyS_
AVf:_ObjectReader_RecordFixup_m1893348030
Vse:_LayoutGroup_SetProperty_TisRuntimeObject_m1703476175_gshared
Reg:_EnumBuilder_GetElementType_m1228393631
ekj:__ZN14dense_hash_mapI10KeyWrapperINSt3__24pairIPK12PropertyInfoP11Il2CppClassEEEj17ReflectionMapHashIS8_ENS9_14EqualsComparerINS1_8equal_toIS8_EEEENS1_9allocatorINS2_IKS9_jEEEEE13set_empty_keyERSH_
Pg:_glRenderbufferStorage
Hrj:__ZNK15dense_hashtableINSt3__24pairIK10KeyWrapperINS1_IPKcS4_EEEiEES6_24NamespaceAndNamePairHashN14dense_hash_mapIS6_iS9_NS6_14EqualsComparerI26NamespaceAndNamePairEqualsEENS0_9allocatorIS8_EEE9SelectKeyESD_SF_E13find_positionERS7_
Jnc:__Z45Register_UnityEngine_Input_get_touchSupportedv
dbd:__ZN11UnityEngine15PlatformWrapper28GetTextureFormatSupportFlagsEv
BVc:_UNITY_FT_Create_Class_pshinter_module_class
ksd:_String_CompareOrdinalCaseInsensitiveUnchecked_m2002640463
aSd:_Boolean_GetHashCode_m1894638460
z_c:_cf2_setError
Z0f:_UTF7Encoding_InternalGetChars_m4157428055
rhb:__Z33InterpolateLightProbeCoefficientsRK17LightProbeContextRK29LightProbeSamplingCoordinatesR20SphericalHarmonicsL2
Awh:_Enumerator_Reset_m3129803197_AdjustorThunk
yPb:__ZZ23InitPlayerLoopCallbacksvEN35PreUpdateSendMouseEventsRegistrator7ForwardEv
vAe:_SmallXmlParser_HandleBufferedContent_m3397096753
uma:__ZNK6Camera25GetNormalizedViewportRectEP13RenderTextureb
ah:_glDisable
jMd:_InputField_OnDeselect_m3963675647
_Wa:__ZN13RenderTexture8TransferI24GenerateTypeTreeTransferEEvRT_
pu:__ZN7mecanim9animation9DenseClip8TransferI24GenerateTypeTreeTransferEEvRT_
aAj:__ZN6il2cpp5utils11StringUtils15StringDuplicateEPKDsj
aNf:_BaseMachine_Scan_m122450399
dz:__ZN17AnimationPlayable17ProcessRootMotionEP35AnimationPlayableEvaluationConstantP32AnimationPlayableEvaluationInputP33AnimationPlayableEvaluationOutput
tVd:_ArrayList_CopyTo_m2353632788
Pmi:_GameObject_get_activeSelf_m2643917226
jca:__ZNSt3__26vectorINS_4pairIyP17VertexDeclarationEENS_9allocatorIS4_EEE6assignIPS4_EENS_9enable_ifIXaasr21__is_forward_iteratorIT_EE5valuesr16is_constructibleIS4_NS_15iterator_traitsISB_E9referenceEEE5valueEvE4typeESB_SB_
q_j:b119
vQb:__ZNK8Material12GetPassCountEv
W_d:_Enumerator__cctor_m3784927209
g_j:b110
h_j:b111
j_j:b112
hPj:_bitshift64Ashr
l_j:b114
m_j:b115
n_j:b116
o_j:b117
hNc:__ZN11Rigidbody2D23VirtualRedirectTransferER14SafeBinaryRead
Ypa:__ZN4crnd12crn_unpacker22decode_alpha_endpointsEv
i$b:__Z23CullDynamicObjectsUmbraPK4AABBPKN5Umbra15OcclusionBufferER9IndexList
VB:__ZThn148_NK26AnimatorControllerPlayable41GetStateMachineBehaviourVectorDescriptionEv
BXc:_tt_cmap4_char_next
Eoi:_Mathf_Approximately_m1944881077
$ih:__Z444RuntimeInvoker_Boolean_t3825574718_RuntimeObject_RuntimeObject_RuntimeObject_ColorU26_t3402129837_Int32_t2071877448_Single_t2076509932_Single_t2076509932_Int32_t2071877448_SByte_t454417549_SByte_t454417549_Int32_t2071877448_Int32_t2071877448_Int32_t2071877448_Int32_t2071877448_SByte_t454417549_Int32_t2071877448_Single_t2076509932_Single_t2076509932_Single_t2076509932_Single_t2076509932_SByte_t454417549_SByte_t454417549_UInt32U26_t2197289955PFvvEPK10MethodInfoPvPS4_
Wqi:_GeneralNames_ToString_m800435094
NAd:_BaseMeshEffect_OnDidApplyAnimationProperties_m2484799839
Rtd:_ASCIIEncoding_GetString_m3931709239
yCi:_Vector4_Equals_m2166390052
Nxi:_RectTransform_SetInsetAndSizeFromParentEdge_m2595554673
X1:__GLOBAL__sub_I_runtime_assetbundles_1_cpp
UP:__ZN4FMOD7Channel11setPositionEjj
Uh:_glBindSampler
kqf:_ReadOnlyCollection_1_System_Collections_Generic_ICollectionU3CTU3E_Clear_m964488020_gshared
Yh:_glGetVertexAttribiv
msd:_String_IndexOfAny_m2027595557
nle:_Array_InternalArray__ICollection_Add_TisChar_t3454481338_m422084244_gshared
Q4c:__ZN2UI11CanvasGroup23VirtualRedirectTransferER18StreamedBinaryReadILb0EE
wzi:_Texture__ctor_m1220114221
MAc:__ZN8JSONRead8TransferIbEEvRT_PKc17TransferMetaFlagsb
hJf:_X509KeyUsageExtension_Decode_m3292847033
$jh:__Z52RuntimeInvoker_RaycastResult_t21186376_RuntimeObjectPFvvEPK10MethodInfoPvPS4_
Yjg:_Module_filter_by_type_name_ignore_case_m3574895736
n1a:__ZN26CustomRenderTextureManager19PreAllocateMaterialEP19CustomRenderTexture
gVf:_ObjectReader_ReadObject_m397855326
XBj:_GC_promote_black_lists
NId:_Image_get_fillAmount_m3354146540
ABc:__Z29Transfer_Blittable_ArrayFieldI8JSONRead8Vector4fEvRT_R9ArrayInfoRK23StaticTransferFieldInfo
Wn:FUNCTION_TABLE_vf
vo:FUNCTION_TABLE_vd
c6f:_Type_GetMethod_m1930231379
xo:FUNCTION_TABLE_vi
E3:__ZN13RuntimeStaticI37UnityShaderCompilerExtPluginConfigureLb0EE16StaticInitializeEPv
Dcd:__ZN11UnityEngine7Connect17DeviceStatusEvent20SetDeviceAspectRatioEf
Lve:_SimpleCollator_GetContraction_m1391584430
dSd:_CultureInfo_get_InvariantCulture_m398972276
FRd:_Boolean_System_IConvertible_ToInt64_m4142756949_AdjustorThunk
eM:__ZNK8Animator17HasBoundPlayablesEv
UNc:__ZN17Physics2DSettings8TransferI24GenerateTypeTreeTransferEEvRT_
$uc:__ZN5Unity9rapidjson13GenericReaderINS0_4UTF8IcEES3_13JSONAllocatorE10ParseFalseILj0ENS0_19GenericStringStreamIS3_EENS0_15GenericDocumentIS3_S4_S4_EEEEvRT0_RT1_
Ntf:_HMAC_initializePad_m3828610671
$kd:_RSAParameters_t1462703416_marshal_pinvoke_cleanup
v9i:__ZN6il2cpp2vm7Runtime9SetConfigEPKc
Evc:__ZN5Unity9rapidjson12PrettyWriterI16TempBufferWriterNS0_4UTF8IcEES4_13JSONAllocatorE10StartArrayEv
ua:invoke_iiifiii
Noj:__ZN6il2cpp2vm9Exception11FromNameMsgEPK11Il2CppImagePKcS6_S6_
Q5f:_Type_internal_from_name_m1506974323
en:FUNCTION_TABLE_fiiifii
uL:__ZN10HumanTrait15InitializeClassEv
sea:__Z14GetTimeManagerv
V6b:__ZneRK20SpriteTilingPropertyS1_
Ofd:__ZN19TransportJavaScript7CleanupEv
eKa:__Z12GUIDToStringRK9UnityGUIDPc
cUc:__ZN20TextRenderingPrivate8TextMesh17MainThreadCleanupEv
i1h:_InternalEnumerator_1_System_Collections_IEnumerator_get_Current_m297674753_gshared
gT:__ZN11AudioSource22UnmuteActiveVideoSinksEv
Zzj:__ZN4utf88internal20is_overlong_sequenceIiEEbjT_
Si:_glReadBuffer
ULa:__Z9SetLocalR15TransformAccessRKN4math7_float4Ey
JWd:_SynchronizedArrayListWrapper_get_Count_m4104930530
aXb:__Z30SetupBakedOcclusionForGeometrybRK26SharedLightmapSettingsDataRK15LightmapIndicesR17ShaderPassContext
aod:_SecurityPermission_IsSubsetOf_m1087302418
Hlc:__Z41Register_UnityEngine_Cursor_get_lockStatev
lIi:_Event_Internal_GetMousePosition_m2992465246
yWb:__Z14SetupLightmapsRK8Vector4fS1_R17ShaderPassContext
Eij:__ZN14dense_hash_mapI10KeyWrapperIPK14Il2CppAssemblyEPK22Il2CppMonoAssemblyNameN6il2cpp5utils11PointerHashIS2_EENS4_14EqualsComparerINSt3__28equal_toIS3_EEEENSD_9allocatorINSD_4pairIKS4_S7_EEEEE13set_empty_keyERSJ_
OOf:_Interval_get_Empty_m3170923997
WVa:__ZL20InitializeGUIShadersv
l9b:__Z20DestroyObjectDelayedP6Objectf
i1:__ZN20DynamicHeapAllocatorI17LowLevelAllocatorED0Ev
yLd:_InputField_OnDrag_m726194348
uGc:__ZN10ClipperLib11ClipperBase5ResetEv
Twe:_PreviousInfo__ctor_m1442166472_AdjustorThunk
VTb:__ZN9DepthPassD2Ev
ZUi:_TextGenerator_get_rectExtents_m954923136
NO:__ZN11AudioFilter6GetDSPEv
n6:__ZN19RuntimeSceneManager14CanUnloadSceneEP10UnityScene
Zbh:__Z50RuntimeInvoker_Single_t2076509932_Int64_t909078037PFvvEPK10MethodInfoPvPS4_
XTb:__Z22ExtractRenderNodeQueueRK11CullResults15ExtractionFlagsR15RenderNodeQueue
zpe:_Array_InternalArray__set_Item_TisContentType_t1028629049_m703420360_gshared
oaf:_List_1_set_Item_m1431784996_gshared
UN:__ZN24AudioScriptBufferManagerC2Ev
nSc:__ZNSt3__26vectorIh13stl_allocatorIhL18MemLabelIdentifier1ELi16EEE8__appendEj
N5g:__Z95RuntimeInvoker_Void_t1841601450_RuntimeObject_Int32_t2071877448_Int32_t2071877448_RuntimeObjectPFvvEPK10MethodInfoPvPS4_
Suc:__ZN8JSONRead32GetValueForKeyWithNameConversionEPKN5Unity9rapidjson12GenericValueINS1_4UTF8IcEE13JSONAllocatorEEPKc
qSc:__ZN20TextRenderingPrivate8FontImpl16ResetPackingDataEv
Zje:_Array_InternalArray__IndexOf_TisLink_t865133271_m3612939760_gshared
pni:_Input_get_mousePresent_m1100327283
zwc:__Z18Transfer_BlittableI9JSONWriteLb0EfEvRK29SerializationCommandArgumentsR31RuntimeSerializationCommandInfo
opa:__Z21GetAsyncUploadManagerv
Jj:_emscripten_glDetachShader
Sue:_SafeHandleZeroOrMinusOneIsInvalid_get_IsInvalid_m2033528032
uUd:_Char_IsUpper_m4083577610
cpa:__ZN17GenericDynamicVBO20ReleaseChunkInternalERK21DynamicVBOChunkHandlejj
u3c:__ZL27CleanupModule_TextRenderingv
Rue:_SafeHandleZeroOrMinusOneIsInvalid__ctor_m3340306667
ILj:_fmodl
GWf:_SerializationInfo_AddValue_m902275108
WLj:_fmodf
JDb:__Z18Transfer_BlittableI18StreamedBinaryReadILb1EELb1E4AABBEvRK29SerializationCommandArgumentsR31RuntimeSerializationCommandInfo
dDa:__ZN12CachedWriter11Align4WriteEv
$Ub:__Z20DoDeferredRenderLoopR17RenderLoopContextR13dynamic_arrayI16RenderObjectDataLj4EES4_RK11CullResultsRP13RenderTextureSA_Pb
dNb:__ZN19RuntimeSceneManager11CreateSceneEv
GBi:_Vector2_op_Implicit_m385881926
NZc:_ps_get_standard_strings
$Wb:__Z27SetupBakedOcclusionForLightbRK15SharedLightDataR17ShaderPassContext
tu:__ZN24GenerateTypeTreeTransfer8TransferIN13AnimationClip9PPtrCurveEEEvRT_PKc17TransferMetaFlags
XNh:_ScrollRect_OnScroll_m3346515304
TZe:_Enumerator_System_Collections_IEnumerator_get_Current_m3461301268_gshared
KCh:_Dictionary_2_CopyToCheck_m1638253305_gshared
XQb:__Z18RenderImageFiltersR10RenderLoopb
C1:__Z19free_alloc_internalPv18MemLabelIdentifier
e8c:__Z43CanvasRenderer_Get_Custom_PropMaterialCountP12Il2CppObject
kXb:__ZNSt3__227__insertion_sort_incompleteIR23CompareReflectionProbesP31RuntimeReflectionProbeBlendInfoEEbT0_S5_T_
Tlf:_ReadOnlyCollection_1_System_Collections_Generic_IListU3CTU3E_set_Item_m25653560_gshared
VBc:__ZN8JSONRead21TransferSTLStyleArrayI13dynamic_arrayI11QuaternionfLj4EEEEvRT_17TransferMetaFlags
kt:__ZNSt3__26vectorIN13AnimationClip10FloatCurveE13stl_allocatorIS2_L18MemLabelIdentifier26ELi16EEE6assignINS_11__wrap_iterIPS2_EEEENS_9enable_ifIXaasr21__is_forward_iteratorIT_EE5valuesr16is_constructibleIS2_NS_15iterator_traitsISC_E9referenceEEE5valueEvE4typeESC_SC_
JJ:__ZN18StreamedBinaryReadILb0EE21TransferSTLStyleArrayI22OffsetPtrArrayTransferI9OffsetPtrIN7mecanim12statemachine18TransitionConstantEEEEEvRT_17TransferMetaFlags
h$g:__ZL68Selectable_t1490392188_CustomAttributesCacheGenerator_m_InteractableP21CustomAttributesCache
Thc:__ZN19RuntimeSceneManager32LoadSceneAsyncByNameOrBuildIndexERKN4core12basic_stringIcNS0_20StringStorageDefaultIcEEEEiNS_11LoadingModeEb
Nvf:_CertificateSelectionCallback_Invoke_m2902629105
Lba:__ZN10InputEventD2Ev
M0d:_DateTimeFormatInfo_GetAllDateTimePatternsInternal_m1587126173
Zfc:__ZN24CompressedAnimationCurve18DecompressTimeKeysI11QuaternionfEEvR17AnimationCurveTplIT_E
fKe:_NumberFormatter_Append_m3268121457
aoa:__ZN15dense_hashtableINSt3__24pairIK9TextureIDiEES2_N12TextureIdMap20TextureIDHashFunctorEN14dense_hash_mapIS2_iS6_NS0_8equal_toIS2_EE13stl_allocatorIS4_L18MemLabelIdentifier67ELi16EEE9SelectKeyES9_SC_E12resize_deltaEjj
_fd:__ZN22UnityWebRequestManagerD2Ev
Kkd:_RSA_ToXmlString_m4145056574
Nae:_Double_System_IConvertible_ToUInt64_m1318285078_AdjustorThunk
nLj:_isalpha
DMh:_Selectable_FindSelectable_m2739582497
ZDc:__ZNK12b2MotorJoint17GetReactionTorqueEf
B5d:_DateTimeUtils_ZeroPad_m86470512
T7g:__Z94RuntimeInvoker_Void_t1841601450_RuntimeObject_Int32_t2071877448_RuntimeObject_SByte_t454417549PFvvEPK10MethodInfoPvPS4_
r7i:__ZN6il2cpp2vmL17IsSocketAsyncCallEP14Il2CppDelegate
hPc:__Z13RegisterClassI11Rigidbody2DEvv
xzj:__ZN6il2cpp2vm6String6NewLenEPKcj
eLb:__ZN17PersistentManager9AddStreamEv
Zk:_time
tpi:_Mesh_get_uv_m1990385212
Dui:_PlayableOutput_Equals_m2167434642_AdjustorThunk
mHd:_Graphic_UnregisterDirtyLayoutCallback_m1724443555
aMa:__ZN14BatchAllocator6CommitE18MemLabelIdentifier
f$c:_cf2_stack_free
Twd:_ExecuteEvents_get_pointerClickHandler_m713983310
Ty:__ZN7mecanim9animation19EvaluateFloatValuesEPKNS0_18ClipMuscleConstantEPKNS_18ValueArrayConstantEPKNS0_12ClipBindingsEPKNS0_10ClipOutputEPNS0_18AnimationNodeStateEfbb
SG:__ZN8Animator31ClearInternalControllerPlayableEv
vag:_WeakReference_Finalize_m3318354542
qLa:__ZN10GameObject8TransferI24GenerateTypeTreeTransferEEvRT_
w_e:_Enumerator_VerifyState_m3913376581_gshared
wej:__ZN15dense_hashtableINSt3__24pairIK10KeyWrapperINS1_IPK9FieldInfoP11Il2CppClassEEEjEES9_17ReflectionMapHashIS8_EN14dense_hash_mapIS9_jSD_NS9_14EqualsComparerINS0_8equal_toIS8_EEEENS0_9allocatorISB_EEE9SelectKeyESI_SK_E4findERSA_
cZj:_glDeleteSync__wrapper
f2d:_Decimal_op_Implicit_m623319612
xzh:_ValueCollection_System_Collections_Generic_ICollectionU3CTValueU3E_Remove_m98888100_gshared
fwd:_EventTrigger_OnPointerExit_m2119176877
f3f:_ThreadAbortException__ctor_m1623816114
jac:__ZN13ProduceHelperI30RuntimeInitializeOnLoadManagerLb0EE7ProduceE18MemLabelIdentifier18ObjectCreationMode
M0b:__ZN13RenderTexture19SetAutoGenerateMipsEb
Gqa:__Z20GetTextureFormatInfo13TextureFormat
k8g:__Z119RuntimeInvoker_RuntimeObject_RuntimeObject_RuntimeObject_Int32_t2071877448_Int32_t2071877448_MonoIOErrorU26_t1029615899PFvvEPK10MethodInfoPvPS4_
GB:__ZN26AnimatorControllerPlayable8GetFloatEiRf
yKh:_Shadow__ctor_m924057531
Vxd:_PointerEventData_set_worldPosition_m192283671
SFj:__ZN6il2cpp5utils10MemoryPool6MallocEj
mN:__ZN11SoundHandle8InstanceD2Ev
Uea:__ZN31CanvasBatchIntermediateRenderer13StaticDestroyEPv
Yti:_X509Store_BuildCrlsCollection_m52567568
S7:__ZNSt3__23mapIiP15MonoScriptCacheNS_4lessIiEE13stl_allocatorINS_4pairIKiS2_EEL18MemLabelIdentifier78ELi16EEEixERS7_
hCf:_RecordProtocol_InternalSendRecordCallback_m3984764857
cue:_Array_InternalArray__get_Item_TisUICharInfo_t3056636800_m3872982785_gshared
zpi:_Mesh_SetNormals_m2780518036
wbe:_Enum_ToString_m662345249
ahh:__Z150RuntimeInvoker_Single_t2076509932_Single_t2076509932_Single_t2076509932_SingleU26_t4173844468_Single_t2076509932_Single_t2076509932_Single_t2076509932PFvvEPK10MethodInfoPvPS4_
Elc:__Z41Register_UnityEngine_CullingGroup_Disposev
_$a:__ZN7Cubemap23VirtualRedirectTransferER19StreamedBinaryWriteILb0EE
FIa:__ZN25MultiBlocksMemoryFileData5WriteEyyPKv
jFc:__ZNK13b2PulleyJoint16GetReactionForceEf
K5e:_List_1_System_Collections_IList_Add_m4271264217_gshared
Ajj:__ZN14dense_hash_mapI10KeyWrapperIPK10Il2CppTypeEjN6il2cpp8metadata14Il2CppTypeHashENS4_14EqualsComparerINS6_26Il2CppTypeEqualityComparerEEENSt3__29allocatorINSB_4pairIKS4_jEEEEE13set_empty_keyERSE_
qua:__ZL17ProgramUniform2fvPK7ApiGLESjiihPKv
PWj:b83
iSc:__ZN20TextRenderingPrivate8FontImpl21HasCharacterInTextureEjijfPj
JMj:_htonl
Qla:__Z20GetBufferManagerGLESv
AHb:__ZN18StreamedBinaryReadILb0EE21TransferSTLStyleArrayI31ArrayOfManagedObjectsTransfererEEvRT_17TransferMetaFlags
i1f:_UTF7Decoder_GetChars_m2790530452
Kzc:__Z18Transfer_BlittableI8JSONReadLb0EtEvRK29SerializationCommandArgumentsR31RuntimeSerializationCommandInfo
$Qh:_Text_set_fontSize_m2101304336
pVc:_pshinter_module_class_pic_free
r_g:__ZL68Navigation_t1571958496_CustomAttributesCacheGenerator_m_SelectOnLeftP21CustomAttributesCache
pC:__ZN34AnimationStateMachineMixerPlayable13EndTransitionEv
vP:__ZN12AudioManager21FixMasterGroupRoutingEv
Jmd:_SymmetricAlgorithm_set_Key_m2973350820
xNc:__ZN6b2Body9SetActiveEb
KYg:__ZL58FontData_t2614388407_CustomAttributesCacheGenerator_m_FontP21CustomAttributesCache
rIf:_WebHeaderCollection_IsHeaderValue_m1723393133
sRc:__ZN20TextRenderingPrivate8FontImpl13CharacterInfo8TransferI24GenerateTypeTreeTransferEEvRT_
Gwj:__ZN6il2cpp2os10ThreadImpl33UnregisterCurrentThreadForCleanupEv
zA:__ZN27AnimationLayerMixerPlayable22PrepareAnimationEventsEfR13dynamic_arrayI22AnimationClipEventInfoLj4EE
Rtb:__Z18Transfer_BlittableI14SafeBinaryReadLb1E4AABBEvRK29SerializationCommandArgumentsR31RuntimeSerializationCommandInfo
Pvj:__ZN6il2cpp6icalls8mscorlib6System4Enum12get_hashcodeEP12Il2CppObject
VEj:_GC_set_no_dls
lJj:__ZN6il2cpp8metadata26Il2CppGenericMethodCompare6EqualsEPK19Il2CppGenericMethodS4_
jda:__Z22CreateMutexLockedQueue18MemLabelIdentifier
aO:__ZN9AudioClip7WWWOpenEPKciPjPPvS4_
Itb:__Z18Transfer_BlittableI14SafeBinaryReadLb0E8Vector2fEvRK29SerializationCommandArgumentsR31RuntimeSerializationCommandInfo
upe:_Array_InternalArray__set_Item_TisPlayableBinding_t2498078091_m2071396616_gshared
CSe:_SynchronizedReader_Peek_m282642073
Nkb:__ZN15SerializeTraitsIN9ShaderLab20SerializedSubProgram16TextureParameterEE8TransferI14SafeBinaryReadEEvRS2_RT_
GSd:_Byte_System_IConvertible_ToInt16_m1575115635_AdjustorThunk
m_i:_Physics2D_Raycast_m298439588
SBi:_Vector3_set_Item_m2026854946_AdjustorThunk
k9h:_Context_get_HasGlobalDynamicSinks_m3205328884
iwe:_SimpleCollator_CompareQuick_m619038530
aEf:_SslStreamBase_EndRead_m1072850679
jd:_SDL_GetTicks
cEe:_X509CertificateEnumerator_System_Collections_IEnumerator_get_Current_m1643583406
zva:__ZN18GfxFramebufferGLES20CleanupFBOMapForRBIDERKj
pgj:__ZN15dense_hashtableINSt3__24pairIK10KeyWrapperINS1_IPK11Il2CppImageP11Il2CppClassEEEjEES9_17ReflectionMapHashIS8_EN14dense_hash_mapIS9_jSD_NS9_14EqualsComparerINS0_8equal_toIS8_EEEENS0_9allocatorISB_EEE9SelectKeyESI_SK_E6insertERKSB_
P_b:__Z21CreateShadowCullerJobP30CreateUmbraShadowCullerJobData
iua:__ZL18ProgramUniform2uivPK7ApiGLESjiihPKv
WPi:_AudioConfigurationChangeHandler_BeginInvoke_m1585211075
NXb:__Z33GenerateShadowCasterPartsSortDataRK16ShadowCasterDatajRK15RenderNodeQueueRKNSt3__26vectorI20ShadowCasterPartData13stl_allocatorIS7_L18MemLabelIdentifier2ELi16EEEERK10Matrix4x4fRjP20ShadowCasterSortData
ani:_GUILayer_INTERNAL_CALL_HitTest_m381183969
tFi:_UnityAction_2_Invoke_m319876726_gshared
Mwb:__Z29Transfer_Blittable_ArrayFieldI14SafeBinaryRead9BoundsIntEvRT_R9ArrayInfoRK23StaticTransferFieldInfo
AEh:_Dictionary_2_ToTKey_m4209561517_gshared
t_c:_cf2_computeDarkening
rCj:_GC_expand_hp_inner
kc:invoke_viiiififfi
ymc:__Z25Screen_Get_Custom_PropDpiv
OHd:_GridLayoutGroup_get_spacing_m1909275195
Ozj:__ZN4utf812find_invalidIPKcEET_S3_S3_
Qr:__ZNK13AnimationClip8IsLegacyEv
GMf:_X509ExtensionCollection_System_Collections_ICollection_CopyTo_m3421329346
LBj:_GC_err_printf
Cfg:_FieldBuilder_SetValue_m3109503557
xGd:_Graphic_OnBeforeTransformParentChanged_m1866292273
xKf:_X509Certificate2_Verify_m1574874641
k_:__ZN11UnityEngine15CloudWebService20WebRequestRestClient7PrepareEv
IXg:__ZL58PhysicsRaycaster_t249603239_CustomAttributesCacheGeneratorP21CustomAttributesCache
YRc:__ZN20TextRenderingPrivate19NativeTextGenerator23FixLineHorizontalOffsetEiii
O_d:_SortedList_GetEnumerator_m1318483481
YIi:_GUILayoutUtility_LayoutFreeGroup_m2224160855
aPd:_Array_CreateInstance_m3327690220
zD:__ZN7mecanim9animation19DestroyAnimationSetEPNS0_12AnimationSetERNS_6memory9AllocatorE
KSj:_emscripten_glDepthRange__wrapper
T8:__ZN14SerializedFile7ReleaseEv
SUi:_TextGenerator__ctor_m1469954680
Xrb:__ZN16MemoryFileSystem4OpenER13FileEntryData14FilePermission16FileAutoBehavior
Hea:__ZN13RuntimeStaticI13RendererSceneLb0EE13StaticDestroyEPv
Vzb:__Z18Transfer_BlittableI24GenerateTypeTreeTransferLb1E12PropertyNameEvRK29SerializationCommandArgumentsR31RuntimeSerializationCommandInfo
Ncb:__ZN14SafeBinaryRead21TransferSTLStyleArrayI10vector_mapIPKN5Unity4TypeE7Hash128NSt3__24lessIS5_EENS7_9allocatorINS7_4pairIS5_S6_EEEEEEEvRT_17TransferMetaFlags
$N:__ZN9AudioClip18GetQueuedAudioDataEPPvj
i3c:__ZN20TextRenderingPrivate21TextMeshGeneratorImpl14GarbageCollectEv
Sfc:__ZNK9Texture2D17CheckHasPixelDataEv
OMc:__ZN15b2ContactSolver13StoreImpulsesEv
IBb:__Z18Transfer_BlittableI19StreamedBinaryWriteILb0EELb0E9BoundsIntEvRK29SerializationCommandArgumentsR31RuntimeSerializationCommandInfo
ETb:__Z18SetShadowsKeywordsR17ShaderPassContext9LightType10ShadowType16ShadowProjectionbb
dkj:__ZN14dense_hash_mapI10KeyWrapperINSt3__24pairIPK12PropertyInfoP11Il2CppClassEEEj17ReflectionMapHashIS8_ENS9_14EqualsComparerINS1_8equal_toIS8_EEEENS1_9allocatorINS2_IKS9_jEEEEEC2EjRKSB_RKSF_
occ:__ZN17CollisionMeshDataC2Ev
pbi:_Regex_get_RightToLeft_m529734879
yNh:_ScrollRect_SetDirty_m93243192
B1a:__ZN16LightmapSettings23VirtualRedirectTransferER19StreamedBinaryWriteILb0EE
PPb:__ZZ23InitPlayerLoopCallbacksvEN47PostLateUpdateMemoryFrameMaintenanceRegistrator7ForwardEv
Ao:FUNCTION_TABLE_viiififii
cDj:_GC_push_next_marked
Ehb:__ZN18IDCollectorFunctor18GenerateInstanceIDEi17TransferMetaFlags
MQe:_MonoIO__cctor_m2398680849
NMc:__ZN15b2ContactSolver9WarmStartEv
qKe:_NumberFormatter_ToDecHex_m1474793296
kkh:__Z74RuntimeInvoker_Int32_t2071877448_RaycastHit_t87180320_RaycastHit_t87180320PFvvEPK10MethodInfoPvPS4_
EEa:__ZN14StackAllocatorD0Ev
Omj:__ZN6il2cpp2vm6Thread8SetStateEP12Il2CppThreadNS0_11ThreadStateE
vXe:_OperatingSystem_Clone_m1943707477
YFd:_FontData_set_richText_m29558601
w3f:_Scheduler_Change_m4063588742
xqe:_Array_Resize_TisVector2_t2243707579_m1117258774_gshared
paa:__ZNSt3__27__sort4IRNS_6__lessI14ObjectLoadDataS2_EEPS2_EEjT0_S6_S6_S6_T_
kSb:__ZNK25CameraStackRenderingState16GetCurrentCameraEv
Jic:__Z22PlayableValidityChecksRK9HPlayableb
neb:__ZN15ResourceManagerD2Ev
s4e:_List_1_Insert_m2532850849_gshared
tlc:__Z41Register_UnityEngine_Camera_GetAllCamerasv
WJh:_MaskableGraphic_OnCanvasHierarchyChanged_m2012659245
Spa:__ZN4crnd12crn_unpacker10unpack_dxnEPPhjjjjjj
ndd:__ZN28PerformanceReportingSettings8TransferI14SafeBinaryReadEEvRT_
A2d:_Double_Parse_m2344589511
fbh:__Z78RuntimeInvoker_Boolean_t3825574718_IntPtr_t_Int32_t2071877448_SByte_t454417549PFvvEPK10MethodInfoPvPS4_
Szc:__Z18Transfer_BlittableI8JSONReadLb1E5RectTIiEEvRK29SerializationCommandArgumentsR31RuntimeSerializationCommandInfo
Mnj:__ZN6il2cpp2vm22EmbeddedResourceRecordC2ERKS1_
Qke:_Array_InternalArray__IndexOf_TisTouch_t407273883_m428417661_gshared
V$a:__ZN9Texture2D13AwakeFromLoadE17AwakeFromLoadMode
Bve:_MSCompatUnicodeTableUtil__cctor_m1479836795
Cfi:_PositionAssertion__ctor_m3703837499
lNd:_LayoutGroup_get_minWidth_m4111745491
dSe:_StreamWriter_Initialize_m1707678624
hvj:__ZN6il2cpp2vm3RCW14QueryInterfaceILb0EEEP14Il2CppIUnknownP15Il2CppComObjectRK10Il2CppGuid
rNh:_ScrollRect_set_verticalScrollbar_m2903688658
Eab:__ZThn328_N14SpriteRendererD0Ev
msa:__ZN6prcoreL17RemapGenericFloatI15TexFormatRFloat18TexFormatARGBFloatEEvPKNS_9InnerInfoE
Wwg:__ZL50_Thread_t1894135853_CustomAttributesCacheGeneratorP21CustomAttributesCache
Ioi:_Mathf__cctor_m2286160987
jYh:_InternalEnumerator_1_get_Current_m1047712960_gshared
med:__ZN11UnityEngine15PlatformWrapper20GetPlayerPrefsUInt64ERKN4core12basic_stringIcNS1_20StringStorageDefaultIcEEEEy
nXb:__ZN20ReflectionProbeCacheC2ER13BatchRendererR15RenderLoopStats
vfa:__ZN18AssetBundleManagerC2Ev
Vqb:__ZNK12HandlerChain6ExistsERK13FileEntryData
bIg:__ZL61ExtensionAttribute_t1840441203_CustomAttributesCacheGeneratorP21CustomAttributesCache
Y2d:_Convert_ToInt32_m2734833291
cYb:__Z30FindDirectAttenuationFromProbeP18ForwardLightsBlockbiRK10RenderNodeRK23FindForwardLightsParamsf
Sbb:__ZN12InputManager23VirtualRedirectTransferER24GenerateTypeTreeTransfer
_pb:__ZN9Transform23VirtualRedirectTransferER24GenerateTypeTreeTransfer
dob:__ZNSt3__26vectorIN9ShaderLab20SerializedSubProgram12UAVParameterENS_9allocatorIS3_EEE21__push_back_slow_pathIKS3_EEvRT_
Q7h:_CrossAppDomainChannel_RegisterCrossAppDomainChannel_m43456045
pMf:_X509ChainElement_Count_m228862214
e5f:_TimeZone_IsDaylightSavingTime_m1840774423
W0c:_UNITY_tt_size_ready_bytecode
Nli:_InvokableCallList_ClearPersistent_m2011323876
KQc:__ZN13TextRendering4FontD2Ev
n2g:__Z47RuntimeInvoker_Single_t2076509932_RuntimeObjectPFvvEPK10MethodInfoPvPS4_
CTc:_UNITY_FT_Stream_Open
XAb:__Z29Transfer_Blittable_ArrayFieldI24GenerateTypeTreeTransfer9BoundsIntEvRT_R9ArrayInfoRK23StaticTransferFieldInfo
iJa:__ZN10MemoryFile4ReadEyyPvPy
Yob:__ZN8keywords18KeywordSetToStringERK16ShaderKeywordSetRN4core12basic_stringIcNS3_20StringStorageDefaultIcEEEE
Jha:__ZN13GfxDeviceGLES26UpdateViewProjectionMatrixEv
Dii:_Bounds_op_Inequality_m1440807554
BM:__ZN4FMOD3DSP12setParameterEif
BLb:__ZN13MemoryManager16StaticInitializeEv
Csg:__ZL53StackFrame_t2050294881_CustomAttributesCacheGeneratorP21CustomAttributesCache
of:___cxa_free_exception
lpf:_ReadOnlyCollection_1_System_Collections_ICollection_CopyTo_m4126742951_gshared
CQ:__ZN4FMOD22FakeModChannelCallbackEPv
uf:_emscripten_glValidateProgram
qTa:__ZN4Mesh10CreateMeshEv
xhj:__ZN6il2cpp2gc19AppendOnlyGCHashMapINSt3__24pairIPK9EventInfoP11Il2CppClassEEP21Il2CppReflectionEvent17ReflectionMapHashIS9_ENS2_8equal_toIS9_EEE3AddERKS9_SB_
sN:__ZN4FMOD7SystemI11createSoundEPKcjP22FMOD_CREATESOUNDEXINFOPPNS_5SoundE
tUf:_ArrayFixupRecord_FixupImpl_m2377725358
Iri:_PKCS12_get_Certificates_m2320062949
Q_c:_cf2_stack_clear
nae:_Double_System_IConvertible_ToBoolean_m4251806534_AdjustorThunk
Ywh:_ShimEnumerator_Reset_m2247049027_gshared
tGc:__ZN10ClipperLib11ClipperBase5ClearEv
N0b:__ZN7Texture13SetAnisoLevelEi
yY:__ZNSt3__26__treeINS_12__value_typeIN4core12basic_stringIcNS2_20StringStorageDefaultIcEEEEjEENS_19__map_value_compareIS6_S7_NS_4lessIS6_EELb1EEE13stl_allocatorIS7_L18MemLabelIdentifier88ELi16EEE7destroyEPNS_11__tree_nodeIS7_PvEE
IKf:_X509Chain_Process_m2508784250
h9e:_List_1_RemoveAt_m2929488689_gshared
G2c:_raccess_guess_vfat
l9c:__Z44Canvas_CUSTOM_GetETC1SupportedCanvasMaterialv
rSa:__ZN11HaloManager10UpdateHaloEiR9Transform11ColorRGBA32fjP6Object
c4:__ZN33InstancedMeshIntermediateRenderer13StaticDestroyEPv
_Ie:_Int16_Parse_m3012618547
e3c:__Z13RegisterClassIN20TextRenderingPrivate8TextMeshEEvv
pqj:__ZN14dense_hash_mapI10KeyWrapperIP14Il2CppIUnknownEjN6il2cpp5utils11PointerHashIS1_EENS3_14EqualsComparerINSt3__28equal_toIS2_EEEENS9_9allocatorINS9_4pairIKS3_jEEEEE13set_empty_keyERSF_
G8g:__Z50RuntimeInvoker_Void_t1841601450_OpCode_t2247480392PFvvEPK10MethodInfoPvPS4_
kRa:__Z21DestroyShadowMapCacheP14ShadowMapCache
_A:__ZN7mecanim9animation25CreateControllerWorkspaceEPKNS0_18ControllerConstantERNS_6memory9AllocatorE
$Ye:_Enumerator_VerifyState_m739025304_gshared
dEd:_Graphic_RegisterDirtyVerticesCallback_m4169445219
Djj:__ZN15dense_hashtableINSt3__24pairIK10KeyWrapperIPK10Il2CppTypeEjEES6_N6il2cpp8metadata14Il2CppTypeHashEN14dense_hash_mapIS6_jSB_NS6_14EqualsComparerINSA_26Il2CppTypeEqualityComparerEEENS0_9allocatorIS8_EEE9SelectKeyESF_SH_E14squash_deletedEv
Npj:__ZN6il2cpp2vm13LivenessState5ResetEv
fmh:__Z138RuntimeInvoker_Void_t1841601450_RuntimeObject_Color32_t874517518_Int32_t2071877448_Int32_t2071877448_Single_t2076509932_Single_t2076509932PFvvEPK10MethodInfoPvPS4_
awc:__ZN9JSONWrite8TransferI11KeyframeTplIfEEEvRT_PKc17TransferMetaFlags
GQh:_Text_get_cachedTextGenerator_m224335893
Wqj:__ZN6il2cpp2vm3RCW23GetOrCreateFromIUnknownEP14Il2CppIUnknownP11Il2CppClass
sOb:__ZN24BuiltinShaderParamValuesC2Ev
pwc:__ZL41CreateJSONTransferFunctionScriptingTraitsv
hPe:_FileStream_get_CanWrite_m775322953
CJb:__Z23GetLateBehaviourManagerv
Pwd:_ExecuteEvents_Execute_m2863348178
N8:__ZN10MemoryPool10DeallocateEPv
wsc:__ZN8GUIState8SetEventERK10InputEvent
UFe:_NumberFormatInfo__ctor_m2752806684
DAd:_CanvasUpdateRegistry_get_instance_m862315367
sva:__ZN14GfxDeviceStats10ResetFrameEv
mci:_PatternCompiler_EmitFastRepeat_m1175707353
nte:_Array_InternalArray__get_Item_TisKeyValuePair_2_t3716250094_m3120861630_gshared
sVc:_cff_driver_class_pic_free
z7f:_UInt32_TryParse_m3987111861
PQj:dynCall_vif
QQj:dynCall_vid
b3e:_List_1_System_Collections_IList_get_Item_m3989815218_gshared
RQj:dynCall_vii
i1d:_DateTime__ctor_m3604679583
pHb:__Z18Transfer_BlittableI18StreamedBinaryReadILb0EELb0EdEvRK29SerializationCommandArgumentsR31RuntimeSerializationCommandInfo
Dbi:_Enumerator_System_Collections_IEnumerator_MoveNext_m3313126804
ITb:__ZNK17InstancedPropInfo14IsInstanceableERK19ShaderPropertySheet
bCa:__ZN5Unity9Component16CheckConsistencyEv
AAd:_LayoutRebuilder_ValidController_m2595049322
ava:__ZN7ApiGLES11CheckShaderERjb
$Oa:__ZN19ShaderPropertySheet37CreateTextureAuxPropertyUninitializedEN9ShaderLab16FastPropertyNameES1_PKc
kCb:__ZL26Transfer_SimpleNativeClassI19StreamedBinaryWriteILb0EE10RectOffsetLb1EEvRK29SerializationCommandArgumentsR31RuntimeSerializationCommandInfo
mte:_Array_InternalArray__get_Item_TisKeyValuePair_2_t1174980068_m964958642_gshared
ucd:__ZN11UnityEngine7Connect17DeviceStatusEventD2Ev
bfj:__ZN15dense_hashtableINSt3__24pairIK10KeyWrapperIPK10Il2CppTypeEjEES6_N6il2cpp8metadata14Il2CppTypeHashEN14dense_hash_mapIS6_jSB_NS6_14EqualsComparerINSA_26Il2CppTypeEqualityComparerEEENS0_9allocatorIS8_EEE9SelectKeyESF_SH_E3endEv
eYb:__Z28GetNonInterpolatedLightProbeRK17LightProbeContextjR20SphericalHarmonicsL2
yle:_Array_InternalArray__ICollection_Add_TisDateTime_t693205669_m3559987213_gshared
Aka:__ZN13GfxDeviceGLES17SetGpuProgramNameEP10GpuProgramPKc
x_:__ZNK11UnityEngine15CloudWebService25WebRequestDownloadHandler11GetProgressEv
NXi:_CanvasGroup_IsRaycastLocationValid_m2290612432
y6i:__ZN6il2cpp2vm13MetadataCache28GetMethodDefinitionFromIndexEi
Wxj:__ZN6il2cpp2os20FileErrnoToErrorCodeEi
qYa:__ZN14SafeBinaryRead19TransferSTLStyleMapINSt3__23mapI39DeprecatedFastPropertyNameSerialization10ColorRGBAfNS1_4lessIS3_EENS1_9allocatorINS1_4pairIKS3_S4_EEEEEEEEvRT_17TransferMetaFlags
vkg:_MonoEventInfo_GetEventInfo_m2331957186
Lji:_Component_get_transform_m3374354972
JMc:__ZN24b2PositionSolverManifold10InitializeEP27b2ContactPositionConstraintRK11b2TransformS4_i
ch:_atexit
BXd:_BitArrayEnumerator_Reset_m3218489242
TSd:_Byte_System_IConvertible_ToUInt16_m2275325191
fxi:_RectTransform_INTERNAL_get_anchorMin_m3722367822
eij:__ZN6il2cpp2vmL31GetObjectForMissingDefaultValueEj
_Mg:__ZL97SceneManager_t90660965_CustomAttributesCacheGenerator_SceneManager_LoadScene_m3031418609____mode1P21CustomAttributesCache
qad:__ZN11UnityEngine15PlatformWrapper30GetVRPlayAreaBoundaryDimensionEv
d4i:__ZNK15dense_hashtableINSt3__24pairIK10KeyWrapperIN6il2cpp5utils13dynamic_arrayIPK10Il2CppTypeLj4EEEEPFvvEEESA_NS3_8metadata19Il2CppSignatureHashEN14dense_hash_mapISA_SD_SG_NSA_14EqualsComparerINSF_22Il2CppSignatureCompareEEENS0_9allocatorISE_EEE9SelectKeyESK_SM_E10test_emptyEj
wlb:__ZN9ShaderLab14SerializedPassC2ERKS0_
_Vh:_InternalEnumerator_1_System_Collections_IEnumerator_get_Current_m3088751576_AdjustorThunk
bja:__ZNK9GfxDevice28GetActiveRenderSurfaceHeightEv
l:STACKTOP
u0c:_cff_get_name_index
dUe:_Math_Cos_m43596019
S1a:__ZN21EnlightenSceneMapping16BuildRemapTablesEv
Wec:__ZN17TransformInternal27UpdateDeepChildCountUpwardsER18TransformHierarchyii
S0h:_InternalEnumerator_1_System_Collections_IEnumerator_get_Current_m1533037706_AdjustorThunk
sOj:__ZNK10__cxxabiv117__class_type_info16search_above_dstEPNS_19__dynamic_cast_infoEPKvS4_ib
A:tempBigIntD
Zqd:_Single_Equals_m3359827399_AdjustorThunk
kwd:_EventTrigger_OnPointerClick_m413999043
z:tempBigIntI
Usf:_PrimalityTests_RabinMillerTest_m2029846965
y:tempBigIntR
x:tempBigIntS
ezi:_Sprite_INTERNAL_get_border_m3953160722
un:FUNCTION_TABLE_viffi
$Sc:_open_face_PS_from_sfnt_stream
VTf:_ServerIdentity_CreateObjRef_m1056204803
taa:__ZN6Object18RegisterInstanceIDEPS_
Azb:__Z18Transfer_BlittableI24GenerateTypeTreeTransferLb1EsEvRK29SerializationCommandArgumentsR31RuntimeSerializationCommandInfo
uuj:__ZN15dense_hashtableINSt3__24pairIK10KeyWrapperIP12Il2CppObjectEN6il2cpp2gc9CachedCCWEEES5_NS7_5utils11PointerHashIS3_EEN14dense_hash_mapIS5_S9_SD_NS5_14EqualsComparerINS0_8equal_toIS4_EEEENS0_9allocatorISA_EEE9SelectKeyESI_SK_E11set_deletedER30dense_hashtable_const_iteratorISA_S5_SD_SM_SI_SK_E
Tha:__ZNK9GfxDevice18GetWorldViewMatrixEv
m3e:_List_1_Contains_m3819542652_gshared
Vxf:_TlsServerKeyExchange__ctor_m247733406
zmf:_ReadOnlyCollection_1_System_Collections_IList_Add_m3065652010_gshared
LAj:__ZN6il2cpp6icalls8mscorlib6System7Convert17Base64ToByteArrayEPDsib
PGi:_IndexedSet_1_Clear_m2776064367_gshared
cth:__Z82RuntimeInvoker_Boolean_t3825574718_RaycastResult_t21186376_RaycastResult_t21186376PFvvEPK10MethodInfoPvPS4_
K3i:__ZNSt3__218__insertion_sort_3IRN6il2cpp5utils11collections13ArrayValueMapIPK10Il2CppType17Il2CppInteropData26InteropDataToTypeConverterNS1_8metadata14Il2CppTypeLessENSA_26Il2CppTypeEqualityComparerEE12SortComparerEPS8_EEvT0_SH_T_
Xha:__ZNK9GfxDevice25GetDeviceProjectionMatrixEv
YGf:_HttpWebRequest__ctor_m1248252412
na:invoke_iidiii
Gzb:__Z18Transfer_BlittableI24GenerateTypeTreeTransferLb1EtEvRK29SerializationCommandArgumentsR31RuntimeSerializationCommandInfo
Cag:_RankException__ctor_m2119191472
FW:__ZN12AudioManager33GetCurrentAmbisonicDefinitionNameE31UnityAudioEffectDefinitionFlags
Ghc:__ZN10systeminfo24GetRuntimePlatformStringEv
Pyc:__ZN9JSONWrite8TransferI13dynamic_arrayI4AABBLj4EEEEvRT_PKc17TransferMetaFlags
H8g:__Z64RuntimeInvoker_Void_t1841601450_OpCode_t2247480392_RuntimeObjectPFvvEPK10MethodInfoPvPS4_
Fwi:_Rect_GetHashCode_m2708838453
CX:__ZN5physx14PxLightCpuTask15removeReferenceEv
RPi:_AudioSettings_InvokeOnAudioManagerUpdate_m667489537
kIf:_SPKey_Equals_m1112627532
uRe:_Stream_Close_m1499612649
vai:_ArgInfo__ctor_m3787931268
nti:_X509Chain_Build_m175470596
hji:_Camera_INTERNAL_CALL_RaycastTry2D_m268676834
bPa:__ZN9ShaderLab6TexEnvC2ERKNS_25SerializedTexturePropertyE
R6b:__Z28IntersectLineSegmentWithLineRK8Vector2fS1_S1_S1_RS_
RLa:__ZN9Transform32SetLocalScaleWithoutNotificationERKN4math7_float3Ey
WRc:__ZN20TextRenderingPrivate19NativeTextGeneratorD2Ev
b7i:__ZN6il2cpp2vm19SocketPollingThread14DequeueRequestEv
Mxj:__ZL10RevealLinkPv
jpe:_Array_InternalArray__set_Item_TisSingle_t2076509932_m4273663642_gshared
Hi:___cxa_end_catch
dhg:_MethodBuilder_MakeGenericMethod_m303913412
sbg:_AssemblyName_InternalGetPublicKeyToken_m3706025887
MSi:__ZL25UnresolvedVirtualCall_146P12Il2CppObjectffPK10MethodInfo
YQj:dynCall_viffffii
xwd:_ExecuteEvents_Execute_m4235029535
Jji:_Color32_ToString_m685380321_AdjustorThunk
t9c:__Z43Register_UnityEngine_Canvas_set_scaleFactorv
H2c:_raccess_guess_linux_cap
XW:__Z36AudioSource_Get_Custom_PropIsPlayingP12Il2CppObject
bCf:_ReceiveRecordAsyncResult_get_AsyncWaitHandle_m1602093076
Ulh:__Z113RuntimeInvoker_Boolean_t3825574718_Ray_t2469606224_RaycastHitU26_t1969197280_Single_t2076509932_Int32_t2071877448PFvvEPK10MethodInfoPvPS4_
BHb:__Z19TransferField_ArrayI18StreamedBinaryReadILb0EE27Converter_UnityEngineObjectEvRK23StaticTransferFieldInfoR31RuntimeSerializationCommandInfoRT0_
adh:__Z221RuntimeInvoker_Void_t1841601450_Int32_t2071877448_Int16_t4041245914_Int16_t4041245914_SByte_t454417549_SByte_t454417549_SByte_t454417549_SByte_t454417549_SByte_t454417549_SByte_t454417549_SByte_t454417549_SByte_t454417549PFvvEPK10MethodInfoPvPS4_
xvc:__ZNK5Unity9rapidjson12GenericValueINS0_4UTF8IcEE13JSONAllocatorE6AcceptINS0_12PrettyWriterI16TempBufferWriterS3_S3_S4_EEEEbRT_
X4:__Z33InitializeBuiltinShaderParamNamesv
CCa:__ZNK16TypeTreeIterator4TypeEv
aCi:_Vector3_get_sqrMagnitude_m1445517847
tai:_LeaseManager__ctor_m2166901364
OOb:__ZN10FileSystem25MountDataFolderFileSystemERKN4core12basic_stringIcNS0_20StringStorageDefaultIcEEEES6_
UK:__ZN6MotionC2E18MemLabelIdentifier18ObjectCreationMode
f$g:__ZL67Selectable_t1490392188_CustomAttributesCacheGenerator_m_SpriteStateP21CustomAttributesCache
pj:_glGetUniformLocation
jja:__ZN13GfxDeviceGLES32CreateColorRenderSurfacePlatformEP17RenderSurfaceBase19RenderTextureFormat
IN:__ZN12AudioManager24CreateFMODSoundFromMovieEP9AudioClip
ozi:_StackTraceUtility_ExtractStackTrace_m2375126700
x5i:__ZN6il2cpp2vm13MetadataCache24GetGenericInstanceMethodEPK10MethodInfoPK20Il2CppGenericContext
z7a:__ZNK9Texture3D12GetDimensionEv
Dve:_SimpleCollator_SetCJKTable_m1356471502
aLe:_Int32_System_IConvertible_ToUInt64_m2888588559_AdjustorThunk
J9:__Z24ConvertSeparatorsToUnityPc
ecb:__ZNSt3__213__vector_baseI9InputAxisNS_9allocatorIS1_EEED2Ev
wmj:__ZN6il2cpp2vm6Thread20FreeThreadStaticDataEP12Il2CppThread
Z1g:__Z28RuntimeInvoker_RuntimeObjectPFvvEPK10MethodInfoPvPS4_
yce:_Exception_get_ClassName_m2189012117
UNe:_IOException__ctor_m613517077
H6h:_MarshalDirectiveException__ctor_m3894820706
d$c:_cf2_glyphpath_finalize
e$d:_Stack__ctor_m521896492
BSb:__Z20LookRotationToMatrixRK8Vector3fS1_P10Matrix3x3f
nRj:dynCall_viififi
lXc:_UNITY_FT_Stream_Free
A5f:_Type_GetTypeFromHandle_m432505302
jmj:__ZN15dense_hashtableINSt3__24pairIK10KeyWrapperINS1_IP11Il2CppClassjEEES4_EES6_N6il2cpp8metadata14ArrayClassHashEN14dense_hash_mapIS6_S4_SB_NS6_14EqualsComparerINSA_17ArrayClassCompareEEENS0_9allocatorIS8_EEE9SelectKeyESF_SH_E12maybe_shrinkEv
DHe:_GuidParser_ParseHex_m3163482281
s6h:_GCHandle_FreeHandle_m2466807271
AGd:_GraphicRegistry_get_instance_m2112667631
GY:__ZN11UnityEngine15CloudWebService14DataDispatcher25OnDataBlockConsumedStaticEPv
Cwd:_ExecuteEvents_Execute_m2476343313
Pwg:__ZL54_MethodInfo_t3642518830_CustomAttributesCacheGeneratorP21CustomAttributesCache
JBd:_CanvasUpdateRegistry_CleanInvalidItems_m1402635291
PFb:__Z29Transfer_Blittable_ArrayFieldI18StreamedBinaryReadILb1EE11QuaternionfEvRT_R9ArrayInfoRK23StaticTransferFieldInfo
CLe:_Int64_System_IConvertible_ToByte_m3027162116_AdjustorThunk
Xwd:_ExecuteEvents_get_endDragHandler_m56074740
MLd:_InputField_IsValidChar_m3929866302
mkb:__Z14resize_trimmedINSt3__26vectorIN9ShaderLab20SerializedSubProgram16SamplerParameterENS0_9allocatorIS4_EEEEEvRT_j
XUd:_ArrayList__cctor_m2090802806
bOj:__ZNSt3__212basic_stringIcNS_11char_traitsIcEENS_9allocatorIcEEE6insertEjPKcj
rwc:__Z44InitializeTransferFunctionScriptingTraitsForI8JSONReadEvR31TransferFunctionScriptingTraits
KNb:__ZNSt3__27__sort4IRNS_4lessIN22BuiltinResourceManager8ResourceEEEPS3_EEjT0_S7_S7_S7_T_
bPc:__ZN15dense_hashtableINSt3__24pairIKiiEEi21InstanceIDHashFunctorN14dense_hash_mapIiiS4_NS0_8equal_toIiEE13stl_allocatorIS3_L18MemLabelIdentifier37ELi16EEE9SelectKeyES7_SA_E14squash_deletedEv
Qpa:__ZN4crnd12crn_unpacker11unpack_dxt5EPPhjjjjjj
i8f:_UInt32_System_IConvertible_ToUInt64_m4083788326_AdjustorThunk
N1c:_UNITY_tt_face_get_location
mZf:_DESTransform_Permutation_m4174035780
aOe:_Path_IsDsc_m1314465747
cPe:_MonoIO_Seek_m3461199288
B1b:__ZN10GameObject34AddFirstTransformComponentInternalEP9Transform
Glc:__Z31Cursor_Get_Custom_PropLockStatev
k3:__ZNSt3__26__treeINS_12__value_typeINS_4pairIPcS3_EENS_3setIS3_15compare_tstringIPKcENS_9allocatorIS3_EEEEEENS_19__map_value_compareIS4_SD_20smaller_tstring_pairIS8_ELb1EEENSA_ISD_EEE7destroyEPNS_11__tree_nodeISD_PvEE
UT:__ZN12AudioManager29GetCurrentAmbisonicDefinitionE31UnityAudioEffectDefinitionFlags
w$i:__ZN15dense_hashtableINSt3__24pairIK10KeyWrapperIPK22Il2CppGenericParameterEP11Il2CppClassEES6_N6il2cpp5utils11PointerHashIS4_EEN14dense_hash_mapIS6_S9_SE_NS6_14EqualsComparerINS0_8equal_toIS5_EEEENS0_9allocatorISA_EEE9SelectKeyESJ_SL_E15insert_noresizeERKSA_
fmc:__Z52Register_UnityEngine_GameObject_GetComponentInParentv
Ycb:__ZN15SerializeTraitsINSt3__24pairIPKN5Unity4TypeE7Hash128EEE8TransferI14SafeBinaryReadEEvRS7_RT_
O_b:__Z37GenerateCombinedDynamicVisibleListJobP11CullResults
W4a:__ZNK13ScreenManager21GetCursorInsideWindowEv
BI:__ZN14SafeBinaryRead21TransferSTLStyleArrayI22OffsetPtrArrayTransferI9OffsetPtrIN7mecanim12statemachine26SelectorTransitionConstantEEEEEvRT_17TransferMetaFlags
hxj:__ZN6il2cpp2vmL22RaiseOverflowExceptionEv
Rle:_Array_InternalArray__ICollection_Add_TisSByte_t454417549_m46595441_gshared
lbi:_Match_get_Empty_m3581361913
MXb:__Z20IntersectAABBFrustumRK4AABBPK5Planej
$sd:_String_Concat_m626692867
jni:_Input_GetMouseButtonDown_m2313448302
Wcc:__ZN13RenderManager15InitializeClassEv
owb:__ZN15SerializeTraitsI12PropertyNameE8TransferI14SafeBinaryReadEEvRS0_RT_
fhe:_PlayableHandle_IsPlayableOfType_TisAnimationOffsetPlayable_t1019600543_m3217464196_AdjustorThunk
IIi:_GUIUtility_GetDefaultSkin_m3585053327
Z1:__GLOBAL__sub_I_runtime_baseclasses_2_cpp
yyc:__ZN9JSONWrite8TransferI11ColorRGBA32EEvRT_PKc17TransferMetaFlags
eBc:__Z22TransferField_NonArrayI8JSONRead27Converter_SimpleNativeClassI8GradientEEvRK23StaticTransferFieldInfoR31RuntimeSerializationCommandInfoRT0_
nof:_ReadOnlyCollection_1_System_Collections_IList_RemoveAt_m2372993063_gshared
Iua:__ZNSt3__26vectorI15ComputeShaderCBNS_9allocatorIS1_EEE21__push_back_slow_pathIKS1_EEvRT_
FKb:__ZN10MonoScript13AwakeFromLoadE17AwakeFromLoadMode
w8b:__ZN13ProduceHelperI11MonoManagerLb0EE7ProduceE18MemLabelIdentifier18ObjectCreationMode
Bxa:__ZNK18GfxFramebufferGLES15DiscardContentsER12ObjectHandleI17RenderSurface_TagP17RenderSurfaceBaseE
gAe:_KeyPairPersistence_IsUserProtected_m37342608
Fxc:__Z18Transfer_BlittableI9JSONWriteLb1EdEvRK29SerializationCommandArgumentsR31RuntimeSerializationCommandInfo
sVj:_glGetIntegerv__wrapper
rJe:_NumberFormatter_ResetCharBuf_m3823516989
H:Math_pow
oDa:__ZN10GameObject28FinalizeAddComponentInternalEPN5Unity9ComponentE
bWd:_ArrayListWrapper_CopyTo_m735618473
W0a:__ZN9Texture2DD2Ev
ATa:__ZNK17InstancedPropInfo15RenderInstancesERK15RenderNodeQueuePK17BatchInstanceDataj17ShaderChannelMaskPFbPvS6_iR11MeshBuffersR16DrawBuffersRangeRiSC_E
qVd:_ArrayList_Remove_m3941780739
qch:__Z69RuntimeInvoker_Void_t1841601450_SByte_t454417549_TimeSpan_t3430258949PFvvEPK10MethodInfoPvPS4_
MIi:_GUIUtility_Internal_GetDefaultSkin_m2938938210
ENc:__ZN16PhysicsManager2D43RegisterTransformChangeInterestForRigidbodyEP11Rigidbody2D
cdg:_ConstructorBuilder_not_created_m2150488017
yFi:_UnityAction_2_BeginInvoke_m2906232794_gshared
oM:__ZNSt3__26vectorIiNS_9allocatorIiEEE6insertENS_11__wrap_iterIPKiEERS5_
Sgi:_Uri_AppendQueryAndFragment_m2358658590
Qq:__ZN13dynamic_arrayIhLj1EE18resize_initializedEjRKh12ResizePolicy
Wca:__ZN27IntermediateRendererManagerD2Ev
Nhb:__ZN17PersistentManager27GetLoadErrorMessageFromPathERKN4core12basic_stringIcNS0_20StringStorageDefaultIcEEEE
BZf:_DecoderReplacementFallbackBuffer_Fallback_m1790184670
bm:_glGenRenderbuffers
ooj:__ZN6il2cpp6icalls8mscorlib6System2IO6MonoIO19GetCurrentDirectoryEPi
AYb:__Z21IntersectSegmentPlaneRK8Vector3fS1_RK5PlanePS_
gtd:_String_GetHashCode_m931956593
xdb:__ZN14PlayerSettings23VirtualRedirectTransferER17RemapPPtrTransfer
IVj:_emscripten_glGetIntegerv__wrapper
KT:__ZN12AudioManager31GetCurrentSpatializerDefinitionEv
F9a:__ZN12MeshRenderer16UpdateCachedMeshEv
Wvb:__Z19TransferField_ArrayI14SafeBinaryRead27Converter_SimpleNativeClassI8GradientEEvRK23StaticTransferFieldInfoR31RuntimeSerializationCommandInfoRT0_
I6b:__ZN15dense_hashtableINSt3__24pairIKN4core12basic_stringIcNS2_20StringStorageDefaultIcEEEE10vector_setI4PPtrI11SpriteAtlasENS0_4lessISB_EE13stl_allocatorISB_L18MemLabelIdentifier81ELi16EEEEES6_20StringHash32FunctionIS6_EN14dense_hash_mapIS6_SH_SK_NS0_8equal_toIS6_EESE_ISI_LSF_81ELi16EEE9SelectKeyESN_SO_E15insert_noresizeERKSI_
vrj:__ZN6il2cpp2vm5Image9GetCorlibEv
wC:__ZNK27StateMachineBehaviourPlayer25FireStateMachineBehaviourEiiN7mecanim12statemachine19StateMachineMessageE
VMh:_ScrollRectEvent__ctor_m2283981448
Xbh:__Z52RuntimeInvoker_Single_t2076509932_Single_t2076509932PFvvEPK10MethodInfoPvPS4_
Tlh:__Z109RuntimeInvoker_Single_t2076509932_RuntimeObject_RuntimeObject_Single_t2076509932_ILayoutElementU26_t440254879PFvvEPK10MethodInfoPvPS4_
B_e:_Enumerator_VerifyState_m3913376581_AdjustorThunk
MFf:_NameObjectCollectionBase_System_Collections_ICollection_CopyTo_m810189168
Gwd:_ExecuteEvents_Execute_m171612015
g1b:__ZN6Camera15SetOrthographicEb
BDc:__ZN6b2Body13ResetMassDataEv
OWc:_UNITY_FT_Stream_GetUShort
cia:__ZN13GfxDeviceGLES14DisableScissorEv
Wvg:__ZL71ReliabilityContractAttribute_t1625655220_CustomAttributesCacheGeneratorP21CustomAttributesCache
$3d:_Decimal_op_Explicit_m1986696267
eEh:_Dictionary_2_System_Collections_ICollection_CopyTo_m3578539931_gshared
QJe:_NumberFormatter_AppendDecimalString_m3532330813
Gc:_glVertexAttrib4f
vdg:_ILGenerator__ctor_m3365621387
ice:_Environment_GetFolderPath_m1849163024
Kye:_ASN1_Add_m2540239672
UMc:__ZN12b2BroadPhase13QueryCallbackEi
hge:_Array_InternalArray__ICollection_Remove_TisInt16_t4041245914_m3380378727_gshared
VQf:_MethodDictionary_CopyTo_m1721788774
iRc:__ZNSt3__26vectorINS_4pairINS1_IttEEfEENS_9allocatorIS3_EEE8__appendEj
b8h:_SinkProviderData__ctor_m1828480392
Xyd:_RaycastResult_ToString_m2233441736_AdjustorThunk
ADj:_GC_set_hdr_marks
GTa:__Z17SetupObjectMatrixRK10Matrix4x4fi
cqd:_SecurityFrame_ToString_m1282306399
zwe:_SimpleCollator_MatchesBackwardCore_m1884994267
I4f:_TimeSpan_From_m1249538749
S8c:__Z84Register_UnityEngine_RectTransformUtility_INTERNAL_CALL_RectangleContainsScreenPointv
Vve:_SimpleCollator_GetSortKey_m1317491197
n3:__ZN13RuntimeStaticINSt3__23mapINS0_4pairIPcS3_EEPFbPvR14SafeBinaryReadE20smaller_tstring_pairIPKcENS0_9allocatorINS2_IKS4_S9_EEEEEELb0EE13StaticDestroyES5_
Dkg:_MonoEvent_GetCustomAttributes_m3899596098
z3d:_Convert_ToSByte_m3295168715
Jx:__ZN7mecanim9animation16CreateClipMemoryEPKNS0_4ClipEiRNS_6memory9AllocatorE
YSc:_open_face
Dbc:__ZZL31RegisterOtherRendererPropertiesR22GenericPropertyBindingEN30Wrapper_RendererReceiveShadows13SetFloatValueEPvf
N7c:__Z17RegisterModule_UIv
MTe:_UnmanagedMemoryStream_Flush_m3305300000
iNb:__ZL11LoadManagerRKN4core12basic_stringIcNS_20StringStorageDefaultIcEEEEi
EDj:_GC_printf
Ria:__ZN9GfxDevice24CreateRenderDepthSurfaceE9TextureIDiiii16TextureDimension17DepthBufferFormat18SurfaceCreateFlags
YVf:_ObjectManager_DoFixups_m835924385
wTf:_RemotingServices_CreateWellKnownServerIdentity_m3390048085
AN:__ZN4FMOD5Sound11setUserDataEPv
Vu:__ZN7mecanim9animation9DenseClip8TransferI18StreamedBinaryReadILb0EEEEvRT_
vjb:__ZN14SafeBinaryRead21TransferSTLStyleArrayINSt3__26vectorIN9ShaderLab19SerializedSubShaderENS1_9allocatorIS4_EEEEEEvRT_17TransferMetaFlags
rA:__ZN27AnimationLayerMixerPlayable13SetInputCountEi
xtf:_ARC4Managed_KeySetup_m73384687
zJa:__ZNK25SingleBlockMemoryFileData4SizeEv
r6d:_DateTime_Equals_m2562884703
VE:__ZN9BlobWrite8TransferIN7mecanim12statemachine18StateMachineMemoryEEEvRT_PKc17TransferMetaFlags
vR:__ZL50UnityAudioEffect_InternalSetFloatParameterCallbackP14FMOD_DSP_STATEif
Ttj:__ZNK15dense_hashtableINSt3__24pairIK10KeyWrapperIP12Il2CppObjectEN6il2cpp2gc9CachedCCWEEES5_NS7_5utils11PointerHashIS3_EEN14dense_hash_mapIS5_S9_SD_NS5_14EqualsComparerINS0_8equal_toIS4_EEEENS0_9allocatorISA_EEE9SelectKeyESI_SK_E3endEv
U0:__ZN17LowLevelAllocator4FreeEPvj
XZd:_KeyMarker__cctor_m2057880225
$_i:__ZN15dense_hashtableINSt3__24pairIK10KeyWrapperIPK22Il2CppGenericParameterEP11Il2CppClassEES6_N6il2cpp5utils11PointerHashIS4_EEN14dense_hash_mapIS6_S9_SE_NS6_14EqualsComparerINS0_8equal_toIS5_EEEENS0_9allocatorISA_EEE9SelectKeyESJ_SL_E9copy_fromERKSO_j
iHe:_TextInfo_get_ListSeparator_m3426465394
LPe:_FileStream_BeginWrite_m3895959548
yzf:_Context_set_RecordProtocol_m1968834768
lba:__ZL19StaticCleanupPlayerPv
yLf:_X509Certificate2Enumerator_MoveNext_m1861665712
hec:__ZN13PlayableGraph4StopEv
m5g:__Z87RuntimeInvoker_RuntimeObject_RuntimeObject_RuntimeObject_RuntimeObject_SByte_t454417549PFvvEPK10MethodInfoPvPS4_
tfa:__ZN15dense_hashtableINSt3__24pairIKN4core12basic_stringIcNS2_20StringStorageDefaultIcEEEEP11AssetBundleEES6_20StringHash32FunctionIS6_EN14dense_hash_mapIS6_S9_SC_NS0_8equal_toIS6_EENS0_9allocatorISA_EEE9SelectKeyESF_SH_ED2Ev
uQb:__Z24HandleRoundedCornerPropsP19ShaderPropertySheetRK5RectTIfERK8Vector4ff
eud:_DecoderExceptionFallbackBuffer_Fallback_m3457210607
RCi:_WaitForSecondsRealtime__ctor_m3561981695
lS:__ZN12AudioManager37RebindAudioSourcesAndSubMixersToMixerEP10AudioMixer
gCa:__ZN9Behaviour10DeactivateE19DeactivateOperation
whf:_Collection_1_System_Collections_IList_get_Item_m2836259259_gshared
u$a:__ZN13StreamingInfo8TransferI14SafeBinaryReadEEvRT_
Ujb:__ZN15dense_hashtableINSt3__24pairIKiN4core17string_with_labelILi1EEEEEi18SInt32HashFunctionN14dense_hash_mapIiS5_S7_NS0_8equal_toIiEE13stl_allocatorIS6_L18MemLabelIdentifier1ELi16EEE9SelectKeyESA_SD_E15insert_noresizeERKS6_
Tp:__Z23CalculateGlobalRotation23TransformAccessReadOnly
TXa:__ZNK9ShaderLab7Program11IsSupportedEPK6Shader
CLf:_X509Store_Close_m2412711366
Abc:__Z43InitializeRendererAnimationBindingInterfacev
Gaa:__ZL26DestroyGameObjectRecursiveR10GameObjectR11BatchDelete
AJh:_CullStateChangedEvent__ctor_m4025397477
RDj:_GC_allochblk_nth
u2f:_Mutex_ReleaseMutex_m2143813124
$7f:_UInt32_System_IConvertible_ToSByte_m604037412_AdjustorThunk
L6c:__ZZN2UI6Canvas15InitializeClassEvEN33FunctorImpl_1523kTransformChanged4CallEPviR11MessageData
Oac:__Z7HaloTexP9Texture2DPhiiii
ZRj:dynCall_i
wme:_Array_InternalArray__ICollection_CopyTo_TisKeyValuePair_2_t3749587448_m2750720485_gshared
osi:_X509Certificate__cctor_m2984068893
wse:_Component_GetComponents_TisRuntimeObject_m1186222966_gshared
kRj:dynCall_f
fAb:__Z35Transfer_Blittable_FixedBufferFieldI24GenerateTypeTreeTransferjEvRK29SerializationCommandArgumentsR31RuntimeSerializationCommandInfo
$Za:__ZN8Playable13SetInputCountEi
DQj:dynCall_v
mRe:_Path__cctor_m3685888661
l8d:_Decimal_System_IConvertible_ToDateTime_m4247760250_AdjustorThunk
eze:_BitConverterLE_ULongFromBytes_m2583105400
iwa:__ZN7ApiGLES14TextureSamplerEjjRK24GfxTextureSamplingParams17TextureColorSpace
YCh:_Dictionary_2_ToTKey_m965425080_gshared
HPa:__ZN6Camera23VirtualRedirectTransferER14SafeBinaryRead
W2e:_List_1_System_Collections_IList_Insert_m2838947798_gshared
dIj:__ZNSt3__26vectorINS_12basic_stringIDsNS_11char_traitsIDsEENS_9allocatorIDsEEEENS4_IS6_EEE8__appendEj
H4f:_TimeSpan_FromDays_m2859053398
Rbd:__ZN11UnityEngine7Connect13ConnectConfig11ConfigValueD2Ev
Cma:__ZNSt3__26__treeINS_12__value_typeIjP14DataBufferGLESEENS_19__map_value_compareIjS4_NS_4lessIjEELb1EEENS_9allocatorIS4_EEE7destroyEPNS_11__tree_nodeIS4_PvEE
mec:__ZN13PlayableGraph15SetPrepareStageE13DirectorStage
Ab:invoke_viiiiiiii
qUe:_MissingMemberException__ctor_m2869542203
Kwa:__ZN18GfxFramebufferGLES24UpdateDefaultFramebufferEP17RenderSurfaceBaseS1_N2gl6HandleILNS2_10ObjectTypeE9EEE
QH:__ZNK18AnimatorController17GetAnimationClipsEv
oPi:_AudioSource_AddAmbisonicExtension_m312887346
Y8e:_List_1_Find_m160737912_gshared
qgi:_Uri_EnsureAbsoluteUri_m1892758054
z1a:__ZN16LightmapSettings5ResetEv
OGa:__ZN12FileAccessor4ReadEyPvPy
Xtc:__Z42Register_UnityEngine_Event_get_commandNamev
VUd:_ArrayList_ThrowNewArgumentOutOfRangeException_m3795973535
yvc:__ZN5Unity9rapidjson12PrettyWriterI16TempBufferWriterNS0_4UTF8IcEES4_13JSONAllocatorE12PrettyPrefixENS0_4TypeE
Mci:_Regex_Init_m1873144192
ize:_BitConverterLE_ToDouble_m516016818
oaa:__ZNK15FileSystemEntry6ExistsEv
eab:__ZNK9Transform21GetLocalToWorldMatrixER10Matrix4x4f
hVi:_TextGenerator_ValidatedSettings_m647349856
Kuf:_EncryptedPrivateKeyInfo__ctor_m3398795484
LAi:_Transform_SetParent_m3603514159
BO:__ZN13AudioListener23VirtualRedirectTransferER19StreamedBinaryWriteILb0EE
Gja:__ZN13GfxDeviceGLES11CopyTextureE9TextureIDS0_
DUj:_emscripten_glViewport__wrapper
Mv:__ZN6Motion17MainThreadCleanupEv
Ajh:__Z47RuntimeInvoker_RuntimeObject_Single_t2076509932PFvvEPK10MethodInfoPvPS4_
S8h:_Context__cctor_m3895126354
Q0c:_tt_size_select
pt:__ZNSt3__214__split_bufferIN13AnimationClip10FloatCurveER13stl_allocatorIS2_L18MemLabelIdentifier26ELi16EEED2Ev
YY:__ZN11UnityEngine15CloudWebService17SessionEventQueue15RestoreFromFileER12FileAccessorPvy
odb:__ZN14PlayerSettingsD2Ev
kOc:__ZN23ColliderTilingExtensionC2Ev
jPe:_FileStream_get_Length_m2265080501
V5f:_Type_type_is_assignable_from_m1620694099
FCj:_GC_reclaim_all
RGc:__ZN10ClipperLib15FirstIsBottomPtEPKNS_5OutPtES2_
xda:__ZN13PlayableGraph14DestroyOutputsEv
R9h:_ContextAttribute_GetPropertiesForNewContext_m4007241045
nf:___syscall122
sBi:_Vector2_set_Item_m985527261_AdjustorThunk
msf:_Kernel_Subtract_m2224959291
o5h:_ResourceSet__ctor_m2566914412
yDc:__ZN19CompositeCollider2D22AddColliderToCompositeEP10Collider2DRK13dynamic_arrayIP7b2ShapeLj4EE
qtf:_ASN1Convert_ToDateTime_m2305963290
Bmd:_SymmetricAlgorithm_Finalize_m1665128997
wrf:_BigInteger__ctor_m2991182310
X0i:__ZN6il2cpp2vm5Class6IsEnumEPK11Il2CppClass
ulc:__Z52Register_UnityEngine_Camera_INTERNAL_CALL_RaycastTryv
SMj:_mkdir
s0d:_Convert_ToByte_m791636053
u2h:_InternalEnumerator_1_get_Current_m2986222582_AdjustorThunk
Oxi:_Vector2_set_Item_m985527261
DRj:dynCall_iifi
Cjc:__ZN18ScriptingArguments13CopyFromOtherERKS_
fZc:_ps_hints_close
idc:__Z16CreateRenderLoopR6Camera
E1:_tlsf_create
w3h:_DefaultComparer_Compare_m4039941311_gshared
fzh:_Enumerator_MoveNext_m2534596951_AdjustorThunk
yeb:__ZN14SafeBinaryRead21TransferSTLStyleArrayINSt3__26vectorIN15ResourceManager10DependencyE13stl_allocatorIS4_L18MemLabelIdentifier52ELi16EEEEEEvRT_17TransferMetaFlags
iGc:__ZN10ClipperLib7ClipperC1Ei
fJb:__ZN13MonoBehaviour23VirtualRedirectTransferER18StreamedBinaryReadILb0EE
dlb:__ZN9ShaderLab20SerializedSubProgramC2ERKS0_
Nld:_SHA256Managed_ProcessBlock_m1064908669
VOj:__ZNK10__cxxabiv121__vmi_class_type_info27has_unambiguous_public_baseEPNS_19__dynamic_cast_infoEPvi
z4d:_Convert_ToUInt64_m2215781574
Jsi:_X509Certificate_VerifySignature_m4020723406
Hde:_CompareInfo_LastIndexOf_m2978196696
Eze:_DSAManaged_Generate_m3166917081
Gvh:_Enumerator_VerifyCurrent_m3330382363_AdjustorThunk
WNh:_ScrollRect_StopMovement_m1824352159
X3a:__ZN15QualitySettings23VirtualRedirectTransferER19StreamedBinaryWriteILb0EE
LVb:__Z20RenderFullScreenQuadR9GfxDeviceRK6Camera17ShaderChannelMaskRK5RectTIfEf21MonoOrStereoscopicEye
pkf:_ReadOnlyCollection_1_System_Collections_IList_Contains_m2320811592_gshared
ima:__ZN16RenderTextureMap5QueryEPK17RenderSurfaceBase
yTe:_UnexceptionalStreamWriter_Write_m186237617
JNh:_ScrollRect_UpdateScrollbars_m3921404746
iYj:_emscripten_glUniform4iv__wrapper
ZRd:_Boolean_CompareTo_m1086129598_AdjustorThunk
Nbc:__ZN8Material8GetFloatEN9ShaderLab16FastPropertyNameE
qVc:_psnames_module_class_pic_free
fsc:__Z11GetGUIStatev
ng:_pthread_key_create
iVd:_ArrayList_Clear_m3834604134
ug:_emscripten_glGetObjectParameterivARB
TPa:__ZN15SerializeTraitsI10ColorRGBAfE8TransferI14SafeBinaryReadEEvRS0_RT_
s6i:__ZN6il2cpp2vm13MetadataCache27GetEventDefinitionFromIndexEi
rba:__ZN22BuiltinResourceManager13StaticDestroyEPv
lqe:_Array_Resize_TisCustomAttributeTypedArgument_t1498197914_m3055365808_gshared
mDc:__ZNK14b2CapsuleShape11ComputeMassEP10b2MassDataf
xaa:__ZN10GameObject17GetComponentIndexEPN5Unity9ComponentE
z5a:__ZN14SafeBinaryRead21TransferSTLStyleArrayI13dynamic_arrayI7SubMeshLj4EEEEvRT_17TransferMetaFlags
Rqd:_Single_IsNegativeInfinity_m2615809279
yLe:_Int32_GetTypeCode_m3811463295_AdjustorThunk
sxf:_CipherSuiteFactory_GetSsl3SupportedCiphers_m2476597368
rHf:_IPv6Address_Fill_m1824197512
qUc:__ZNK13TextRendering4Font11GetMaterialEv
hR:__ZN29AudioEffectInternalDefinition9CreateDSPEPN4FMOD6SystemEPvPfP23UnityAudioAmbisonicDataPP25UnityAudioSpatializerData
o2c:_UNITY_tt_face_vary_cvt
wrc:__GLOBAL__sub_I_Grid_cpp
h8i:__ZNK6il2cpp5utils10functional6FilterINSt3__212basic_stringIcNS3_11char_traitsIcEENS3_9allocatorIcEEEENS0_13VmStringUtils21CaseSensitiveComparerEEclIPKcEEbRKT_
rsc:__Z28DidLoadAllAssembliesCallbackv
b3b:__ZN35RegisterRuntimeInitializeAndCleanup22ExecuteInitializationsEv
WJc:__Z14b2TimeOfImpactP11b2TOIOutputPK10b2TOIInput
yFa:__ZN23PreloadManagerOperation14SetFinalTimingEffff
i:DYNAMICTOP_PTR
DBi:_Vector2_op_Division_m1216397880
TEd:_Dropdown_SetupTemplate_m1416189897
nRb:__Z11CopyTextureP7TextureiiS0_ii
_cb:__ZN13BuildSettings8TransferI18StreamedBinaryReadILb0EEEEvRT_
GKh:_PositionAsUV1__ctor_m412270210
$cc:__ZN10GameObject15InitializeClassEv
IWf:_SerializationInfo_GetInt16_m3549836657
umc:__Z38Renderer_Get_Custom_PropSortingLayerIDP12Il2CppObject
F$g:__ZL90StencilMaterial_t1630303189_CustomAttributesCacheGenerator_StencilMaterial_Add_m1745413071P21CustomAttributesCache
nt:__ZN13AnimationClip10FloatCurveC2ERKS0_
Uae:_Double_Equals_m920556135_AdjustorThunk
fGa:__ZN14AsyncOperationD0Ev
s$d:_Stack_Push_m284336154
Uic:__Z25scripting_raise_exception21ScriptingExceptionPtr
hKd:_InputField_set_caretBlinkRate_m3521089516
c6d:_DateTime_Add_m4237489122
Heb:__ZN15ResourceManager10Dependency8TransferI14SafeBinaryReadEEvRT_
hCj:_GC_extend_size_map
x4h:_Comparer_1_System_Collections_IComparer_Compare_m637596782_gshared
LR:__ZN4FMOD6System9setDriverEi
qtj:__ZN6il2cpp8metadataL24RecursiveGenericDepthForEPK17Il2CppGenericInst
vNa:__ZNK9Transform11GetRotationEv
pKf:_X509Certificate2_Find_m833446211
tW:__ZN12AudioManager15DidReloadDomainEv
BZc:_pshinter_get_globals_funcs
gAb:__Z18Transfer_BlittableI24GenerateTypeTreeTransferLb0EyEvRK29SerializationCommandArgumentsR31RuntimeSerializationCommandInfo
WXa:__ZN8Material14CreateMaterialER6ShaderN6Object9HideFlagsEb
pAe:_KeyPairPersistence_FromXml_m2310151202
R7d:_DBNull_System_IConvertible_ToUInt64_m2919804476
aNj:_fread
qYc:_tt_cmap12_char_map_binary
Ebh:__Z51RuntimeInvoker_Double_t4078015681_Int16_t4041245914PFvvEPK10MethodInfoPvPS4_
WUc:_ft_outline_glyph_transform
Fxa:__Z25GetBuiltinResourceManagerv
Q_h:_InternalEnumerator_1_System_Collections_IEnumerator_get_Current_m439366097_AdjustorThunk
Rr:__ZN6Motion21AddSelfToDependenciesER8UserList
Btj:__ZN6il2cpp2gc8GCHandle15GetTargetHandleEP12Il2CppObjectii
Lh:_llvm_trap
a5:__ZNSt3__27__sort5IRNS_6__lessIN12_GLOBAL__N_114ParamNameIndexES3_EEPS3_EEjT0_S7_S7_S7_S7_T_
MNe:_Directory_CreateDirectory_m3561886598
cld:_RSAPKCS1KeyExchangeFormatter_CreateKeyExchange_m1122286094
ECj:_get_index
qs:__ZN11UnityEngine9Animation14GenericBinding8TransferI14SafeBinaryReadEEvRT_
yQa:__Z26scripting_method_get_class18ScriptingMethodPtr
Eyf:_ClientSessionInfo_get_Valid_m3589823308
oBe:_PKCS1_Sign_v15_m2137018891
ihe:_SetPropertyUtility_SetClass_TisRuntimeObject_m3524554928_gshared
lKj:_ScrollScriptMenu__ctor_m1557171140
jUa:__ZN17CollisionMeshData20VertexDataHasChangedEv
n7i:__ZN6il2cpp2vm21ThreadPoolCompartment12DetachThreadEP12Il2CppThread
fja:__ZN13GfxDeviceGLES30SetBackBufferColorDepthSurfaceEP17RenderSurfaceBaseS1_
m$f:_Latin1Encoding_GetBytes_m1067304501
Luc:__Z52Register_UnityEngine_GUIUtility_get_systemCopyBufferv
Dec:__ZN16StreamedResource8TransferI18StreamedBinaryReadILb0EEEEvRT_
Knc:__Z49Register_UnityEngine_Input_get_imeCompositionModev
Tjb:__ZN15dense_hashtableINSt3__24pairIKiN4core17string_with_labelILi1EEEEEi18SInt32HashFunctionN14dense_hash_mapIiS5_S7_NS0_8equal_toIiEE13stl_allocatorIS6_L18MemLabelIdentifier1ELi16EEE9SelectKeyESA_SD_E12resize_deltaEjj
b0b:__ZNK20OcclusionCullingData22GetStaticRendererCountEv
BWc:_UNITY_tt_face_free_ps_names
qCc:__GLOBAL__sub_I_runtime_particlesystem_modules_5_cpp
OVb:__ZNK6Camera17GetSkyboxMaterialEv
qZj:_emscripten_glDisableVertexAttribArray__wrapper
iXh:_InternalEnumerator_1_get_Current_m3259181373_AdjustorThunk
zZh:_InternalEnumerator_1_get_Current_m789289033_gshared
due:_Array_InternalArray__get_Item_TisUILineInfo_t3621277874_m1432166059_gshared
H9a:__ZN12MeshRenderer18CalculateLocalAABBER4AABBRKS_RK4Mesh
c_i:_ContactFilter2D_CheckConsistency_m4046727088_AdjustorThunk
Hch:__Z242RuntimeInvoker_Boolean_t3825574718_RuntimeObject_RuntimeObject_RuntimeObject_SByte_t454417549_DateTimeU26_t3448131235_DateTimeOffsetU26_t3212986406_RuntimeObject_Int32_t2071877448_SByte_t454417549_BooleanU26_t3168250738_BooleanU26_t3168250738PFvvEPK10MethodInfoPvPS4_
bIe:_Guid_ToString_m3927110175
x0:__ZN21UnityDefaultAllocatorI17LowLevelAllocatorE8AllocateEji
D1h:_InternalEnumerator_1_get_Current_m889125315_gshared
wJd:_Image_get_preferredHeight_m1045199335
B5c:__ZL28InitializeUIScriptingClassesv
ali:_Display_RecreateDisplayList_m1746695619
WMb:__ZN10UnityScene10ClearRootsEv
Qqb:__ZN12HandlerChain10AtomicMoveER13FileEntryDataS1_
jhe:_SetPropertyUtility_SetStruct_TisBoolean_t3825574718_m752301298_gshared
Zda:__ZZN15DirectorManager15InitializeClassEvEN48PreLateUpdateDirectorDeferredEvaluateRegistrator7ForwardEv
GQc:__ZN20SpeedTreeWindManager6UpdateEf
sfi:_Literal_GetWidth_m1285678191
W1d:_Decimal_ThrowAtPos_m3318712794
EKi:_GUITargetAttribute_GetGUITargetAttrValue_m3706077059
B3g:__Z63RuntimeInvoker_Char_t3454481338_Int16_t4041245914_RuntimeObjectPFvvEPK10MethodInfoPvPS4_
QBe:_RSAManaged_GetPaddedValue_m4394397
FG:__ZN7mecanim9animation20CreateAvatarConstantEPNS_8skeleton8SkeletonEPNS1_13SkeletonPoseTIN4math4trsXEEES8_PNS_5human5HumanES3_iRKS6_RNS_6memory9AllocatorE
wTe:_UnexceptionalStreamWriter__ctor_m2209699189
i5e:_List_1_Find_m970100220_gshared
Uge:_Array_InternalArray__ICollection_Remove_TisVector2_t2243707579_m3881494282_gshared
c9a:__ZN14CompressedMesh8TransferI19StreamedBinaryWriteILb0EEEEvRT_
lbg:_AssemblyFileVersionAttribute__ctor_m2026149866
pne:_Array_InternalArray__ICollection_CopyTo_TisUILineInfo_t3621277874_m2142954044_gshared
rhg:_TypeBuilder_SetParent_m387557893
IBi:_Vector2_get_up_m1721661564
dxf:_CipherSuiteCollection_cultureAwareCompare_m1825407448
G5d:_DateTimeFormatInfo_GetEraName_m1437894363
Vne:_Array_InternalArray__Insert_TisLabelFixup_t4090909514_m3927736182_gshared
OMf:_X509KeyUsageExtension_Encode_m3100824560
RSa:__ZN24GenerateTypeTreeTransfer8TransferI21PlatformShaderDefinesEEvRT_PKc17TransferMetaFlags
peb:__ZNK15ResourceManager22GetTypeVirtualInternalEv
cFh:_DefaultComparer_GetHashCode_m1728348656_gshared
zLd:_InputField_MouseDragOutsideRect_m3758282095
xqi:_Object__cctor_m3758199678
zKh:_Outline_ModifyMesh_m3796381413
SQc:__ZN13TextRendering4Font23VirtualRedirectTransferER24GenerateTypeTreeTransfer
UNf:_Interpreter_PopulateGroup_m4098755954
Wuf:_PrivateKeyInfo_DecodeRSA_m919734506
Snc:__ZNSt3__27__sort4IRNS_6__lessI11KeyframeTplIfES3_EEPS3_EEjT0_S7_S7_S7_T_
wHe:_GuidParser_Reset_m3389485794
gW:__ZN11AudioSource15InitializeClassEv
gbf:_Enumerator_System_Collections_IEnumerator_get_Current_m1270503615_gshared
AWh:_InternalEnumerator_1_System_Collections_IEnumerator_get_Current_m3315293493_gshared
WKi:_TextEditor__ctor_m1435332308
lVb:__ZN11HaloManager17RenderGeometryJobEP25DynamicVBOGeometryJobDataj
IZh:_InternalEnumerator_1_System_Collections_IEnumerator_get_Current_m4023948615_gshared
NL:__ZNSt3__227__insertion_sort_incompleteIRPFbN7mecanim9animation13MuscleIndexIdES3_EPS3_EEbT0_S8_T_
Kud:_BaseInput_get_mousePresent_m3571192771
CZj:_emscripten_glBlendEquation__wrapper
Elj:__ZN15dense_hashtableINSt3__24pairIK10KeyWrapperIP11Il2CppClassES4_EES5_N6il2cpp8metadata16SZArrayClassHashEN14dense_hash_mapIS5_S4_SA_NS5_14EqualsComparerINS9_19SZArrayClassCompareEEENS0_9allocatorIS7_EEE9SelectKeyESE_SG_E13set_empty_keyERKS7_
ONj:__ZNSt3__212basic_stringIcNS_11char_traitsIcEENS_9allocatorIcEEE6__initEPKcj
Qj:_emscripten_set_fullscreenchange_callback
$Ae:_KeyPairPersistence__IsUserProtected_m3417764903
pNf:_CategoryUtils_CategoryFromName_m226887453
o9d:_Decimal_op_Division_m1099836590
J$:__ZN11UnityEngine15CloudWebService14DataDispatcher22ResetNetworkRetryIndexEv
Vj:_emscripten_glDrawArrays
lPb:__ZZ23InitPlayerLoopCallbacksvEN43EarlyUpdateExecuteMainThreadJobsRegistrator7ForwardEv
k$:__ZN11UnityEngine15CloudWebService19SessionEventManagerC2Ev
FOe:_File_Open_m1543461971
CZd:_Hashtable_KeyEquals_m1433874944
KCi:_Vector4__cctor_m1770725722
Hci:_QuickSearch_GetShiftDistance_m2364008966
ygd:__ZN13RuntimeStaticI14dynamic_bitsetLb0EE16StaticInitializeEPv
dt:__ZN13AnimationClip10FloatCurve8TransferI14SafeBinaryReadEEvRT_
mga:__ZNSt3__222__merge_move_constructIRNS_4lessIN4core12basic_stringIcNS2_20StringStorageDefaultIcEEEEEENS_11__wrap_iterIPS6_EESB_EEvT0_SC_T1_SD_PNS_15iterator_traitsISC_E10value_typeET_
klc:__Z41Register_UnityEngine_Camera_get_eventMaskv
yW:__ZL19CleanupModule_Audiov
$Mi:_GenericComparer_1_Compare_m2516380588_gshared
Mbj:__ZN6il2cpp2os4File10DeleteFileERKNSt3__212basic_stringIcNS2_11char_traitsIcEENS2_9allocatorIcEEEEPi
NNe:_File_Exists_m1685968367
jXi:_Canvas_get_scaleFactor_m1899077319
kxb:__Z29Transfer_Blittable_ArrayFieldI14SafeBinaryReadiEvRT_R9ArrayInfoRK23StaticTransferFieldInfo
d8i:__ZN6il2cpp6icalls8mscorlib6System8MonoType8GetFieldEP20Il2CppReflectionTypeP12Il2CppStringi
m4i:__ZN15dense_hashtableINSt3__24pairIK10KeyWrapperIN6il2cpp5utils13dynamic_arrayIPK10Il2CppTypeLj4EEEEPFvvEEESA_NS3_8metadata19Il2CppSignatureHashEN14dense_hash_mapISA_SD_SG_NSA_14EqualsComparerINSF_22Il2CppSignatureCompareEEENS0_9allocatorISE_EEE9SelectKeyESK_SM_E5clearEv
XVj:_emscripten_glVertexAttrib3fv__wrapper
_qf:_Comparison_1_BeginInvoke_m1549337842_gshared
Iti:_X509Crl_VerifySignature_m25189948
Yhc:__ZN8Material10GetTextureEN9ShaderLab16FastPropertyNameE
R8a:__ZN18StreamedBinaryReadILb0EE21TransferSTLStyleArrayI13dynamic_arrayI10Matrix4x4fLj16EEEEvRT_17TransferMetaFlags
G8b:__ZNK28MonoBehaviourPropertyBinding13GetFloatValueERKN11UnityEngine9Animation10BoundCurveE
_Wf:_RuntimeFieldHandle_Equals_m1202966418_AdjustorThunk
uEj:_GC_generic_malloc
Gyh:_Enumerator_System_Collections_IEnumerator_get_Current_m2160496972_AdjustorThunk
kja:__ZN13GfxDeviceGLES32CreateDepthRenderSurfacePlatformEP17RenderSurfaceBase17DepthBufferFormat
Wii:_Camera_INTERNAL_CALL_ScreenToViewportPoint_m2554844623
R5a:__ZN24GenerateTypeTreeTransfer8TransferINSt3__26vectorI13dynamic_arrayI8Vector2fLj4EENS1_9allocatorIS5_EEEEEEvRT_PKc17TransferMetaFlags
ls:__ZNSt3__26vectorI14AnimationEvent13stl_allocatorIS1_L18MemLabelIdentifier26ELi16EEE18__construct_at_endINS_11__wrap_iterIPS1_EEEENS_9enable_ifIXsr21__is_forward_iteratorIT_EE5valueEvE4typeESB_SB_j
ubi:_MatchCollection_TryToGet_m2938913145
UZj:_emscripten_glIsTexture__wrapper
hni:_Input_GetKeyDown_m2974714138
Zhd:_KeyedHashAlgorithm_get_Key_m3672929432
Jia:__ZN9GfxDevice25ReleaseAsyncCommandHeaderEPN21GfxDeviceAsyncCommand3ArgE
ppi:_Mesh_SetSizedArrayForChannel_m3453069292
Ytf:_MD2Managed_HashCore_m248147901
qPc:__ZN17Physics2DSettings15InitializeClassEv
sya:__ZN21UniformBufferTFMethod20IsBoneCountSupportedEi
CMh:_Selectable_FindSelectableOnLeft_m3706572906
rQe:_MemoryStream__ctor_m4073175573
OXa:__ZN6Shader27MarkShaderStateNotSupportedEPKS_
qre:_Array_Sort_TisVector4_t2243707581_TisVector4_t2243707581_m917148421_gshared
M6f:_UInt16_System_IConvertible_ToBoolean_m887616848_AdjustorThunk
VXg:__ZL81AnimationTriggers_t3244928895_CustomAttributesCacheGenerator_m_HighlightedTriggerP21CustomAttributesCache
Txa:__ZN25TransformFeedbackSkinning8SkinMeshERK18VertexStreamSourceP9GfxBufferP17GPUSkinPoseBufferS4_ii17ShaderChannelMaskb
Nqj:__ZN15dense_hashtableINSt3__24pairIK10KeyWrapperIP14Il2CppIUnknownEjEES5_N6il2cpp5utils11PointerHashIS3_EEN14dense_hash_mapIS5_jSB_NS5_14EqualsComparerINS0_8equal_toIS4_EEEENS0_9allocatorIS7_EEE9SelectKeyESG_SI_E12resize_deltaEjj
m0f:_UnicodeEncoding_GetCharCount_m3719064538
VRd:_Boolean_CompareTo_m3691698947
dFh:_DefaultComparer_Equals_m3262686272_gshared
LCb:__Z22TransferField_NonArrayI19StreamedBinaryWriteILb0EE27Converter_SimpleNativeClassI8GUIStyleEEvRK23StaticTransferFieldInfoR31RuntimeSerializationCommandInfoRT0_
WRe:_StreamReader_ReadToEnd_m3871366821
SOh:_Selectable_set_interactable_m63718297
MBc:__ZN8JSONRead8TransferIN4math12int3_storageEEEvRT_PKc17TransferMetaFlagsb
gQb:__ZN27IntermediateRendererManager29ClearAllIntermediateRenderersEv
one:_Array_InternalArray__ICollection_CopyTo_TisUICharInfo_t3056636800_m2132994790_gshared
Up:__Z17CalculateGlobalSM23TransformAccessReadOnlyRKN4math7_float4E
jY:__ZN23CloudWebServicesManager23VirtualRedirectTransferER18StreamedBinaryReadILb0EE
Ul:_emscripten_glLoadIdentity
p3b:__ZNSt3__26vectorINS_4pairIN4core12basic_stringIcNS2_20StringStorageDefaultIcEEEEPK17MessageIdentifierEENS_9allocatorISA_EEE26__swap_out_circular_bufferERNS_14__split_bufferISA_RSC_EEPSA_
b0d:_Decimal_op_GreaterThan_m1625379433
y_b:__Z29CullShadowCastersWithoutUmbraR9IndexListRK17CullingParametersPK4AABBjj
SUb:__ZN6Camera28DefaultPerformRenderFunctionclEPS_13RenderingPathP11CullResults
Fob:__ZN6Shader16GetDefaultOrNullEv
vp:__ZN4AABB8TransferI14SafeBinaryReadEEvRT_
fdh:__Z79RuntimeInvoker_RuntimeObject_SByte_t454417549_SByte_t454417549_SByte_t454417549PFvvEPK10MethodInfoPvPS4_
IIc:__ZN16PhysicsManager2D26GetGameObjectForRaycastHitERK12RaycastHit2D
uIe:_Int16_System_IConvertible_ToDecimal_m2010889121_AdjustorThunk
Kge:_Array_InternalArray__ICollection_Remove_TisPlayableBinding_t2498078091_m2632165671_gshared
g2a:__ZN18StreamedBinaryReadILb0EE21TransferSTLStyleArrayI13dynamic_arrayI12LightmapDataLj4EEEEvRT_17TransferMetaFlags
poc:__Z49Register_UnityEngine_MonoBehaviour_StartCoroutinev
f5b:__Z11MD5ToStringPh
CZe:_Enumerator_MoveNext_m2625246500_AdjustorThunk
unc:__Z38Input_Get_Custom_PropCompositionStringv
F1f:_UTF8Encoding_GetPreamble_m4179999478
jK:__ZN7mecanim12statemachine18TransitionConstant8TransferI19StreamedBinaryWriteILb0EEEEvRT_
P0i:__ZN6il2cpp2vm5Class19GetArrayElementSizeEPK11Il2CppClass
m_c:_cf2_builder_moveTo
AZd:_SyncHashtable__ctor_m3750218498
sZ:__ZN9JSONWrite8TransferIN4core12basic_stringIcNS1_20StringStorageDefaultIcEEEEEEvRT_PKc17TransferMetaFlags
Vqi:_GeneralNames_get_IPAddresses_m1712556836
U0f:_UTF7Encoding_GetByteCount_m253528135
qyd:_PointerInputModule_CopyFromTo_m2185451090
jKc:__ZN24b2ChainAndPolygonContact6CreateEP9b2FixtureiS1_iP16b2BlockAllocator
XNj:__ZNSt3__212basic_stringIcNS_11char_traitsIcEENS_9allocatorIcEEE6resizeEjc
tke:_Array_InternalArray__IndexOf_TisMonoResource_t3127387157_m1933788179_gshared
rdb:__ZN14PlayerSettings16CheckConsistencyEv
iV:__ZN11AudioModule30GetOrCreateDSPFromCustomFilterEP17AudioCustomFilter
bRa:__ZN19AtomicPageAllocatorD2Ev
An:FUNCTION_TABLE_viiiiiiiiiiiiii
nrj:__ZN6il2cpp6icalls8mscorlib6System13GlobalizationL20culture_lcid_locatorEPKvS5_
Hef:_Collection_1_Add_m3182287887_gshared
Dxd:_PointerEventData_set_useDragThreshold_m2778439880
i$a:__ZNK12CubemapArray16ExtractImageImplEP14ImageReferenceNS0_8BlitModeEbi
ooc:__Z63Register_UnityEngine_MonoBehaviour_StartCoroutine_Auto_Internalv
At:__ZNSt3__26vectorIN13AnimationClip12Vector3CurveE13stl_allocatorIS2_L18MemLabelIdentifier26ELi16EEEC2INS_11__wrap_iterIPS2_EEEET_SB_RKS5_PNS_9enable_ifIXaasr21__is_forward_iteratorISB_EE5valuesr16is_constructibleIS2_NS_15iterator_traitsISB_E9referenceEEE5valueEvE4typeE
Mhc:__ZN10systeminfo24GetSystemLanguageCultureEi
S$f:_StringBuilder_Append_m3618697540
gOh:_ScrollRect_get_normalizedPosition_m1640825682
hod:_SecurityElement_IsValidAttributeName_m2201790420
Ddb:__ZN10VRSettings8TransferI14SafeBinaryReadEEvRT_
U6f:_UInt16_System_IConvertible_ToDecimal_m984067306_AdjustorThunk
N$b:__Z18AddGroupToWorkloadR26BlockRangeBalancedWorkloadjR13dynamic_arrayI10BlockRangeLj4EERS1_IjLj4EE
ZUc:_UNITY_FT_Outline_Get_CBox
Wle:_Array_InternalArray__ICollection_Add_TisUInt16_t986882611_m2791161149_gshared
I2:__GLOBAL__sub_I_runtime_gfxdevice_0_cpp
pvh:_Enumerator_Reset_m3115320746_gshared
AJe:_NumberFormatter_FormatDecimal_m1435371940
Nve:_SimpleCollator_GetTailContraction_m1037943844
ujd:_RC2CryptoServiceProvider_CreateEncryptor_m252199767
aHi:_U3CStartU3Ec__Iterator0_MoveNext_m2339115502_gshared
dfd:__ZN20UnityWebRequestProtoI24UnityWebRequestTransport16AtomicRefCounter14RedirectHelper14ResponseHelper15DownloadHandler13UploadHandler12HeaderHelper14AsyncOperationE8FinalizeEv
ujh:__Z165RuntimeInvoker_Void_t1841601450_RuntimeObject_Int32_t2071877448_Int32_t2071877448_RuntimeObject_Int32_t2071877448_Single_t2076509932_Single_t2076509932_RuntimeObjectPFvvEPK10MethodInfoPvPS4_
WNa:__ZN22PerThreadPageAllocator14AcquireNewPageEj
uW:__ZN24AudioScriptBufferManager15DidReloadDomainEv
yzb:__Z18Transfer_BlittableI24GenerateTypeTreeTransferLb1E9BoundsIntEvRK29SerializationCommandArgumentsR31RuntimeSerializationCommandInfo
zWb:__ZN6Camera13ClearNoSkyboxEb
QLe:_Int64_System_IConvertible_ToInt64_m989981560_AdjustorThunk
r4e:_List_1_CheckIndex_m2576265846_gshared
gkh:__Z110RuntimeInvoker_Boolean_t3825574718_Vector2_t2243707579_Vector2_t2243707579_Single_t2076509932_SByte_t454417549PFvvEPK10MethodInfoPvPS4_
uIi:_Event_get_mousePosition_m1191943012
LPd:_Array_combsort_m2486643569
Cpi:_Mesh_SetUVs_m3637760384
Mca:__ZNSt3__27__sort5IR17CompareInstanceIDPP6ObjectEEjT0_S6_S6_S6_S6_T_
i3b:__ZN13sorted_vectorINSt3__24pairIN4core12basic_stringIcNS2_20StringStorageDefaultIcEEEEPK17MessageIdentifierEEN10vector_mapIS6_S9_NS0_4lessIS6_EENS0_9allocatorISA_EEE13value_compareESF_E4findIS6_EENS0_11__wrap_iterIPSA_EERKT_
pFh:_DefaultComparer_Equals_m145577182_gshared
Xla:__ZN18GfxFramebufferGLES10InvalidateEv
vEe:_SmallXmlParser_SkipWhitespaces_m2923234398
y8d:_Decimal_System_IConvertible_ToSingle_m1736019752_AdjustorThunk
Npa:__ZN4crnd11crnd_deleteINS_13prefix_coding14decoder_tablesEEEvPT_
f4:__ZN10MemoryPoolD2Ev
Ut:__ZN17AnimationCurveTplI11QuaternionfE8TransferI14SafeBinaryReadEEvRT_
dtc:__ZNSt3__26__treeINS_12__value_typeIN4core12basic_stringIcNS2_20StringStorageDefaultIcEEEEN5IMGUI12NamedControlEEENS_19__map_value_compareIS6_S9_NS_4lessIS6_EELb1EEENS_9allocatorIS9_EEE7destroyEPNS_11__tree_nodeIS9_PvEE
MCf:_SslClientStream_get_SelectedClientCertificate_m1580018944
a1d:_DateTime_FromTicks_m75527956
Hze:_KeyGeneratedEventHandler_Invoke_m4220935979
O1f:_CompressedStack_Capture_m179370023
pva:__ZN14GfxDeviceStats19EndClientFrameStatsEv
O9d:_DebuggerTypeProxyAttribute__ctor_m3082078467
Vge:_Array_InternalArray__ICollection_Remove_TisVector3_t2243707580_m3881497481_gshared
EMj:___mmap
Kic:__ZN9Scripting26RaiseArgumentNullExceptionEPKc
r_j:b120
R1:__ZL18InternalLogConsolePKcz
yLj:_lseek
$3e:_List_1_System_Collections_IList_set_Item_m2267202349_gshared
V_e:_Enumerator_System_Collections_IEnumerator_get_Current_m3866069145_AdjustorThunk
Zef:_Collection_1_ConvertItem_m2972284337_gshared
k8:__Z37scripting_method_get_nth_argumenttype18ScriptingMethodPtri
NT:__ZN11AudioSource16UpdatePauseStateEv
tca:__ZL52StaticUnregisterSceneLoadedCallback_LightmapSettingsPv
NA:__ZN7mecanim5human25HumanPoseAddAdditiveLayerERNS0_9HumanPoseERKS1_fRKNS_6bitsetILj70EEE
Ofa:__ZN13RuntimeStaticI18SpriteAtlasManagerLb0EE16StaticInitializeEPv
rId:_HorizontalOrVerticalLayoutGroup_set_childForceExpandWidth_m1140293254
pIj:__ZN6il2cpp5utils25NativeDelegateMethodCache17AddNativeDelegateEPFvvEPK10MethodInfo
TFf:_NameObjectCollectionBase_BaseAdd_m964300824
Uee:_Array_InternalArray__ICollection_Contains_TisKeyValuePair_2_t1174980068_m650645929_gshared
KVb:__ZN27DeviceViewProjMatricesStateD2Ev
zkd:_RNGCryptoServiceProvider_RngOpen_m2238023214
icg:_CustomAttributeData_GetCustomAttributes_m4124612360
jzb:__Z18Transfer_BlittableI24GenerateTypeTreeTransferLb0E8Vector3fEvRK29SerializationCommandArgumentsR31RuntimeSerializationCommandInfo
isj:__ZN15dense_hashtableINSt3__24pairIK10KeyWrapperINS1_IPKcS4_EEEiEES6_24NamespaceAndNamePairHashN14dense_hash_mapIS6_iS9_NS6_14EqualsComparerI26NamespaceAndNamePairEqualsEENS0_9allocatorIS8_EEE9SelectKeyESD_SF_E14squash_deletedEv
OQc:__ZNK13TextRendering4Font22GetTypeVirtualInternalEv
Emj:__ZN6il2cpp2vm6Thread16RequestInterruptEP12Il2CppThread
_eb:__ZN19StreamedBinaryWriteILb0EE21TransferSTLStyleArrayINSt3__26vectorIN15ResourceManager10DependencyE13stl_allocatorIS5_L18MemLabelIdentifier52ELi16EEEEEEvRT_17TransferMetaFlags
BEf:_TlsStream_get_Position_m3551173234
M8h:_LeaseManager_SetPollTime_m3137304074
NYd:_Hashtable_CalcPrime_m1835281409
f:HEAPU32
Hqa:__ZN6prcoreL10inner_flipILj2EEEvPhS1_j
thg:_TypeBuilder_has_ctor_method_m3449702467
c7a:__ZNK14Texture2DArray16ExtractImageImplEP14ImageReferenceNS0_8BlitModeEbi
$xc:__ZN9JSONWrite8TransferIbEEvRT_PKc17TransferMetaFlags
fPd:_Array_CreateInstance_m679102425
VEa:__ZN12TLSAllocatorI14StackAllocatorED0Ev
o6h:_GCHandle_GetTarget_m2056570211
qcb:__ZN11TimeManager16CheckConsistencyEv
dTb:__ZN21GfxDeviceAsyncCommand10ArgScratch15ThreadedCleanupEv
iHc:__ZN10ClipperLib14IntersectPointERNS_5TEdgeES1_RNS_8IntPointE
Fei:_CapturingGroup_get_IsNamed_m561983186
xve:_MSCompatUnicodeTable_IsJapaneseSmallLetter_m2541532635
Erf:_BigInteger_GenerateRandom_m1878468830
Kyb:__ZN12NativeBufferI27Converter_UnityEngineObjectE15SetupForWritingER9ArrayInfo
UGd:_Graphic_UpdateGeometry_m2431537946
sXe:_ObsoleteAttribute__ctor_m834417715
se:_glTexImage3D
vW:__Z20RegisterModule_Audiov
mxf:_TlsCipherSuite__ctor_m2983563913
lYa:__ZNSt3__26vectorINS_4pairI11ShaderTagIDS2_EENS_9allocatorIS3_EEE6insertENS_11__wrap_iterIPKS3_EERS8_
Be:_JS_SystemInfo_GetCurrentCanvasWidth
gjc:__ZL34GetComponentsImplementationRecurseILb1ELi0ELi1EEbR10GameObjectbRK17CompareParametersRK39GetComponentsImplementation_ReturnValue
rpj:__ZN6il2cpp2vm14PlatformInvoke30MarshalCSharpStringToCppStringEP12Il2CppString
Uuj:__ZN6il2cpp2vm5Field10IsInstanceEP9FieldInfo
Zdb:__ZN10VRSettings8TransferI18StreamedBinaryReadILb0EEEEvRT_
Qz:__ZN22AnimationMixerPlayable12MixerProcessEP35AnimationPlayableEvaluationConstantP32AnimationPlayableEvaluationInputP33AnimationPlayableEvaluationOutputM17AnimationPlayableFvS1_S3_S5_EPFvS1_S3_S5_ESA_PFvS5_S1_S3_S5_PN7mecanim16ValueArrayWeightEfEPFvS1_S3_S5_SD_fE
aYh:_InternalEnumerator_1_System_Collections_IEnumerator_get_Current_m1322273508_AdjustorThunk
_qb:__ZN22LocalFileSystemHandler4NameEv
pMe:_Int64_TryParse_m3093198325
neh:__Z145RuntimeInvoker_Void_t1841601450_RuntimeObject_RuntimeObject_RuntimeObject_Int32_t2071877448_Int32_t2071877448_Int32_t2071877448_Int32_t2071877448PFvvEPK10MethodInfoPvPS4_
J7i:__ZN6il2cpp2vm10ThreadPool5QueueEP14Il2CppDelegatePPvS3_P12Il2CppObject
RCb:__Z19TransferField_ArrayI19StreamedBinaryWriteILb0EE27Converter_SimpleNativeClassI8GradientEEvRK23StaticTransferFieldInfoR31RuntimeSerializationCommandInfoRT0_
VOe:_FileLoadException_ToString_m319701103
iRe:_NullStream_Seek_m1809916110
TEc:__ZNK12b2WheelJoint16GetReactionForceEf
t9d:_Delegate_SetMulticastInvoke_m361277268
Mud:_BaseInput_GetMouseButtonUp_m32571233
c_f:_EncoderReplacementFallbackBuffer_get_Remaining_m2777488845
$5a:__ZN7SubMesh8TransferI18StreamedBinaryReadILb0EEEEvRT_
x1f:_UTF8Encoding_GetCharCount_m3557355060
GXh:_InternalEnumerator_1_System_Collections_IEnumerator_get_Current_m127456009_gshared
zrc:__ZNK19RectangleCellLayout9CellRoundERKN4Grid9GridStateERKN4math7_float3E
ff:_emscripten_glIsEnabled
TEb:__ZN18StreamedBinaryReadILb1EE21TransferSTLStyleArrayI13dynamic_arrayIdLj8EEEEvRT_17TransferMetaFlags
hmc:__Z45Register_UnityEngine_GameObject_get_transformv
r7:__Z29scripting_class_instance_size17ScriptingClassPtr
uBc:__Z29Transfer_Blittable_ArrayFieldI8JSONRead5RectTIiEEvRT_R9ArrayInfoRK23StaticTransferFieldInfo
ODc:__ZN7b2World12DestroyJointEP7b2Joint
RVi:_Func_2_Invoke_m2929712329_gshared
mDf:_SslHandshakeHash_initializePad_m4132246594
yc:invoke_iiiiiiiii
n9h:_Context_get_HasExitSinks_m1233814330
M$:__ZN11UnityEngine15CloudWebService19SessionEventManager26ProcessEventQueueJobStaticEPv
hei:_AnchorInfo_get_IsUnknownWidth_m3747592836
gbb:__ZL19SpriteMeshExtractorPv17ShaderChannelMaskiR11MeshBuffersR16DrawBuffersRangeRiS5_
ymh:__Z99RuntimeInvoker_Void_t1841601450_Int32_t2071877448_Int32_t2071877448_Int32_t2071877448_RuntimeObjectPFvvEPK10MethodInfoPvPS4_
e0:__ZN11UnityEngine15CloudWebService19SessionEventManager37OnTimerExpiredPerformArchiveJobStaticEPv
Twc:__Z18Transfer_BlittableI9JSONWriteLb1E9BoundsIntEvRK29SerializationCommandArgumentsR31RuntimeSerializationCommandInfo
Oki:_DebugLogHandler_Internal_LogException_m4229368478
yVa:__ZN10builtintex15GetWhiteTextureEv
rJj:__ZN6il2cpp6icalls8mscorlib6System10Reflection4Emit11DerivedType21create_unmanaged_typeEP20Il2CppReflectionType
LUf:_FormatterConverter_ToInt32_m1004171952
Jea:__Z29GetOcclusionPortalManagerListv
kOd:_Array_System_Collections_IList_set_Item_m4290470392
sTf:_RemotingConfiguration_RegisterActivatedServiceType_m4003543022
Apc:__Z39Register_UnityEngine_Sprite_get_texturev
F8h:_ConfigHandler_GetNotNull_m2454680251
FYi:__ZL10rescale128PyS_Piiiii
dO:__ZN9AudioClip7WWWSeekEPvjS0_
URb:__ZN8GUILayer14RenderGUILayerE5RectTIfEjR17ShaderPassContext
x3:__ZL32StaticInitializeIUnityInterfacesPv
ISb:__Z13CameraProjectRK8Vector3fRK10Matrix4x4fS4_RK5RectTIiERS_b
Tfb:__ZN30RuntimeInitializeOnLoadManager15ClassMethodInfo8TransferI19StreamedBinaryWriteILb0EEEEvRT_
Fba:__Z22CreateMutexLockedStackv
w5d:_DateTime_System_IConvertible_ToType_m3821835592
hPf:_IntervalCollection_get_Item_m1667788970
LNb:__ZNSt3__27__sort5IRNS_4lessIN22BuiltinResourceManager8ResourceEEEPS3_EEjT0_S7_S7_S7_S7_T_
i$f:_Latin1Encoding_GetByteCount_m2812921286
znb:__ZN9ShaderLab11ShaderStateD2Ev
g8d:_Decimal_System_IConvertible_ToByte_m3432160840
C1c:_Ins_DELTAP
b$f:_UTF7Encoding__ctor_m1941256679
tKb:__Z23TransferScriptingObjectI24GenerateTypeTreeTransferEvRT_18ScriptingObjectPtr17ScriptingClassPtrPK15MonoScriptCache
OUf:_BinaryCommon__cctor_m3619690968
XTc:_UNITY_FT_Set_Pixel_Sizes
pti:_X509Chain_FindCertificateRoot_m589250107
lag:_Version_GetHashCode_m880841176
hJ:__ZN7mecanim10ValueArray8TransferI24GenerateTypeTreeTransferEEvRT_
iE:__ZN8Animator24SortJobsBasedOnHierarchyERK13dynamic_arrayINS_11AnimatorJobELj8EERS0_IS2_Lj4EE
xCb:__ZL17Transfer_GUIStyleI19StreamedBinaryWriteILb0EELb0EEvRK29SerializationCommandArgumentsR31RuntimeSerializationCommandInfo
Nqb:__ZNK12HandlerChain6TargetERK13FileEntryDataR15FileSystemEntry
i_f:_Encoding__ctor_m3985582722
IVf:_ObjectManager_RaiseOnDeserializingEvent_m1841526046
jtd:_String_CreateString_m560359261
fWc:_UNITY_FT_Init_Class_tt_service_get_cmap_info
$gd:_DSA_ToXmlString_m1014346120
Lld:_SHA256Managed__ctor_m1410575277
EDc:__ZN16b2BlockAllocator4FreeEPvi
Bqi:_Plane_Raycast_m3246912889_AdjustorThunk
Cde:_CompareInfo_internal_index_managed_m859405335
pRd:_Boolean_System_IConvertible_ToDateTime_m2613818037_AdjustorThunk
L6i:__ZNSt3__211__tree_nextIPNS_16__tree_node_baseIPvEEEET_S5_
Gnf:_ReadOnlyCollection_1_System_Collections_IList_Clear_m2240307498_gshared
Nsj:__ZN15dense_hashtableI10KeyWrapperIP18Il2CppGenericClassES3_N6il2cpp8metadata22Il2CppGenericClassHashEN14dense_hash_setIS3_S6_NS3_14EqualsComparerINS5_25Il2CppGenericClassCompareEEENSt3__29allocatorIS3_EEE8IdentityESA_SD_E14squash_deletedEv
wvj:__ZN6il2cpp2vm11MethodStack17GetStackFramesRawEv
gta:__ZN6prcoreL17RemapGenericFloatI17TexFormatRGBAHalf17TexFormatRGBFloatEEvPKNS_9InnerInfoE
_Uf:_BinaryFormatter_NoCheckDeserialize_m1968202401
kHd:_Graphic_CrossFadeAlpha_m4067047552
Fkh:__Z92RuntimeInvoker_Void_t1841601450_RuntimeObject_RuntimeObject_Color32_t874517518_RuntimeObjectPFvvEPK10MethodInfoPvPS4_
opc:__Z35Sprite_Get_Custom_PropPixelsPerUnitP12Il2CppObject
_5g:__Z116RuntimeInvoker_RuntimeObject_RuntimeObject_Int32_t2071877448_RuntimeObject_RuntimeObject_RuntimeObject_RuntimeObjectPFvvEPK10MethodInfoPvPS4_
F3i:__ZNSt3__26__sortIRN6il2cpp5utils11collections13ArrayValueMapIPK10Il2CppType17Il2CppInteropData26InteropDataToTypeConverterNS1_8metadata14Il2CppTypeLessENSA_26Il2CppTypeEqualityComparerEE12SortComparerEPS8_EEvT0_SH_T_
Whb:__ZN11PreloadDataD2Ev
Yfd:__ZN15DownloadHandler14ProcessHeadersERK9HeaderMap
dRc:__ZNSt3__26vectorINS_4pairIifEE13stl_allocatorIS2_L18MemLabelIdentifier35ELi16EEE6assignINS_11__wrap_iterIPS2_EEEENS_9enable_ifIXaasr21__is_forward_iteratorIT_EE5valuesr16is_constructibleIS2_NS_15iterator_traitsISC_E9referenceEEE5valueEvE4typeESC_SC_
ac:invoke_iifi
Npi:_MonoBehaviour_StopCoroutineViaEnumerator_Auto_m2222980381
bsg:__ZL79Hashtable_t909839986_CustomAttributesCacheGenerator_Hashtable__ctor_m3742489710P21CustomAttributesCache
DFc:__ZNK16b2PrismaticJoint16GetReactionForceEf
mSh:_VertexHelper_AddUIVertexStream_m3599763288
PGh:_EqualityComparer_1_System_Collections_IEqualityComparer_Equals_m1565968086_gshared
Ooe:_Array_InternalArray__set_Item_TisSlot_t2022531261_m3811041838_gshared
aSa:__ZN15SharedLightData15UpdateTransformERK9Transform
Qjd:_RijndaelTransform__cctor_m1393306207
HGd:_Graphic_get_defaultMaterial_m1022773737
HZc:_UNITY_FT_Init_Class_pscmaps_interface
$Ph:_Slider_OnDidApplyAnimationProperties_m3202463395
oVi:_TextGenerator_PopulateAlways_m817480435
Oih:__Z146RuntimeInvoker_Void_t1841601450_Vector2_t2243707579_Vector2_t2243707579_Single_t2076509932_ContactFilter2D_t1672660996_RaycastHit2DU26_t4207306570PFvvEPK10MethodInfoPvPS4_
EZf:_EncoderExceptionFallback__ctor_m3203614411
dId:_GridLayoutGroup_SetLayoutVertical_m3233681648
anc:__Z44Register_UnityEngine_RectOffset_get_verticalv
v6f:_Type_MakeGenericType_m973683242
UHj:__ZN6il2cpp2vm9LastError31InitializeLastErrorThreadStaticEv
oac:__ZN13ProduceHelperI13RenderTextureLb0EE7ProduceE18MemLabelIdentifier18ObjectCreationMode
yMe:_Int64_ToString_m2785525583
ER:__ZN4FMOD6System17setSoftwareFormatEi17FMOD_SOUND_FORMATii18FMOD_DSP_RESAMPLER
yfg:_FieldBuilder_GetCustomAttributes_m291168515
gHa:__ZN15dense_hashtableINSt3__24pairIKN4core12basic_stringIcNS2_20StringStorageDefaultIcEEEEP20ArchiveStorageReaderEES6_20StringHash32FunctionIS6_EN14dense_hash_mapIS6_S9_SC_NS0_8equal_toIS6_EE13stl_allocatorISA_L18MemLabelIdentifier55ELi16EEE9SelectKeyESF_SI_E12expand_arrayEjN21dense_hash_map_traits17integral_constantIbLb0EEE
$kg:_MonoGenericCMethod__ctor_m2520666358
Fli:_InvokableCall_remove_Delegate_m3232269751
hh:_JS_SystemInfo_GetCurrentCanvasHeight
kVh:_InternalEnumerator_1_System_Collections_IEnumerator_get_Current_m1313308902_gshared
MRf:_ReturnMessage_get_OutArgs_m299904174
bYa:__ZNK8Material22GetTypeVirtualInternalEv
muc:__Z34GUIStyle_Get_Custom_PropFixedWidthP12Il2CppObject
OBe:_RSAManaged_get_PublicOnly_m2603845138
w8d:_Decimal_System_IConvertible_ToSByte_m3745141000_AdjustorThunk
Lxj:__ZN6il2cpp2gc16GarbageCollector11GetWeakLinkEPPv
HVe:_MonoType_GetMethods_m353342170
t2g:__Z108RuntimeInvoker_Boolean_t3825574718_SByte_t454417549_RuntimeObject_Int32_t2071877448_ExceptionU26_t1467204777PFvvEPK10MethodInfoPvPS4_
hwj:__GLOBAL__sub_I_Console_cpp
Ysa:__ZN6prcoreL17RemapGenericFloatI14TexFormatRHalf17TexFormatRGBAHalfEEvPKNS_9InnerInfoE
H9i:__ZN6il2cpp2vm7Runtime11InvokeArrayEPK10MethodInfoPvP11Il2CppArrayPP15Il2CppException
LFe:_GregorianCalendar_get_Eras_m4010603022
Ebe:_Enum_System_IConvertible_ToUInt16_m1001858842
LCh:_Dictionary_2_make_pair_m394533803_gshared
G1c:_Dual_Project
$M:__ZN9AudioClip23VirtualRedirectTransferER14SafeBinaryRead
Shi:_AsyncOperation_t3814632279_marshal_pinvoke_back
ewa:__ZN4gles20EnsureTextureCreatedEP7ApiGLESP17RenderSurfaceGLES
ZNd:_LayoutRebuilder_U3CRebuildU3Em__2_m3239837417
tTb:__ZN15ReplacementPass13PrepareSubsetEjRK10RenderNodeifRK17ShaderReplaceData
IHc:__ZN15dense_hashtableINSt3__24pairIKiiEEi21InstanceIDHashFunctorN14dense_hash_mapIiiS4_NS0_8equal_toIiEE13stl_allocatorIS3_L18MemLabelIdentifier37ELi16EEE9SelectKeyES7_SA_E9copy_fromERKSD_j
uS:__Z32AudioMeasurement_GetTimeConstantff
Ayj:__ZN6il2cpp8metadata11FieldLayout12LayoutFieldsEjjjRKNSt3__26vectorIPK10Il2CppTypeNS2_9allocatorIS6_EEEERNS1_15FieldLayoutDataE
WNg:__ZL54ContextMenu_t2283362202_CustomAttributesCacheGeneratorP21CustomAttributesCache
a$b:__ZL27PrepareSceneNodesJobCombineP25ScheduleSceneNodesJobData
TPe:_Stream_EndWrite_m263497992
yUd:_Char_Parse_m2121403806
dha:__ZN13GfxDeviceGLESD2Ev
dda:__ZN18AsyncUploadManager13StaticDestroyEPv
Jeg:_EnumBuilder_GetConstructorImpl_m331611313
gjb:__ZN6Shader7SetNameEPKc
LDd:_DefaultControls_SetParentAndAlign_m3048898502
x2b:__ZN19CustomRenderTexture22HandleBoundaryWrappingERKNS_14UpdateZoneInfoEj
u_i:_Physics2D_Internal_RaycastNonAlloc_m2519397231
LGc:__ZN10ClipperLib7Clipper16DoSimplePolygonsEv
H6i:__ZN6il2cpp2vm13MetadataCache32GenerateCustomAttributeTypeCacheEi
aMf:_X509Chain__cctor_m826131835
Ypi:_PlayerConnection_CreateInstance_m2419948763
UAi:_Transform_GetEnumerator_m1156558734
DD:__ZNK11UnityEngine9Animation30GenericBindingValueArrayUniqueclERKNS0_14GenericBindingES4_
iQd:_ArrayTypeMismatchException__ctor_m1923871345
SYf:_CspParameters__ctor_m3051314030
WDa:__ZNK15dense_hashtableINSt3__24pairIKNS1_I9UnityGUIDxEE15SpriteAtlasDataEES3_23SpriteRenderDataKeyHashN14dense_hash_mapIS3_S5_S7_NS0_8equal_toIS3_EE13stl_allocatorIS6_L18MemLabelIdentifier81ELi16EEE9SelectKeyESA_SD_E23find_position_with_hashERS4_j
yJi:_GUILayoutEntry_set_style_m864176480
EAi:_Transform_INTERNAL_set_localRotation_m1514748659
L1c:_Direct_Move_Y
J1c:_Direct_Move_X
jLf:_X509ChainElement_Set_m2634474339
lRd:_Boolean_System_IConvertible_ToByte_m1443044213_AdjustorThunk
Di:_glClearDepthf
cac:__ZN19SkinnedMeshRenderer7GetMeshEv
Spb:__ZN19RuntimeSceneManager14GetActiveSceneEv
IJ:__ZN18StreamedBinaryReadILb0EE21TransferSTLStyleArrayI22OffsetPtrArrayTransferI9OffsetPtrIN7mecanim12statemachine13StateConstantEEEEEvRT_17TransferMetaFlags
e9i:__ZN6il2cpp6icalls8mscorlib6SystemL8IsStaticEPK9EventInfo
Lmc:__Z29RectOffset_Set_Custom_PropTopP12Il2CppObjecti
Eqc:__Z57Register_UnityEngine_Transform_INTERNAL_get_localPositionv
pZb:__ZNSt3__27__sort4IR15ReflProbeSorterPP15ReflectionProbeEEjT0_S6_S6_S6_T_
xxe:_BigInteger_op_Equality_m366854173
DRa:__ZN16GraphicsSettings10SmartResetEv
cfc:__ZN19StreamedBinaryWriteILb0EE4InitE24TransferInstructionFlags20BuildTargetSelection
GJh:_MaskableGraphic_Cull_m3130802047
XBf:_RecordProtocol_MapV2CipherCode_m4064211604
Dhe:_Enumerable_Where_TisRuntimeObject_m1140705402_gshared
Htd:_ASCIIEncoding_GetByteCount_m2696039881
KBf:_ReceiveRecordAsyncResult_SetComplete_m2441107665
LUa:__ZN20SphericalHarmonicsL28TransferI19StreamedBinaryWriteILb0EEEEvRT_
XBd:_CanvasUpdateRegistry_InternalUnRegisterCanvasElementForLayoutRebuild_m3740187734
nNc:__ZN16PhysicsManager2D45UnregisterTransformChangeInterestForRigidbodyEP11Rigidbody2D
deg:_DerivedType_get_AssemblyQualifiedName_m2010127631
o9a:__ZN4Mesh14UploadMeshDataEb
Xne:_Array_InternalArray__Insert_TisMonoResource_t3127387157_m2580914422_gshared
KZh:_InternalEnumerator_1_System_Collections_IEnumerator_get_Current_m4023948615_AdjustorThunk
JZb:__ZN14qsort_internal5QSortIP16RenderObjectDatai25RenderPrePassObjectSorterEEvT_S4_T0_T1_
oFe:_ArgIterator_Equals_m2415994310
gfh:__Z85RuntimeInvoker_Char_t3454481338_RuntimeObject_Int32U26_t455636984_CharU26_t1894467670PFvvEPK10MethodInfoPvPS4_
sac:__ZN14RenderSettings12CleanupClassEv
wpc:__Z43DataUtility_CUSTOM_INTERNAL_CALL_GetPaddingP12Il2CppObjectR8Vector4f
SU:__ZN21AudioScriptingClasses26InvokeOnAudioManagerUpdateEP21ScriptingExceptionPtr
jqa:__ZN18AsyncUploadManager15DoDeCruncherJobEP26FileAssetUploadInstruction
bka:__ZN9GfxDevice15ImmediateNormalEfff
g_f:_EncoderReplacementFallbackBuffer_GetNextChar_m1811006007
AAb:__ZN13GUIStyleState8TransferI24GenerateTypeTreeTransferEEvRT_
t9:__ZN20dynamic_block_vectorI14FileIdentifierE22push_back_no_constructEv
OWj:_emscripten_glGetActiveAttrib__wrapper
u7a:__ZN9Texture3D23VirtualRedirectTransferER14SafeBinaryRead
U$f:_StringBuilder_Append_m1462406979
Qkb:__ZNSt3__26vectorIN9ShaderLab20SerializedSubProgram16TextureParameterENS_9allocatorIS3_EEE8__appendEj
f1a:__ZN9Texture2D13UploadTextureEi
N_f:_Type_GetType_m773255995
kpi:_Mesh_ClearImpl_m2894829935
gva:__ZN7ApiGLES9MapBufferEjN2gl12BufferTargetEllj
OOi:_PCMSetPositionCallback_Invoke_m1437833149
LKh:_RawImage__ctor_m527845386
FR:__ZN4FMOD6System19setSoftwareChannelsEi
LBa:__ZN9GfxDevice19SetSinglePassStereoE16SinglePassStereo
epe:_Array_InternalArray__set_Item_TisResourceCacheItem_t333236149_m2074358118_gshared
vwh:_Enumerator_MoveNext_m3349738440_gshared
NJf:_X500DistinguishedName_DecodeRawData_m3640767187
p2f:_Monitor_Monitor_wait_m3813798368
afe:_Array_InternalArray__ICollection_Contains_TisDouble_t4078015681_m2262383923_gshared
SRd:_Boolean_System_IConvertible_ToUInt64_m3594533761
inh:__Z85RuntimeInvoker_Boolean_t3825574718_SpriteStateU26_t1330646292_SpriteState_t1353336012PFvvEPK10MethodInfoPvPS4_
Onc:__Z60Register_UnityEngine_Input_INTERNAL_set_compositionCursorPosv
jUg:__ZL51Collider_t3497673348_CustomAttributesCacheGeneratorP21CustomAttributesCache
bxe:_BigInteger_get_Rng_m1268152318
NQj:dynCall_viiiii
c7g:__Z90RuntimeInvoker_Boolean_t3825574718_RuntimeObject_RuntimeObject_RuntimeObject_RuntimeObjectPFvvEPK10MethodInfoPvPS4_
SQj:dynCall_viiiif
Bkg:_MonoEvent_IsDefined_m3151861274
LIc:__ZN16PhysicsManager2D19ApplyParticleForcesER13dynamic_arrayI21BatchedColliderResultLj4EE
cig:_PropertyBuilder_GetCustomAttributes_m1029078269
SYc:_Cubic_To
rkc:__Z37Register_UnityEngine_Application_Quitv
Rxf:_TlsStream_WriteInt24_m1660453494
hlc:__Z44Register_UnityEngine_Camera_get_farClipPlanev
Mq:__Z25InverseTransformDirection23TransformAccessReadOnlyRKN4math7_float3Eb
NV:__ZNK12AudioManager15GetDSPBlockSizeEv
ndb:__ZNK17IAnimationBinding30CurveAttributeToSerializedPathERKN11UnityEngine9Animation10BoundCurveE
Jhh:__Z87RuntimeInvoker_Color_t2020392075_Color_t2020392075_Color_t2020392075_Single_t2076509932PFvvEPK10MethodInfoPvPS4_
muj:__ZN6il2cpp2gc16GarbageCollector14GetOrCreateCCWEP12Il2CppObjectRK10Il2CppGuid
qsj:__ZN6il2cpp2vm5Image21FromTypeNameParseInfoEPK11Il2CppImageRKNS0_17TypeNameParseInfoEb
Nna:__ZN17BufferManagerGLES13AcquireBufferEjN14DataBufferGLES11BufferUsageEb
z$d:_Console_OpenStandardError_m3676373108
LTe:_UnmanagedMemoryStream_SetLength_m1805321486
Vyf:_Context_get_ProtocolNegotiated_m624488778
cQd:_SimpleEnumerator_MoveNext_m1696906961
Kdd:__ZN16UnityAdsSettingsD0Ev
Izf:_Context_StartSwitchingSecurityParameters_m373522596
img:_MonoProperty_GetRequiredCustomModifiers_m576853384
Roa:__ZNK7ApiGLES10DebugLabelEN2gl10ObjectTypeEjPKc
jke:_Array_InternalArray__IndexOf_TisInt16_t4041245914_m1619355230_gshared
cje:__ZN21InterfaceFuncInvoker2Ii18Color32_t874517518S0_E6InvokeEjP11Il2CppClassP12Il2CppObjectS0_S0_
UOj:__ZNK10__cxxabiv121__vmi_class_type_info16search_below_dstEPNS_19__dynamic_cast_infoEPKvib
FLe:_Int64_System_IConvertible_ToDateTime_m1002280174
goa:__ZN19ConstantBuffersGLES13SetCBConstantEiiPKvi
t0d:_Convert_ToByte_m9159597
jti:_X509Store_BuildCertificatesCollection_m4224672591
xpc:__Z38DataUtility_CUSTOM_Internal_GetMinSizeP12Il2CppObjectP13Vector2fIcall
cec:__ZN8PlayableC2E17ScriptingClassPtr18DirectorPlayerType
f5h:_ResourceEnumerator_get_Key_m1012797265
FJe:_NumberFormatter_FormatPercent_m776769918
zaj:_il2cpp_class_has_attribute
F3f:_Scheduler_ShrinkIfNeeded_m2186823111
Kvf:_Alert_get_IsCloseNotify_m577852330
O7:__Z27FindOrCreateMonoScriptCache17ScriptingClassPtr22InitScriptingCacheTypeP6Objecti
Sr:__ZNK13AnimationClip17GetAnimationClipsEv
TOc:__Z23CleanupPhysicsManager2Dv
qGb:__Z18Transfer_BlittableI18StreamedBinaryReadILb0EELb1E8Vector3fEvRK29SerializationCommandArgumentsR31RuntimeSerializationCommandInfo
G6c:__ZN2UI14CanvasRenderer13SyncVertexPtrER8JobFenceNS0_8SyncFlagE
e8:__Z35scripting_method_get_argument_count18ScriptingMethodPtr
SFa:__ZN18AssetBundleManager18SortPreloadObjectsER13dynamic_arrayIiLj4EEb
Q6f:_UInt16_System_IConvertible_ToChar_m4055364664_AdjustorThunk
$Bi:_Vector3_SqrMagnitude_m3835019255
qmc:__Z20Gradient_CUSTOM_InitP12Il2CppObject
Ouc:__Z48Register_UnityEngine_GUIUtility_Internal_ExitGUIv
nkj:__ZN14dense_hash_mapI10KeyWrapperINSt3__24pairIPK9FieldInfoP11Il2CppClassEEEj17ReflectionMapHashIS8_ENS9_14EqualsComparerINS1_8equal_toIS8_EEEENS1_9allocatorINS2_IKS9_jEEEEE15set_deleted_keyERSH_
zsi:_X509Certificate_get_RawData_m1262574599
BSd:_Byte_System_IConvertible_ToDouble_m4224320007
e$b:__ZL21CullDynamicObjectsJobP14CullingJobDataj
J4c:__ZN2UI15ClearCanvasDataER8JobFenceRNS_10CanvasDataE
DHf:_IPAddress_ToString_m1462985652
tjg:_MethodBase_GetMethodFromHandleNoGenericCheck_m4274264088
Jzh:_ValueCollection_System_Collections_Generic_ICollectionU3CTValueU3E_Clear_m3471385195_gshared
$vh:_Enumerator_get_CurrentKey_m1408186928_AdjustorThunk
g3b:__ZN14ManagerContext17InitializeClassesEv
aKh:_MaskUtilities_GetRectMasksForClip_m1540508301
tFa:__ZN19StreamedBinaryWriteILb0EE21TransferSTLStyleArrayINSt3__26vectorI14ConstantStringNS2_9allocatorIS4_EEEEEEvRT_17TransferMetaFlags
cy:__ZN7mecanim5human20MaskHasRightFootGoalERKNS_6bitsetILj70EEE
HEb:__ZN18StreamedBinaryReadILb1EE21TransferSTLStyleArrayI31ArrayOfManagedObjectsTransfererEEvRT_17TransferMetaFlags
d0e:_List_1_System_Collections_IList_IndexOf_m406088260_gshared
uag:_WeakReference_get_Target_m1672141897
Ixe:_Kernel_DwordDivMod_m4066997639
tZc:_t1_hints_open
xad:__ZN11UnityEngine15PlatformWrapper24GetVRTrackedAreaGeometryER13dynamic_arrayI8Vector3fLj4EE
Mdh:__Z68RuntimeInvoker_Boolean_t3825574718_DateTime_t693205669_RuntimeObjectPFvvEPK10MethodInfoPvPS4_
und:_X509Certificate_GetCertHash_m2299453268
Vid:_MD5CryptoServiceProvider__ctor_m457716966
Tee:_Array_InternalArray__ICollection_Contains_TisKeyValuePair_2_t888819835_m3819112676_gshared
L2d:_Decimal_s64_m2965457432
ugc:__Z18TransformPoints3x4RK10Matrix4x4fPK8Vector3fjPS2_ji
lgd:__ZN22UnityWebRequestManager21CreateUnityWebRequestEv
zQ:__ZN4FMOD7Channel11getUserDataEPPv
lxi:_RectTransform_INTERNAL_set_anchorMax_m4173108796
wWc:_UNITY_tt_face_load_gasp
zlh:__Z150RuntimeInvoker_RuntimeObject_RuntimeObject_Int32_t2071877448_Int32_t2071877448_Int32_t2071877448_Int32_t2071877448_Int32_t2071877448_Int32_t2071877448PFvvEPK10MethodInfoPvPS4_
fnf:_ReadOnlyCollection_1_System_Collections_IList_Insert_m3650067527_gshared
XLf:_X509Chain__ctor_m2243818698
ETc:_ft_ansi_stream_close
gm:_JS_Sound_SetPitch
yZg:__ZL69InputField_t1631627530_CustomAttributesCacheGenerator_m_TextComponentP21CustomAttributesCache
nbj:_il2cpp_runtime_invoke_convert_args
$Ac:__Z19TransferField_ArrayI8JSONRead27Converter_SimpleNativeClassI10RectOffsetEEvRK23StaticTransferFieldInfoR31RuntimeSerializationCommandInfoRT0_
Fuh:_Enumerator_get_CurrentKey_m447338908_AdjustorThunk
Sxf:_Context_get_SecurityProtocol_m1600902905
qoj:__ZN6il2cpp6icalls8mscorlib6System2IO6MonoIO11GetFileStatEP12Il2CppStringPNS3_8FileStatEPi
Mka:__ZN9GfxDevice33InsertCustomMarkerCallbackAndDataEPFviPvEiS0_j
ked:__ZN11UnityEngine15PlatformWrapper16GenerateRandomIdEv
vTb:__ZNK9ShaderLab9IntShader6GetTagE11ShaderTagIDb
BYb:__Z25CalculateShadowCasterCullbPK5PlaneRK10Matrix4x4fRK8Vector3fff9LightTypeS7_R16ShadowCasterCullPKb
fOc:__Z13RegisterClassI13BoxCollider2DEvv
V9i:_il2cpp_get_corlib
gid:_HMAC_HashCore_m1869699062
Tag:_Assembly_GetTypes_m1317253146
IIe:_Int16_System_IConvertible_ToType_m2901377575_AdjustorThunk
SLe:_Int64_System_IConvertible_ToSByte_m253213816_AdjustorThunk
w7c:__ZN2UI14CanvasRenderer11SetMaterialEP8Materiali
vyd:_MouseState_SetButtonState_m2329922363
HOe:_FileStream__ctor_m3815606687
vCj:_GC_freehblk
lJe:_NumberFormatter_NumberToString_m668979517
yqf:_ReadOnlyCollection_1_System_Collections_IList_Remove_m2507730234_gshared
JOb:__Z36GiveDebuggerChanceToAttachIfRequiredv
mzh:_Enumerator_System_Collections_IEnumerator_Reset_m2482663638_gshared
ojc:__ZN9Scripting35DestroyObjectFromScriptingImmediateEP6Objectb
V$b:__ZNK6Camera48AreVRStereoViewMatricesWithinSingleCullToleranceEv
ZQg:__ZL53Rigidbody2D_t502193897_CustomAttributesCacheGeneratorP21CustomAttributesCache
NSf:_RemotingServices_GetRemoteObject_m3663391550
tXj:_glGetRenderbufferParameteriv__wrapper
abf:_Queue_1_Peek_m1224538505_gshared
V8g:__Z105RuntimeInvoker_RuntimeObject_Int32_t2071877448_RuntimeObject_RuntimeObject_RuntimeObject_SByte_t454417549PFvvEPK10MethodInfoPvPS4_
nke:_Array_InternalArray__IndexOf_TisRuntimeObject_m2440219229_gshared
oSi:__ZL25UnresolvedVirtualCall_122P12Il2CppObject23PropertyName_t217228410fPK10MethodInfo
uc:invoke_iiiiiiiiiiiiiii
_sf:_ASN1_Add_m1528660622
WZj:_emscripten_glIsRenderbuffer__wrapper
B7c:__ZN2UI14CanvasRenderer11GetHasMovedEv
x1i:__ZN15dense_hashtableINSt3__24pairIK10KeyWrapperIPK11Il2CppClassEPKcEES6_N6il2cpp5utils11PointerHashIS3_EEN14dense_hash_mapIS6_S9_SE_NS6_14EqualsComparerINS0_8equal_toIS5_EEEENS0_9allocatorISA_EEE9SelectKeyESJ_SL_E9copy_fromERKSO_j
Z4c:__ZN2UI11CanvasGroup8TransferI19StreamedBinaryWriteILb0EEEEvRT_
sFb:__Z29Transfer_Blittable_ArrayFieldI18StreamedBinaryReadILb1EE5RectTIiEEvRT_R9ArrayInfoRK23StaticTransferFieldInfo
kTa:__ZNK20IntermediateRenderer8GetLayerEv
y9i:__ZN6il2cpp5utils9PathUtils7CombineIcEENSt3__212basic_stringIT_NS3_11char_traitsIS5_EENS3_9allocatorIS5_EEEERKSA_RKNS0_10StringViewIS5_EE
a4a:__ZN15QualitySettings8TransferI14SafeBinaryReadEEvRT_
p1i:__ZN14dense_hash_mapI10KeyWrapperIPK11Il2CppClassEPKcN6il2cpp5utils11PointerHashIS1_EENS4_14EqualsComparerINSt3__28equal_toIS3_EEEENSC_9allocatorINSC_4pairIKS4_S6_EEEEE13set_empty_keyERSI_
Gyi:_SendMouseEvents_SendEvents_m1854997939
Ewb:__ZN14SafeBinaryRead21TransferSTLStyleArrayI13dynamic_arrayIxLj8EEEEvRT_17TransferMetaFlags
wSe:_StringReader_CheckObjectDisposedException_m3099453260
kFf:_ListDictionary_System_Collections_IEnumerable_GetEnumerator_m2244736244
Bsj:__ZNSt3__26vectorIN6il2cpp2vm5Image20EmbeddedResourceDataENS_9allocatorIS4_EEE21__push_back_slow_pathIS4_EEvOT_
F2:__GLOBAL__sub_I_runtime_utilities_0_cpp
zHj:__ZN6il2cpp2os9FastMutexD2Ev
hlh:__Z97RuntimeInvoker_Void_t1841601450_SByte_t454417549_SByte_t454417549_Int32_t2071877448_RuntimeObjectPFvvEPK10MethodInfoPvPS4_
Jje:_Array_IndexOf_TisCustomAttributeTypedArgument_t1498197914_m3666284377_gshared
iye:_Kernel_AddSameSign_m2332657679
tki:_Cursor_get_lockState_m300851107
Z6:__ZN14SerializedFile10ReadObjectEx18ObjectCreationModebPPK8TypeTreePbR6Object
ocf:_Collection_1_System_Collections_IList_IndexOf_m3460849589_gshared
rgc:__ZN4Mesh12SetIndexDataEiiPKv16GfxPrimitiveTypei
PNb:__ZN14dynamic_bitset6resizeEjb
evd:_BaseInputModule_FindCommonRoot_m2696088443
QZ:__ZN11UnityEngine15CloudWebService10RestClientINS0_23WebRequestRestHeaderMapEE7SetDataEPKhj
dF:__ZN7mecanim8skeleton16SkeletonPoseCopyIN4math4trsXES3_EEvPKNS0_13SkeletonPoseTIT_EEPNS4_IT0_EE
q1i:__ZN14dense_hash_mapI10KeyWrapperIPK11Il2CppClassEPKcN6il2cpp5utils11PointerHashIS1_EENS4_14EqualsComparerINSt3__28equal_toIS3_EEEENSC_9allocatorINSC_4pairIKS4_S6_EEEEE15set_deleted_keyERSI_
yha:__ZN9GfxDevice34SetStencilRefWhenStencilWasSkippedEi
Gbd:__ZN11UnityEngine7Connect13ConnectConfig20RestoreTimeoutConfigERK13dynamic_arrayIiLj4EEjRS3_
tc:invoke_fi
xGj:__ZN6il2cpp6icalls8mscorlib6System10Reflection4Emit11TypeBuilder20create_runtime_classEP27Il2CppReflectionTypeBuilderS7_
Q1:__ZL21InternalAssertConsolePKcz
ida:__ZN18AsyncUploadManagerC2E18MemLabelIdentifier
rc:invoke_ff
Cd:_emscripten_glVertexAttrib3f
Igj:__ZN30dense_hashtable_const_iteratorINSt3__24pairIK10KeyWrapperINS1_IPK11Il2CppImageP11Il2CppClassEEEjEES9_17ReflectionMapHashIS8_EN14dense_hash_mapIS9_jSD_NS9_14EqualsComparerINS0_8equal_toIS8_EEEENS0_9allocatorISB_EEE9SelectKeyESI_SK_EppEv
twi:_Rect_set_yMax_m1836907767_AdjustorThunk
fUd:_Char_CompareTo_m3044885427
P4e:_List_1_System_Collections_IList_IndexOf_m2887559165_gshared
Vzh:_ValueCollection__ctor_m1825701219_gshared
NRc:__ZN20TextRenderingPrivate8TextMesh11ApplyToMeshEv
mEf:_SslStreamBase_get_CanRead_m3061866682
jLh:_GetRaycastNonAllocCallback_Invoke_m106496059
lTj:_emscripten_glDrawRangeElements__wrapper
$Xi:_CanvasRenderer_set_popMaterialCount_m3475132987
zQa:__Z28scripting_class_is_valuetype17ScriptingClassPtr
x5b:__ZNSt3__25dequeI10InputEventNS_9allocatorIS1_EEE19__add_back_capacityEv
HZe:_Enumerator_System_Collections_IEnumerator_Reset_m336811426_AdjustorThunk
Hxa:__ZN13ComputeShader13SetValueParamERKN9ShaderLab16FastPropertyNameEiPKv
t9a:__ZN14BlendShapeDataD2Ev
C6i:__ZN6il2cpp2vm13MetadataCache25GetIndexForTypeDefinitionEPK11Il2CppClass
jua:__ZL18ProgramUniform3uivPK7ApiGLESjiihPKv
AQd:_Attribute_IsDefined_m1350918959
d8c:__Z47CanvasRenderer_Set_Custom_PropHasPopInstructionP12Il2CppObjecth
Tlg:_MonoProperty_get_DeclaringType_m4236036432
Tta:__ZN5Image8SetImageEii13TextureFormatb
w8:__ZN17MessageIdentifier21GetRegisteredMessagesEv
FSh:_U3CGetEnumeratorU3Ec__Iterator0_System_Collections_IEnumerator_get_Current_m480171694_gshared
Jfe:_Array_InternalArray__ICollection_Contains_TisContentType_t1028629049_m2321684690_gshared
o0:__Z13RegisterClassI23CloudWebServicesManagerEvv
srj:__GLOBAL__sub_I_Image_cpp
cUe:_Math_Sin_m2320256962
Jpf:_ReadOnlyCollection_1_System_Collections_Generic_IListU3CTU3E_Insert_m2409570138_gshared
a4e:_List_1_Add_m2123823603_gshared
AZa:__ZNSt3__27__sort5IRPFbRKNS_4pairIN9ShaderLab16FastPropertyNameEfEES6_EPS4_EEjT0_SB_SB_SB_SB_T_
FAd:_CanvasUpdateRegistry__ctor_m4037208045
tIi:_Event_Finalize_m270300156
Kyj:__ZN14dense_hash_mapI10KeyWrapperIPK19Il2CppGenericMethodEP10MethodInfoN6il2cpp8metadata23Il2CppGenericMethodHashENS4_14EqualsComparerINS8_26Il2CppGenericMethodCompareEEENSt3__29allocatorINSD_4pairIKS4_S6_EEEEE15set_deleted_keyERSG_
Qwb:__Z29Transfer_Blittable_ArrayFieldI14SafeBinaryRead4AABBEvRT_R9ArrayInfoRK23StaticTransferFieldInfo
hnf:_ReadOnlyCollection_1_System_Collections_IList_RemoveAt_m2396335261_gshared
yxh:_Transform_1_Invoke_m2675095773_gshared
yEd:_Dropdown_set_captionImage_m1952025570
EVg:__ZL56g_UnityEngine_UI_Assembly_CustomAttributesCacheGeneratorP21CustomAttributesCache
JBe:_RSAManaged_remove_KeyGenerated_m452989252
$mc:__Z46Register_UnityEngine_RectOffset_get_horizontalv
M_a:__ZN18DelayedCallManager8ClearAllEv
B3b:__ZN17PersistentManagerC2E18MemLabelIdentifierii
$nc:__Z22Mesh_CUSTOM_HasChannelP12Il2CppObject30InternalScriptingShaderChannel
Nnj:__ZN6il2cpp2os8AutoLockD2Ev
VZb:__ZNK25RenderPrePassObjectSorterclERK16RenderObjectDataS2_
SEb:__Z22TransferField_NonArrayI18StreamedBinaryReadILb1EE27Converter_SimpleNativeClassI8GUIStyleEEvRK23StaticTransferFieldInfoR31RuntimeSerializationCommandInfoRT0_
pe:_Mix_LoadWAV_RW
YJi:_GUIStyle_set_stretchWidth_m281327581
_y:__ZN7mecanim6memory16MecanimAllocator8AllocateEjj
qwa:__Z13IsFloatFormat14GraphicsFormat
nr:__ZNSt3__27__sort4IRNS_6__lessIN11UnityEngine9Animation13CachedBindingES4_EEPS4_EEjT0_S8_S8_S8_T_
wtj:__ZN6il2cpp2gcL12alloc_handleEPNS0_10HandleDataEP12Il2CppObjectb
fXj:_emscripten_glGetAttribLocation__wrapper
HBd:_CanvasScaler_HandleConstantPhysicalSize_m687057631
ibj:_il2cpp_object_get_virtual_method
i_b:__Z13InitIndexListR9IndexListj
DDe:_PKCS12_Encrypt_m1401341763
w9:__ZL16ReadTypeTreeImplILb1EEbR8TypeTreeRK16TypeTreeIteratorRPKhS6_i
He:_glBlendEquationSeparate
Tld:_SHA384_Create_m1970724783
qm:_emscripten_glDeleteVertexArrays
ela:__ZN13GfxDeviceGLES17SetComputeUniformE12ObjectHandleI18ComputeProgram_TagPvER18ComputeShaderParamjPKv
xYj:b95
Ju:__ZN13AnimationClip10FloatCurve8TransferI18StreamedBinaryReadILb0EEEEvRT_
iZj:_emscripten_glValidateProgram__wrapper
Agc:__ZN13MeshScripting27PrintErrorCantAccessChannelEPK4Mesh30InternalScriptingShaderChannel
HAe:_SmallXmlParser_ReadComment_m1117342068
Oe:_emscripten_glUniform3fv
loc:__Z35MonoBehaviour_CUSTOM_StartCoroutineP12Il2CppObjectP12Il2CppStringS0_
SXa:__ZN9ShaderLab7Program14RemoveVariantsERK13dynamic_arrayI16ShaderKeywordSetLj4EE
Zoj:__ZN6il2cpp2vm9Exception20GetArgumentExceptionEPKcS3_
Bfe:_Array_InternalArray__ICollection_Contains_TisContactPoint2D_t3659330976_m474619266_gshared
mCc:__Z29Transfer_Blittable_ArrayFieldI8JSONReadiEvRT_R9ArrayInfoRK23StaticTransferFieldInfo
sXj:_glDrawArrays__wrapper
yV:__ZN9AudioClip27IsFormatSupportedByPlatformERKN4core12basic_stringIcNS0_20StringStorageDefaultIcEEEE
A$a:__ZN29SerializeTraitsForStringTypesIN4core12basic_stringIcNS0_20StringStorageDefaultIcEEEEE8TransferI24GenerateTypeTreeTransferEEvRS4_RT_
Xlb:__ZN9ShaderLab26SerializedShaderDependency8TransferI24GenerateTypeTreeTransferEEvRT_
f4g:__Z92RuntimeInvoker_RuntimeObject_RuntimeObject_Int32_t2071877448_Int32_t2071877448_RuntimeObjectPFvvEPK10MethodInfoPvPS4_
QWc:_UNITY_FT_Match_Size
wCd:_ColorBlock_Equals_m738243050
wz:__ZN7mecanim20CreateValueArrayMaskEPKNS_18ValueArrayConstantERNS_6memory9AllocatorE
tNj:_free
PFf:_NameObjectCollectionBase_GetEnumerator_m646294968
vii:_Bounds_set_size_m4260584766_AdjustorThunk
yad:__ZN11UnityEngine7Connect14AppUpdateEventC2Ev
iQa:__ZN12ImageFilters17RemoveImageFilterERK11ImageFilter
PPi:_AudioSettings_InvokeOnAudioConfigurationChanged_m4035594278
Nka:__ZN9GfxDevice31InsertCustomBlitCallbackAndDataEPFviPvER33UnityRenderingExtCustomBlitParams
MOb:__Z32AddPathRemapsForBuiltinResourcesRKN4core12basic_stringIcNS_20StringStorageDefaultIcEEEE
Oyi:_HitInfo_SendMessage_m3395411273_AdjustorThunk
Cze:_DSAManaged_remove_KeyGenerated_m61544860
k_i:_Physics2D_INTERNAL_CALL_Internal_Linecast_m369794269
iyb:__ZL26Transfer_SimpleNativeClassI17RemapPPtrTransfer17AnimationCurveTplIfELb0EEvRK29SerializationCommandArgumentsR31RuntimeSerializationCommandInfo
Yqi:_KeyUsageExtension_Decode_m4115739726
sm:_glDeleteTransformFeedbacks
tf:_JS_WebRequest_Send
BBj:__ZN6il2cpp2os4Time31GetTicks100NanosecondsMonotonicEv
axj:__ZNSt3__26__treeINS_12basic_stringIcNS_11char_traitsIcEENS_9allocatorIcEEEENS_4lessIS6_EENS4_IS6_EEE16__construct_nodeIJRKS6_EEENS_10unique_ptrINS_11__tree_nodeIS6_PvEENS_22__tree_node_destructorINS4_ISH_EEEEEEDpOT_
l$d:_Stack_Clear_m771767447
XLe:_Int64_System_IConvertible_ToUInt16_m2638682734
cxg:__ZL102ChannelServices_t2007814595_CustomAttributesCacheGenerator_ChannelServices_RegisterChannel_m3832858065P21CustomAttributesCache
rcd:__ZN18UnityConnectClient32OnVrControllerStateChangedStaticEPS_13dynamic_arrayIN4core12basic_stringIcNS2_20StringStorageDefaultIcEEEELj4EE
vOj:__ZNK10__cxxabiv117__class_type_info24process_found_base_classEPNS_19__dynamic_cast_infoEPvi
AWi:_Nullable_1_Equals_m1889119397_AdjustorThunk
PXi:_CanvasRenderer_INTERNAL_CALL_SetColor_m1064368306
J6i:__ZN6il2cpp2vm13MetadataCache21GetFieldInfoFromIndexEj
wLh:_Raycast2DCallback_BeginInvoke_m4219004388
tzj:__GLOBAL__sub_I_String_cpp
zX:__ZN5physx14PxLightCpuTaskD2Ev
rq:__ZNSt3__26vectorIN4core12basic_stringIcNS1_20StringStorageDefaultIcEEEENS_9allocatorIS5_EEE6assignINS_11__wrap_iterIPS5_EEEENS_9enable_ifIXaasr21__is_forward_iteratorIT_EE5valuesr16is_constructibleIS5_NS_15iterator_traitsISE_E9referenceEEE5valueEvE4typeESE_SE_
Q9i:_il2cpp_init
n4c:__ZNSt3__26__treeIPN2UI14CanvasRendererENS_4lessIS3_EENS_9allocatorIS3_EEE7destroyEPNS_11__tree_nodeIS3_PvEE
uIc:__Z20b2TestSegmentSegmentRK6b2Vec2S1_S1_S1_RS_Rf
N6g:__Z176RuntimeInvoker_Boolean_t3825574718_RuntimeObject_Int32U26_t455636984_Int32_t2071877448_Int32_t2071877448_Int32_t2071877448_RuntimeObject_SByte_t454417549_ContextU26_t3131521781PFvvEPK10MethodInfoPvPS4_
zja:__ZN13GfxDeviceGLES22UploadTextureSubData2DE9TextureIDPKhiiiiii14GraphicsFormat
gJi:_GUILayoutEntry__ctor_m3585399294
Dmc:__Z35Register_UnityEngine_Screen_get_dpiv
Rij:__ZNK15dense_hashtableINSt3__24pairIK10KeyWrapperIPK14Il2CppAssemblyEPK22Il2CppMonoAssemblyNameEES6_N6il2cpp5utils11PointerHashIS4_EEN14dense_hash_mapIS6_SA_SF_NS6_14EqualsComparerINS0_8equal_toIS5_EEEENS0_9allocatorISB_EEE9SelectKeyESK_SM_E5beginEv
EAc:__ZN8JSONRead8TransferIxEEvRT_PKc17TransferMetaFlagsb
IQc:__ZN13SpeedTreeWind7AdvanceEbd
pLe:_Int32_TryParse_m2941352213
vna:__ZN18GlslGpuProgramGLES19ApplyGpuProgramGLESERK20GpuProgramParametersPKh
fic:__ZN9Transform16SetLocalPositionERK8Vector3f
BId:_LayoutGroup_GetTotalMinSize_m2600700952
U5b:__ZN10BootConfig4Data12InitFromFileEPPKcjS2_
nGb:__Z15Transfer_StringI18StreamedBinaryReadILb0EELb0EEvRK29SerializationCommandArgumentsR31RuntimeSerializationCommandInfo
lR:__ZN12SoundManagerC2Ev
uWc:_UNITY_tt_face_free_name
Sec:__ZN17TransformInternal24AddTransformSubhierarchyER18TransformHierarchyjS1_RjS2_yb
dre:_Array_Sort_TisUICharInfo_t3056636800_m37864585_gshared
Ega:__ZN15dense_hashtableINSt3__24pairIKN4core12basic_stringIcNS2_20StringStorageDefaultIcEEEE10vector_setI4PPtrI11SpriteAtlasENS0_4lessISB_EE13stl_allocatorISB_L18MemLabelIdentifier81ELi16EEEEES6_20StringHash32FunctionIS6_EN14dense_hash_mapIS6_SH_SK_NS0_8equal_toIS6_EESE_ISI_LSF_81ELi16EEE9SelectKeyESN_SO_E4swapERSR_
$Xj:_emscripten_glGetUniformfv__wrapper
dva:__ZN14DataBufferGLES3MapEjjj
q$h:_InternalEnumerator_1_System_Collections_IEnumerator_get_Current_m771161214_gshared
Jo:FUNCTION_TABLE_fidi
pab:__ZN14SpriteRenderer23VirtualRedirectTransferER19StreamedBinaryWriteILb0EE
nYj:_emscripten_glGetShaderiv__wrapper
$7b:__Z13RegisterClassI9TransformEvv
mZa:__ZN18UnityPropertySheet11UnityTexEnv8TransferI19StreamedBinaryWriteILb0EEEEvRT_
xNa:__ZNK6Camera33CalculateFarPlaneWorldSpaceLengthEv
l5h:_ResourceInfo_t3933049236_marshal_pinvoke_back
zji:_Color_Lerp_m527444458
Ggj:__ZNK15dense_hashtableINSt3__24pairIK10KeyWrapperINS1_IPK11Il2CppImageP11Il2CppClassEEEjEES9_17ReflectionMapHashIS8_EN14dense_hash_mapIS9_jSD_NS9_14EqualsComparerINS0_8equal_toIS8_EEEENS0_9allocatorISB_EEE9SelectKeyESI_SK_E5beginEv
_9i:_il2cpp_array_new
ole:_Array_InternalArray__ICollection_Add_TisDictionaryEntry_t3048875398_m279246399_gshared
C7h:_ChannelServices_GetCurrentChannelInfo_m4080942430
CP:__ZN4FMOD3DSP8getInputEiPPS0_PPNS_13DSPConnectionE
XXe:_KeyValuePair_2_ToString_m2882821022_AdjustorThunk
fU:__ZN11SoundHandle8Instance13CreateChannelERS_b
B9a:__ZN10MeshFilter23VirtualRedirectTransferER17RemapPPtrTransfer
XUc:_ft_outline_glyph_bbox
ZGi:_IndexedSet_1_RemoveAll_m2736534958_gshared
wO:__ZN13AudioListenerD2Ev
M2c:_UNITY_FT_Done_Library
nSh:_VertexHelper__cctor_m1150948588
W6c:__ZN2UI13CanvasManager17EmitDataForCameraEP6Camera
fLc:__Z16b2CollideCirclesP10b2ManifoldPK13b2CircleShapeRK11b2TransformS3_S6_
Gxh:_Transform_1_Invoke_m1111426439_gshared
$le:_Array_InternalArray__ICollection_Add_TisContactPoint2D_t3659330976_m1781705858_gshared
dpc:__Z44Register_UnityEngine_Material_GetTextureImplv
JXj:_glUniform3uiv__wrapper
OLb:__ZL8MainLoopv
mJ:__ZN15SerializeTraitsI9OffsetPtrIN7mecanim12statemachine26SelectorTransitionConstantEEE8TransferI24GenerateTypeTreeTransferEEvRS4_RT_
Jbg:_Binder_ConvertArgs_m2999223281
ofg:_TypeBuilder_IsDefined_m3186251655
B8c:__Z47Register_UnityEngine_CanvasRenderer_SetMaterialv
m8h:_ConfigHandler_ValidatePath_m3188987489
Twa:__ZN15dense_hashtableINSt3__24pairIKPK17RenderSurfaceBaseP13RenderTextureEES4_19PointerHashFunctionIS4_EN14dense_hash_mapIS4_S7_SA_NS0_8equal_toIS4_EE13stl_allocatorIS8_L18MemLabelIdentifier67ELi16EEE9SelectKeyESD_SG_E12resize_deltaEjj
xDc:__ZN19CompositeCollider2D22QueryCompositeColliderEPK10Collider2DPK11Rigidbody2D
OWe:_NumberFormatter_get_IntegerDigits_m3972411141
Y9a:__ZThn32_N12MeshRendererD1Ev
AWa:__ZN13RenderTexture23VirtualRedirectTransferER19StreamedBinaryWriteILb0EE
_wh:_ShimEnumerator_MoveNext_m2728191736_gshared
Q8f:_UInt64_System_IConvertible_ToInt32_m930227577_AdjustorThunk
nAj:__ZN6il2cpp2vm13ComObjectBase17GetMarshalSizeMaxERK10Il2CppGuidPvjS5_jPj
xbc:__ZN9TransformC2E18MemLabelIdentifier18ObjectCreationMode
rNj:_truncate
Jmb:__ZN9ShaderLab27SerializedShaderVectorValue8TransferI18StreamedBinaryReadILb0EEEEvRT_
E2a:__ZN8Renderer21RendererBecameVisibleEv
Cof:_ReadOnlyCollection_1_System_Collections_Generic_ICollectionU3CTU3E_Clear_m2503787861_gshared
MMj:___stpncpy
uef:_Collection_1_System_Collections_IList_Add_m669232520_gshared
n7e:_List_1_RemoveAt_m1843849279_gshared
y4:__ZN10MemoryPool16StaticInitializeEPv
bfa:__ZN11TypeManager21CleanupGlobalInstanceEv
hJi:_LayoutCache__ctor_m3175562018
G6f:_TypedReference_GetHashCode_m3498861551_AdjustorThunk
N:Math_atan
sdj:__ZNSt3__212basic_stringIcNS_11char_traitsIcEENS_9allocatorIcEEE6__initIPKcEENS_9enable_ifIXsr21__is_forward_iteratorIT_EE5valueEvE4typeESA_SA_
fO:__ZNK10SampleClip11GetResourceEv
PIa:__ZN4core12basic_stringIcNS_20StringStorageDefaultIcEEE6resizeEj
_tc:__Z43Register_UnityEngine_Event_set_displayIndexv
O1h:_InternalEnumerator_1_System_Collections_IEnumerator_get_Current_m2821735692_AdjustorThunk
NPc:__GLOBAL__sub_I_CmEventProfiler_cpp
Tsf:_PrimalityTests_GetSPPRounds_m873706010
V$f:_StringBuilder_AppendLine_m1686706871
lqf:_ReadOnlyCollection_1_System_Collections_Generic_IListU3CTU3E_Insert_m584948331_gshared
VKa:__ZN17GlobalGameManager23VirtualRedirectTransferER24GenerateTypeTreeTransfer
JQe:_MemoryStream_ToArray_m547789004
Zcd:__ZN19UnityConnectServiceD0Ev
ghe:_PlayableHandle_IsPlayableOfType_TisAnimatorControllerPlayable_t1744083903_m1628500864_gshared
XPe:_MonoIO_SetLength_m1019790894
qPb:__ZZ23InitPlayerLoopCallbacksvEN46EarlyUpdateUpdateAllUnityWebStreamsRegistrator7ForwardEv
A9f:_UIntPtr_ToString_m387842486
zRa:__ZNSt3__26vectorIfNS_9allocatorIfEEE8__appendEjRKf
hbd:__ZN11UnityEngine15PlatformWrapper21GetCopyTextureSupportEv
FGd:_Graphic_get_depth_m3526566553
hV:__ZN11AudioModule27IsFormatSupportedByPlatformEPKc
RXd:_CollectionBase_get_InnerList_m44314156
Fbe:_Enum_System_IConvertible_ToUInt32_m3575456858
IZi:_Animator_SetBoolString_m665236890
AMa:__ZNSt3__26vectorI17SortingLayerEntryNS_9allocatorIS1_EEE6assignINS_11__wrap_iterIPS1_EEEENS_9enable_ifIXaasr21__is_forward_iteratorIT_EE5valuesr16is_constructibleIS1_NS_15iterator_traitsISA_E9referenceEEE5valueEvE4typeESA_SA_
QMc:__Z14b2PairLessThanRK6b2PairS1_
_8:__ZN14SerializedFile14SerializedTypeD2Ev
eCc:__Z19TransferField_ArrayI8JSONRead16Converter_StringEvRK23StaticTransferFieldInfoR31RuntimeSerializationCommandInfoRT0_
RDc:__ZN15b2WheelJointDef10InitializeEP6b2BodyS1_RK6b2Vec2S4_
b_b:__Z19SetupShadowCullDataRK27ScriptableCullingParametersRK17ShaderReplaceDataPK22SceneCullingParametersf16ShadowProjectionR14ShadowCullData
REa:__ZNK25ThreadsafeLinearAllocator22GetAllocatedMemorySizeEv
b_c:_cff_size_request
q_a:__ZN15DirectorManager14ConnectionPool12SwitchBucketEP14ConnectionList
O5f:_Type_EqualsInternal_m266086934
B4c:__ZN2UI11CompareFuncEPNS_6CanvasES1_
rQ:__ZN4FMOD7Channel11set3DSpreadEf
OHj:__ZN6il2cpp2os6Memory14AlignedReAllocEPvjj
W:Math_fround
x$a:__ZN24GenerateTypeTreeTransfer16TransferTypelessEPjPKc17TransferMetaFlags
rRc:__ZN20TextRenderingPrivate8FontImpl8TransferI24GenerateTypeTreeTransferEEvRT_
lid:_HMACMD5__ctor_m3425004426
mCe:_SymmetricTransform_InternalTransformBlock_m55428483
kua:__ZL18ProgramUniform4uivPK7ApiGLESjiihPKv
lVe:_LongComparer_Compare_m398047722
_ki:_Display_RelativeMouseAt_m2947428679
mHh:_EqualityComparer_1_System_Collections_IEqualityComparer_Equals_m2170611288_gshared
tQd:_Attribute_CheckParameters_m1754681684
f0f:_UnicodeEncoding_GetByteCount_m2761661599
G9i:__ZN6il2cpp2vm7Runtime15InvokeWithThrowEPK10MethodInfoPvPS5_
Gfj:__ZN6il2cpp2gc19AppendOnlyGCHashMapINSt3__24pairIPK10MethodInfoP11Il2CppClassEEP22Il2CppReflectionMethod17ReflectionMapHashIS9_ENS2_8equal_toIS9_EEE3AddERKS9_SB_
wVa:__ZN10builtintex21GetAttenuationTextureEv
jn:FUNCTION_TABLE_viiiiiiiiiiiiiii
rii:_Bounds_set_center_m1010418458_AdjustorThunk
iPh:_Selectable_TriggerAnimation_m3096883407
ggc:__ZNK4Mesh19CanAccessFromScriptEv
i4:__Z15GetGraphicsCapsv
Yla:__ZN7ApiGLES15BindVertexArrayEN2gl6HandleILNS0_10ObjectTypeE3EEE
QEi:_UnityAction_1_BeginInvoke_m2825236457_gshared
Wfc:__ZN24CompressedAnimationCurve17CompressQuatCurveERN13AnimationClip15QuaternionCurveE
fz:__ZN17AnimationPlayable17GetAnimationClipsER13dynamic_arrayIP13AnimationClipLj4EE
QDb:__Z18Transfer_BlittableI18StreamedBinaryReadILb1EELb1ExEvRK29SerializationCommandArgumentsR31RuntimeSerializationCommandInfo
Uhj:__ZN30dense_hashtable_const_iteratorINSt3__24pairIK10KeyWrapperINS1_IPK9EventInfoP11Il2CppClassEEEjEES9_17ReflectionMapHashIS8_EN14dense_hash_mapIS9_jSD_NS9_14EqualsComparerINS0_8equal_toIS8_EEEENS0_9allocatorISB_EEE9SelectKeyESI_SK_EppEv
X4f:_TimeSpan_op_GreaterThan_m2202243191
$6b:__ZN18BackgroundJobQueue29ScheduleMainThreadJobInternalEPFvPvES0_
NKf:_X509Chain_IsSelfIssued_m2009755967
S4c:__ZN2UI11CanvasGroup23VirtualRedirectTransferER24GenerateTypeTreeTransfer
xtb:__Z18Transfer_BlittableI14SafeBinaryReadLb1EhEvRK29SerializationCommandArgumentsR31RuntimeSerializationCommandInfo
X5d:_DateTime_GetTimeMonotonic_m4135038456
hga:__ZNSt3__224__buffered_inplace_mergeIRNS_4lessIN4core12basic_stringIcNS2_20StringStorageDefaultIcEEEEEENS_11__wrap_iterIPS6_EEEEvT0_SC_SC_T_NS_15iterator_traitsISC_E15difference_typeESG_PNSF_10value_typeE
O$f:_StringBuilder_Append_m3636508479
auf:_MD4_Create_m3565183915
fc:invoke_viifff
r6:__Z22DestroyObjectHighLevelP6Objectb
LFc:__ZNK12b2MouseJoint10GetAnchorBEv
xUb:__Z26BeginRenderQueueExtractionR15RenderNodeQueuePK16RendererCullDataRK13CullingOutputPK12LODDataArray15ExtractionFlagsP18JobBatchDispatcher
GRc:__ZNK13TextRendering4Font10GetTextureEv
ojd:_SymmetricAlgorithm_set_KeySize_m270664177
oj:_emscripten_glVertexAttrib3fv
B1g:__ZL49Shadow_t4269599528_CustomAttributesCacheGeneratorP21CustomAttributesCache
Snj:__ZN6il2cpp6icalls8mscorlib6System9Threading6Thread16SetName_internalEP12Il2CppThreadP12Il2CppString
sj:_glBeginTransformFeedback
oSa:__ZN18JobBatchDispatcherC2E11JobPriorityi
pDc:__ZN23ColliderTilingExtension10IsTilingOnEv
Yrc:__ZN8GUIStyle14GetBuiltinFontEv
rka:__ZN9GfxDevice13EndFrameStatsEv
Vac:__Z7Empty2DP9Texture2DPhiiii
VMe:_IntPtr_ToString_m1500137303_AdjustorThunk
Oyd:_RaycasterManager__cctor_m3713028899
Vmj:__ZN6il2cpp6icalls8mscorlib6System7Runtime15InteropServices7Marshal19copy_from_unmanagedEiiP11Il2CppArrayi
w3e:_List_1_CheckCollection_m1228076404_gshared
pLi:_SymmetricTransform_ThrowBadPaddingException_m2553969731
vO:__ZL34StaticDestroyAudioCustomFilterRootPv
HHc:__ZN15dense_hashtableINSt3__24pairIKiiEEi21InstanceIDHashFunctorN14dense_hash_mapIiiS4_NS0_8equal_toIiEE13stl_allocatorIS3_L18MemLabelIdentifier37ELi16EEE9SelectKeyES7_SA_E12maybe_shrinkEv
Pxa:__ZN19ComputeShaderKernelD2Ev
PSf:_RemotingServices_GetProxyForRemoteObject_m3800812855
_5b:__ZN10systeminfo21GetTemporaryCachePathEv
g$f:_Encoding_GetBytes_m3820493744
dhf:_Collection_1_IsValidItem_m2164075061_gshared
Bzf:_Context_DecodeProtocolCode_m4051353560
qVi:_TextGenerator_GetPreferredHeight_m2983948849
Oob:__ZN12ScriptMapper8TransferI14SafeBinaryReadEEvRT_
tzf:_Context_set_ClientWriteKey_m1137238126
Pzb:__Z18Transfer_BlittableI24GenerateTypeTreeTransferLb1E10Matrix4x4fEvRK29SerializationCommandArgumentsR31RuntimeSerializationCommandInfo
Mei:_Expression_GetFixedWidth_m2900825908
INi:_GenericEqualityComparer_1_Equals_m1663005117_gshared
Ddg:_ILGenerator_Mono_GetCurrentOffset_m3553856682
Byc:__ZN9JSONWrite8TransferI10Matrix4x4fEEvRT_PKc17TransferMetaFlags
hog:__ZL58Decimal_t724701077_CustomAttributesCacheGenerator_MinValueP21CustomAttributesCache
t$c:_cf2_hintmap_map
M_e:_Enumerator_VerifyState_m3639069574_AdjustorThunk
Qwg:__ZL50_Module_t2144668161_CustomAttributesCacheGeneratorP21CustomAttributesCache
Awb:__ZN15SerializeTraitsI5RectTIfEE8TransferI14SafeBinaryReadEEvRS1_RT_
kFa:__ZNK14SerializedFile15GetTypeIfExistsEx
Tpc:__Z41Register_UnityEngine_Texture_get_wrapModev
rTc:_UNITY_FT_Raccess_Get_DataOffsets
FMf:_X509Extension_CopyFrom_m2644634650
oec:__ZN14PlayableOutputC2EjP13PlayableGraph
S2a:__ZThn32_NK8Renderer11GetMaterialEi
Umb:__ZN9ShaderLab20SerializedSubProgram8TransferI19StreamedBinaryWriteILb0EEEEvRT_
WAg:__ZL118SecurityManager_t3191249573_CustomAttributesCacheGenerator_SecurityManager_t3191249573____SecurityEnabled_PropertyInfoP21CustomAttributesCache
Z1e:_List_1_System_Collections_IList_Insert_m813883425_gshared
IBj:__ZN6il2cpp6icalls8mscorlib6System7Runtime15InteropServices8GCHandle15GetTargetHandleEP12Il2CppObjectii
S6h:_SafeHandle_Dispose_m3871883741
lk:_unsetenv
pha:__ZN9GfxDevice29GetMinimumNodesPerGraphicsJobEv
M8a:__ZN17BlendShapeChannel8TransferI24GenerateTypeTreeTransferEEvRT_
Xci:_Parser_NewParseException_m3909819299
Q9c:__ZN22BaseUnityConnectClient12CloseServiceEv
rea:__ZN15DirectorManager17OnSampleFixedTimeEv
t$b:__ZNK13RendererScene21GetDynamicObjectCountEv
azh:_Enumerator_System_Collections_IEnumerator_get_Current_m1805365227_AdjustorThunk
aCj:_GC_is_black_listed
VKd:_InputField_set_caretSelectPositionInternal_m2063243072
vAb:__ZN24GenerateTypeTreeTransfer32TransferSTLStyleArrayWithElementI23ManagedObjectTransfererEEvRT_17TransferMetaFlags
I0h:_InternalEnumerator_1_System_Collections_IEnumerator_get_Current_m3043347404_AdjustorThunk
yxj:__ZN6il2cpp6icalls8mscorlib6System11Environment12get_PlatformEv
PPe:_WriteDelegate_BeginInvoke_m2985235908
q7d:_DateTimeOffset_get_Offset_m2335492074_AdjustorThunk
yse:_Component_GetComponentsInChildren_TisRuntimeObject_m1992201622_gshared
dVc:_UNITY_FT_Destroy_Class_tt_driver_class
FKe:_Int32_System_IConvertible_ToChar_m719315943_AdjustorThunk
Uv:__GLOBAL__sub_I_runtime_animation_0_cpp
gbi:_Match__ctor_m478172746
xoe:_Array_InternalArray__Insert_TisWorkRequest_t1154022482_m452198486_gshared
Okc:__Z42Register_UnityEngine_Behaviour_get_enabledv
fUe:_Math_Pow_m3099781906
Zs:__ZN13AnimationClip9PPtrCurveC2ERKS0_
ucj:__ZN6il2cpp2vm14TypeNameParser23ParseNestedTypeOptionalERi
SVe:_MonoType_ReorderParamArrayArguments_m979187413
Mrf:_BigInteger_ToString_m1842353154
yHj:__ZN6il2cpp2os13FastMutexImplC2Ev
S9c:__ZN22BaseUnityConnectClient14QueueCoreEventERN11UnityEngine15CloudWebService17CloudServiceEventEb
FVh:_InternalEnumerator_1_get_Current_m2882946014_gshared
yfb:__ZN30RuntimeInitializeOnLoadManager9ClassInfo8TransferI14SafeBinaryReadEEvRT_
v6h:_GCHandle_Equals_m170815541_AdjustorThunk
LXb:__ZL13RenderCastersiRK8Vector3fS1_RK13ShadowJobDataR17ShaderPassContextRKNSt3__26vectorI16ShadowCasterData13stl_allocatorIS9_L18MemLabelIdentifier2ELi16EEEERKNS8_I20ShadowCasterPartDataSA_ISG_LSB_2ELi16EEEERK15RenderNodeQueuebPKj
ml:_emscripten_glGetShaderInfoLog
bkd:_RIPEMD160Managed_Compress_m3844168032
K7d:_DBNull_System_IConvertible_ToInt32_m3596596664
sKe:_Int16_ToString_m1247017262_AdjustorThunk
YWc:_UNITY_ft_glyphslot_set_bitmap
XCc:__ZN14b2PolygonShape3SetEPK6b2Vec2i
s7:__ZN24GenerateTypeTreeTransfer18SetScriptingObjectE18ScriptingObjectPtri
WKe:_Int32_System_IConvertible_ToType_m573330549_AdjustorThunk
qcg:_CustomAttributeTypedArgument_Equals_m1555989603
iyj:__ZN6il2cpp2os6ThreadC2EPNS0_10ThreadImplE
e6b:__ZN6prcoreL11inner_clearILj3EEEvPhjjj
jPa:__Z29FindReflectionProbeFromAnchorP9TransformRK4AABBRS1_RsS5_
qee:_CultureInfo_insert_into_shared_tables_m348522444
cPf:_Interval_Merge_m1170166798
pUf:_WellKnownServiceTypeEntry__ctor_m1109686429
l1c:_Read_CVT_Stretched
Ooj:__ZNSt3__212basic_stringIDsNS_11char_traitsIDsEENS_9allocatorIDsEEE7reserveEj
E8i:__ZN6il2cpp6icalls8mscorlib6System18CollectTypeMethodsINS_5utils10functional10TrueFilterEEEvP11Il2CppClassPKS7_jRKT_RNSt3__26vectorIPK10MethodInfoNSE_9allocatorISI_EEEERA65535_b
Iaf:_Enumerator_get_Current_m2566716693_AdjustorThunk
XLb:__Z14SetPlayerPause11PlayerPauseb
GFd:_FontData_get_defaultFontData_m3296571046
_Fb:__ZN18StreamedBinaryReadILb1EE8TransferI13dynamic_arrayIfLj4EEEEvRT_PKc17TransferMetaFlags
lqi:_Object_Internal_CloneSingle_m1822942073
nLd:_InputField_InPlaceEditing_m1040314765
w5:__Z30scripting_stack_trace_info_for21ScriptingExceptionPtrR14StackTraceInfo
hSj:_glCompressedTexSubImage3D__wrapper
ZOi:_AudioExtensionManager_AddSpatializerExtension_m1061433739
TVa:__ZN18ShadowMapJobHeaderD0Ev
ehj:__ZN15dense_hashtableINSt3__24pairIK10KeyWrapperINS1_IPK12PropertyInfoP11Il2CppClassEEEjEES9_17ReflectionMapHashIS8_EN14dense_hash_mapIS9_jSD_NS9_14EqualsComparerINS0_8equal_toIS8_EEEENS0_9allocatorISB_EEE9SelectKeyESI_SK_EC2ERKSN_j
MP:__ZN15AudioReverbZone7CleanupEv
_ga:__ZN10BufferGLESD0Ev
DLb:__Z20scripting_gc_disablev
m0h:_InternalEnumerator_1_System_Collections_IEnumerator_get_Current_m790514740_gshared
aPi:_AudioSettings_GetSpatializerPluginName_m698617843
opd:__Z9NullCheckPv
ldd:__ZN22UnityAnalyticsSettings8TransferI14SafeBinaryReadEEvRT_
aDc:__ZNK14b2PolygonShape9TestPointERK11b2TransformRK6b2Vec2
olj:__ZN15dense_hashtableINSt3__24pairIK10KeyWrapperIP11Il2CppClassES4_EES5_N6il2cpp8metadata16SZArrayClassHashEN14dense_hash_mapIS5_S4_SA_NS5_14EqualsComparerINS9_19SZArrayClassCompareEEENS0_9allocatorIS7_EEE9SelectKeyESE_SG_EC2ERKSJ_j
TJc:__ZN22FindParticleCollisions22ProcessFoundCollisionsERKfRK13dynamic_arrayI15BatchedRaycastsLj4EERS2_I20BatchedRaycastResultLj4EERS2_I21BatchedColliderResultLj4EE
B$c:_cf2_hintmask_isNew
$Fb:__Z29Transfer_Blittable_ArrayFieldI18StreamedBinaryReadILb1EEfEvRT_R9ArrayInfoRK23StaticTransferFieldInfo
Qne:_Array_InternalArray__Insert_TisIntPtr_t_m3232864760_gshared
Fta:__ZN6prcoreL26RemapGenericIntegerToFloatI17TexFormatARGB888818TexFormatARGBFloatEEvPKNS_9InnerInfoE
kQi:__ZL24UnresolvedVirtualCall_10P12Il2CppObjectPK10MethodInfo
UWj:_emscripten_glCompressedTexSubImage2D__wrapper
Vgd:_DSA_FromXmlString_m2141326025
zBj:__ZN6il2cpp6icalls8mscorlib6System7Runtime16CompilerServices14RuntimeHelpers15InitializeArrayEP11Il2CppArrayi
qed:__ZZN18UnityConnectClient23RegisterGlobalCallbacksEvEN46EarlyUpdateUnityConnectClientUpdateRegistrator7ForwardEv
FBh:_Dictionary_2_System_Collections_IDictionary_Remove_m2901901588_gshared
rni:_Input_get_touchCount_m814531925
xMc:__ZN16b2ContactManager7CollideEv
K7i:__ZN6il2cpp2vmL29SocketPollingThreadEntryPointEPv
dsj:__ZN13Il2CppHashMapINSt3__24pairIPKcS3_EEi24NamespaceAndNamePairHash26NamespaceAndNamePairEqualsNS0_9allocatorINS1_IK10KeyWrapperIS4_EiEEEEEC2EjRKS5_RKS6_
Y5d:_DateTime_GetNow_m1004310079
F7g:__Z97RuntimeInvoker_Void_t1841601450_RuntimeObject_Int32_t2071877448_SByte_t454417549_SByte_t454417549PFvvEPK10MethodInfoPvPS4_
V8a:__ZN10Matrix4x4f8TransferI18StreamedBinaryReadILb0EEEEvRT_
QDi:_CachedInvokableCall_1_Invoke_m3335223860_gshared
pEf:_SslStreamBase_get_Length_m763159069
brf:_Comparison_1_Invoke_m4190993814_gshared
xT:__ZN4FMOD7Channel19getReverbPropertiesEP29FMOD_REVERB_CHANNELPROPERTIES
k2h:_InternalEnumerator_1_get_Current_m906360510_AdjustorThunk
U9d:_StackFrame_GetSecureFileName_m389986943
KUf:_FormatterConverter_ToInt16_m2774942580
FBd:_CanvasScaler_HandleConstantPixelSize_m229625308
L2:__GLOBAL__sub_I_platformdependent_webgl_source_0_cpp
G_b:__ZL23NormalizeRobustInternalRK8Vector3fRfS2_f
KBd:_CanvasUpdateRegistry_PerformUpdate_m2200492017
wwa:__ZNSt3__26vectorINS_4pairIyP17VertexDeclarationEENS_9allocatorIS4_EEE6insertENS_11__wrap_iterIPKS4_EERS9_
xQc:__GLOBAL__sub_I_modules_terrain_public_2_cpp
B0f:_UTF32Encoding_GetCharCount_m3319809517
u8i:__ZN6il2cpp6icalls8mscorlib6System8MonoType13GetInterfacesEP20Il2CppReflectionType
y_:__ZN11UnityEngine15CloudWebService25WebRequestDownloadHandler7OnAbortEv
BV:__ZN9AudioClip16EnableLegacyModeEv
ZOb:__ZN23ManagedAttributeManager15InitializeClassEv
wyj:__ZN6il2cpp2os6Thread22SetNativeThreadCleanupEPFvPvE
pkc:__Z35Application_Get_Custom_PropPlatformv
daj:_il2cpp_class_from_system_type
Zzi:_TouchScreenKeyboard_Open_m4126304679
dn:FUNCTION_TABLE_vdd
uzb:__Z18Transfer_BlittableI24GenerateTypeTreeTransferLb1E10ColorRGBAfEvRK29SerializationCommandArgumentsR31RuntimeSerializationCommandInfo
Fsa:__ZN6prcoreL17RemapGenericFloatI18TexFormatRGBAFloat16TexFormatRGFloatEEvPKNS_9InnerInfoE
Ave:_MSCompatUnicodeTable_FillCJKCore_m1100372933
Lsi:_X509Certificate_VerifySignature_m2806336005
Uvb:__ZNSt3__26vectorI10RectOffset13stl_allocatorIS1_L18MemLabelIdentifier1ELi16EEE8__appendEj
f1d:_DateTime_op_Inequality_m1607380213
sx:__ZN21AnimationClipPlayable22PrepareAnimationEventsEfR13dynamic_arrayI22AnimationClipEventInfoLj4EE
bse:_Dictionary_2_Do_ICollectionCopyTo_TisRuntimeObject_m4050345195_gshared
ofe:_Array_InternalArray__ICollection_Contains_TisResourceCacheItem_t333236149_m1769941464_gshared
eHa:__ZN15dense_hashtableINSt3__24pairIKN4core12basic_stringIcNS2_20StringStorageDefaultIcEEEEP20ArchiveStorageReaderEES6_20StringHash32FunctionIS6_EN14dense_hash_mapIS6_S9_SC_NS0_8equal_toIS6_EE13stl_allocatorISA_L18MemLabelIdentifier55ELi16EEE9SelectKeyESF_SI_E9copy_fromERKSL_j
Gtj:__ZN14dense_hash_mapI10KeyWrapperIP12Il2CppObjectEN6il2cpp2gc9CachedCCWENS4_5utils11PointerHashIS1_EENS3_14EqualsComparerINSt3__28equal_toIS2_EEEENSB_9allocatorINSB_4pairIKS3_S6_EEEEE13set_empty_keyERSH_
Wo:FUNCTION_TABLE_ff
D6a:__ZNSt3__218__stable_sort_moveIRNS_4lessI4PPtrI11SpriteAtlasEEENS_11__wrap_iterIPS4_EEEEvT0_SA_T_NS_15iterator_traitsISA_E15difference_typeEPNSD_10value_typeE
Yo:FUNCTION_TABLE_fi
zud:_BaseEventData_set_selectedObject_m2198139983
PD:__ZNSt3__227__insertion_sort_incompleteIRN11UnityEngine9Animation11BindingSortEPNS_4pairINS2_14GenericBindingEPNS2_10BoundIndexEEEEEbT0_SB_T_
JIj:__ZN6il2cpp2vm16GenericContainer19GetGenericParameterEPK22Il2CppGenericContainert
XTd:_Char_System_IConvertible_ToSingle_m2547558725_AdjustorThunk
hig:_PropertyBuilder_GetSetMethod_m3440414495
Yli:_UnityEventBase_FindMethod_m3314394402
vd:_emscripten_glGetAttribLocation
xPb:__ZZ23InitPlayerLoopCallbacksvEN39PostLateUpdateResetInputAxisRegistrator7ForwardEv
oS:__ZN4FMOD12ChannelGroup14getParentGroupEPPS0_
gJ:__ZN7mecanim12statemachine20StateMachineConstant8TransferI24GenerateTypeTreeTransferEEvRT_
FCf:_SslClientStream_add_ServerCertValidation_m684653638
zd:_emscripten_set_blur_callback
xwi:_Rect_Contains_m846865666_AdjustorThunk
UGj:__GLOBAL__sub_I_MemoryMappedFile_cpp
tTj:___cxa_pure_virtual__wrapper
uqa:__ZNK14ImageReference9ClipImageEiiii
vYb:__ZN10Matrix4x4f30SetPositionAndOrthoNormalBasisERK8Vector3fS2_S2_S2_
eEa:__ZN5RectTIfE8TransferI24GenerateTypeTreeTransferEEvRT_
Qhh:__Z87RuntimeInvoker_Void_t1841601450_RuntimeObject_Vector3_t2243707580_HitInfoU26_t216915145PFvvEPK10MethodInfoPvPS4_
$7h:_CrossAppDomainSink__cctor_m1547233779
Xue:_TableRange__ctor_m1944319286_AdjustorThunk
wSb:__ZN12FlareManager6UpdateEv
RTj:_glColorMask__wrapper
Fwg:__ZL59_ConstructorInfo_t3269099341_CustomAttributesCacheGeneratorP21CustomAttributesCache
RCh:_Dictionary_2_ContainsKey_m1385349577_gshared
nDe:_X509CertificateEnumerator_MoveNext_m1031936092
ypj:__ZN6il2cpp6icalls8mscorlib6System4Type29GetGenericTypeDefinition_implEP20Il2CppReflectionType
Uxf:_TlsStream__ctor_m2982031560
iJf:_X509EnhancedKeyUsageExtension__ctor_m4050164330
m$h:_InternalEnumerator_1_get_Current_m2198364332_AdjustorThunk
fdb:__ZN27GenericSlowGarbageCollector16ProcessReferenceEi
dTf:_RealProxy_InternalGetProxyType_m858618403
Gce:_FieldAccessException__ctor_m1240495912
Ugi:_Uri_HexUnescapeMultiByte_m25670899
xBd:_CanvasScaler_set_dynamicPixelsPerUnit_m742632820
fMj:_fopen
ZTc:__ZN20TextRenderingPrivate8FontImplD2Ev
h0:__ZN19CloudServiceHandler8SaveFileERKN4core12basic_stringIcNS0_20StringStorageDefaultIcEEEEPKvj
fvd:_BaseInputModule_HandlePointerExitAndEnter_m1570886840
DMf:_X509EnhancedKeyUsageExtension_CopyFrom_m1426370958
LUj:_glFramebufferTexture2D__wrapper
OIj:__ZN6il2cpp6icalls8mscorlib6System7Runtime8Remoting7Proxies9RealProxy27InternalGetTransparentProxyEP12Il2CppObjectP12Il2CppString
X6e:_List_1_AddEnumerable_m1000825969_gshared
Kwj:__ZN6il2cpp2vm6Method10IsInflatedEPK10MethodInfo
FBj:__ZNK6il2cpp8metadata14Il2CppTypeLessclEPK10Il2CppTypeS4_
zCj:_GC_remove_header
qfb:__ZNSt3__26vectorIi13stl_allocatorIiL18MemLabelIdentifier13ELi16EEE8__appendEj
vwi:_Rect_Contains_m3575749021_AdjustorThunk
VGe:_RegionInfo_GetHashCode_m1038358761
Doi:_Mathf_Lerp_m1928161522
t8h:_ConfigHandler_ReadCustomProviderData_m784203316
zMa:__ZNSt3__26vectorI17SortingLayerEntryNS_9allocatorIS1_EEE7reserveEj
Qyf:_Context_set_MasterSecret_m1422386411
GCb:__Z19TransferField_ArrayI19StreamedBinaryWriteILb0EE27Converter_UnityEngineObjectEvRK23StaticTransferFieldInfoR31RuntimeSerializationCommandInfoRT0_
$Gc:__ZN10ClipperLib7Clipper15AddLocalMinPolyEPNS_5TEdgeES2_RKNS_8IntPointE
mvf:_RSAManaged_ToXmlString_m2606223477
ddi:_CharacterClass__ctor_m1318163925
cmh:__Z150RuntimeInvoker_Void_t1841601450_Vector3_t2243707580_Color32_t874517518_Vector2_t2243707579_Vector2_t2243707579_Vector3_t2243707580_Vector4_t2243707581PFvvEPK10MethodInfoPvPS4_
hna:__Z16GetMSAALevelDesc9MSAALevel
aRb:__ZN8Renderer27EnsureTransformInfoUpToDateEv
Bfa:__ZN15dense_hashtableINSt3__24pairIKN4core12basic_stringIcNS2_20StringStorageDefaultIcEEEEP11AssetBundleEES6_20StringHash32FunctionIS6_EN14dense_hash_mapIS6_S9_SC_NS0_8equal_toIS6_EENS0_9allocatorISA_EEE9SelectKeyESF_SH_E9copy_fromERKSK_j
uZj:_emscripten_glFrontFace__wrapper
Na:invoke_fiffi
eHj:__ZN6il2cpp5utils6Memory6CallocEjj
q9:__ZN14SerializedFile14SerializedType8ReadTypeILb1EEEbibRPKhS3_Pi
GUj:_emscripten_glRenderbufferStorage__wrapper
e_a:__ZN8Playable7SetTimeEd
f5:__ZN13RuntimeStaticI12GraphicsCapsLb0EE16StaticInitializeEPv
D7a:__ZN9Texture3D17UploadToGfxDeviceEv
Ozc:__Z18Transfer_BlittableI8JSONReadLb1E8Vector4fEvRK29SerializationCommandArgumentsR31RuntimeSerializationCommandInfo
xXc:_tt_cmap2_validate
wBf:_HttpsClientStream_U3CHttpsClientStreamU3Em__1_m4293802471
g0c:_cff_cmap_unicode_done
nKe:_NumberFormatter_Init_m1515770916
rfi:_Literal_Compile_m3864266818
cnh:__Z72RuntimeInvoker_Boolean_t3825574718_CharU26_t1894467670_Int16_t4041245914PFvvEPK10MethodInfoPvPS4_
Bv:__ZN7mecanim5human9HumanGoal8TransferI19StreamedBinaryWriteILb0EEEEvRT_
tLb:__ZN9Scripting20SendScriptingMessageER10GameObjectPKc18ScriptingObjectPtr
TLb:__Z26IsSplashScreenFadeCompletev
kUa:__Z17SendMessageDirectR6ObjectRK17MessageIdentifierR11MessageData
pLd:_InputField_LateUpdate_m1045279070
nlc:__Z42Register_UnityEngine_Camera_get_clearFlagsv
w8i:__ZNSt3__26__treeIP11Il2CppClassNS_4lessIS2_EENS_9allocatorIS2_EEED2Ev
VBh:_Dictionary_2_InitArrays_m852496598_gshared
VWh:_InternalEnumerator_1_get_Current_m1389169756_gshared
I$f:_StringBuilder_set_Chars_m1019094834
s_i:_Physics2D_Raycast_m2247349452
K2b:__ZN13RenderManager27UpdatePreviousFrameMatricesEv
RDb:__Z35Transfer_Blittable_FixedBufferFieldI18StreamedBinaryReadILb1EExEvRK29SerializationCommandArgumentsR31RuntimeSerializationCommandInfo
QJ:__ZN18StreamedBinaryReadILb0EE21TransferSTLStyleArrayI22OffsetPtrArrayTransferI9OffsetPtrIN7mecanim9animation17BlendTreeConstantEEEEEvRT_17TransferMetaFlags
ZSd:_Byte_System_IConvertible_ToUInt64_m2667486567
jba:__Z22SetManagerPtrInContextiP6Object
aeb:__ZN14PlayerSettings8TransferI19StreamedBinaryWriteILb0EEEEvRT_
yzc:__Z18Transfer_BlittableI8JSONReadLb0E10ColorRGBAfEvRK29SerializationCommandArgumentsR31RuntimeSerializationCommandInfo
Jhf:_Collection_1_Remove_m2017992820_gshared
Nne:_Array_InternalArray__Insert_TisInt16_t4041245914_m371511339_gshared
Vcg:_ConstructorBuilder_get_next_table_index_m932085784
FAh:_ValueCollection_System_Collections_ICollection_get_SyncRoot_m919209341_gshared
F4i:__ZN15dense_hashtableINSt3__24pairIK10KeyWrapperIN6il2cpp5utils13dynamic_arrayIPK10Il2CppTypeLj4EEEEPFvvEEESA_NS3_8metadata19Il2CppSignatureHashEN14dense_hash_mapISA_SD_SG_NSA_14EqualsComparerINSF_22Il2CppSignatureCompareEEENS0_9allocatorISE_EEE9SelectKeyESK_SM_E14squash_deletedEv
fQh:_Slider_UpdateDrag_m1963963631
VXf:_SByte_Equals_m755715567
oda:__ZN15DirectorManagerD2Ev
$ve:_SortKeyBuffer_AppendNormal_m2554296431
$9b:__ZNK30SpriteRendererAnimationBinding15GenerateBindingERKN4core12basic_stringIcNS0_20StringStorageDefaultIcEEEEbRN11UnityEngine9Animation14GenericBindingE
Ghh:__Z87RuntimeInvoker_Void_t1841601450_Int32_t2071877448_Single_t2076509932_Single_t2076509932PFvvEPK10MethodInfoPvPS4_
hrj:__ZN6il2cpp6icalls8mscorlib6System13Globalization11CultureInfo45construct_internal_locale_from_current_localeEP17Il2CppCultureInfo
PZg:__ZL70InputField_t1631627530_CustomAttributesCacheGenerator_m_CaretBlinkRateP21CustomAttributesCache
Ije:_Array_IndexOf_TisCustomAttributeNamedArgument_t94157543_m2205974312_gshared
hya:__ZN15TextureTFMethod16BindForRenderingEj
Kfe:_Array_InternalArray__ICollection_Contains_TisUICharInfo_t3056636800_m2001435744_gshared
fFh:_DefaultComparer_GetHashCode_m3250641461_gshared
zNf:_Key_ToString_m1129871742
RPd:_Array_Sort_m1417611156
yMj:_access
nKj:_ScrollScriptMenu_Update_m3433496859
r5g:__Z59RuntimeInvoker_RuntimeObject_RuntimeObject_Int64_t909078037PFvvEPK10MethodInfoPvPS4_
Arj:__ZN15dense_hashtableINSt3__24pairIK10KeyWrapperINS1_IPKcS4_EEEiEES6_24NamespaceAndNamePairHashN14dense_hash_mapIS6_iS9_NS6_14EqualsComparerI26NamespaceAndNamePairEqualsEENS0_9allocatorIS8_EEE9SelectKeyESD_SF_E4findERS7_
Bgi:_Uri_Merge_m2181117222
CRc:__ZN20TextRenderingPrivate8FontImpl13CharacterInfo8TransferI19StreamedBinaryWriteILb0EEEEvRT_
N6i:__ZN6il2cpp2os19SocketHandleWrapper7ReleaseEv
VDd:_DefaultControls_CreateRawImage_m2572997170
p4f:_TimeSpan_get_TotalDays_m3496775483_AdjustorThunk
Tcb:__ZNSt3__27__sort4IRNS_6__lessINS_4pairIPKN5Unity4TypeE7Hash128EES8_EEPS8_EEjT0_SC_SC_SC_T_
vEa:__ZNK11NamedObject22GetTypeVirtualInternalEv
_2f:_Thread_Start_m1419497481
sI:__ZN14SafeBinaryRead21TransferSTLStyleArrayI22OffsetPtrArrayTransferIKN4math7_float3EEEEvRT_17TransferMetaFlags
RBi:_Vector3_set_Item_m2026854946
tih:__Z94RuntimeInvoker_Void_t1841601450_RuntimeObject_PlayableGraph_t1041204988_RuntimeObject_IntPtr_tPFvvEPK10MethodInfoPvPS4_
ite:_Array_InternalArray__get_Item_TisDictionaryEntry_t3048875398_m2371191320_gshared
SYg:__ZL62FontData_t2614388407_CustomAttributesCacheGenerator_m_RichTextP21CustomAttributesCache
w7g:__Z65RuntimeInvoker_Double_t4078015681_RuntimeObject_Int32_t2071877448PFvvEPK10MethodInfoPvPS4_
JUh:_InternalEnumerator_1_get_Current_m2351441486_gshared
Iyh:_Enumerator_System_Collections_IEnumerator_Reset_m1146954164_AdjustorThunk
Btc:__ZN11IMGUIModule21QueryGUIDisplayTargetE17ScriptingClassPtr
Dic:__ZN11UTF16StringC2ERKS_18MemLabelIdentifier
I3i:__ZNSt3__27__sort4IRN6il2cpp5utils11collections13ArrayValueMapIPK10Il2CppType17Il2CppInteropData26InteropDataToTypeConverterNS1_8metadata14Il2CppTypeLessENSA_26Il2CppTypeEqualityComparerEE12SortComparerEPS8_EEjT0_SH_SH_SH_T_
KPj:dynCall_vidi
gnf:_ReadOnlyCollection_1_System_Collections_IList_Remove_m2350545199_gshared
uPj:___udivdi3
wic:__ZN11PlayerPrefs9SetStringERKN4core12basic_stringIcNS0_20StringStorageDefaultIcEEEES6_
aKi:_GUILayoutGroup_ToString_m3992339043
pFj:__ZN6il2cpp6icalls8mscorlib6System8Delegate18SetMulticastInvokeEP14Il2CppDelegate
BKc:__ZL18b2FindIncidentEdgeP12b2ClipVertexPK14b2PolygonShapeRK11b2TransformiS3_S6_
oNd:_LayoutGroup_get_minHeight_m2270010946
i_:__ZN11UnityEngine15CloudWebService20WebRequestRestClient5BeginEv
Btf:_ARC4Managed_GenerateIV_m2815460576
YBi:_Vector3_get_normalized_m1057036856_AdjustorThunk
Qpd:_String_Substring_m2032624251
rcc:__ZN8Material12CleanupClassEv
T5d:_DateTime_get_DayOfWeek_m2345429939_AdjustorThunk
U5f:_Type_GetTypeCode_m1044483454
w5h:_ResourceSet_GetObjectInternal_m3556256510
Ryb:__Z22TransferField_NonArrayI17RemapPPtrTransfer27Converter_SimpleNativeClassI10RectOffsetEEvRK23StaticTransferFieldInfoR31RuntimeSerializationCommandInfoRT0_
h1d:_DateTimeOffset__ctor_m2870721395
BT:__ZN20SoundChannelInstance11set3DSpreadEf
ED:__ZNSt3__26__sortIRN11UnityEngine9Animation11BindingSortEPNS_4pairINS2_14GenericBindingEPNS2_10BoundIndexEEEEEvT0_SB_T_
Msd:_String_ReplaceFallback_m64616664
slg:_MonoMethod_GetCustomAttributes_m2493833930
Sdb:__ZN24GenerateTypeTreeTransfer32TransferSTLStyleArrayWithElementI16SplashScreenLogoEEvRT_17TransferMetaFlags
zej:__ZN15dense_hashtableINSt3__24pairIK10KeyWrapperINS1_IPK9FieldInfoP11Il2CppClassEEEjEES9_17ReflectionMapHashIS8_EN14dense_hash_mapIS9_jSD_NS9_14EqualsComparerINS0_8equal_toIS8_EEEENS0_9allocatorISB_EEE9SelectKeyESI_SK_E6insertERKSB_
N1i:__ZN14dense_hash_mapI10KeyWrapperIPKcEP11Il2CppClassN6il2cpp5utils11StringUtils12StringHasherIS2_EENS3_14EqualsComparerINS7_13VmStringUtils21CaseSensitiveComparerEEENSt3__29allocatorINSF_4pairIKS3_S5_EEEEEC2EjRKSA_RKSE_
Ixi:_Vector2_get_one_m542290559
LKe:_Int32_System_IConvertible_ToDouble_m3322226667_AdjustorThunk
ine:_Array_InternalArray__ICollection_CopyTo_TisPlayableBinding_t2498078091_m2296273826_gshared
qca:__Z37InitializeIntermediateRendererManagerPv
RBj:_GC_log_printf
yVi:_Comparison_1_BeginInvoke_m4224593217_gshared
oYf:_CodeAccessPermission_ToString_m3345031296
jvj:__ZN6il2cpp2vm6Object5UnboxEP12Il2CppObject
MGf:_FtpWebRequest__ctor_m3003551676
tBe:_EncryptedPrivateKeyInfo__ctor_m832236482
c5:__ZN23DefaultMeshVertexFormatC2E17ShaderChannelMask
kEb:__ZL26Transfer_SimpleNativeClassI18StreamedBinaryReadILb1EE8GradientLb1EEvRK29SerializationCommandArgumentsR31RuntimeSerializationCommandInfo
Yqd:_Single_Equals_m3359827399
Yr:__ZN13AnimationClip16DecompressCurvesERNSt3__26vectorI24CompressedAnimationCurve13stl_allocatorIS2_L18MemLabelIdentifier26ELi16EEEE
K2f:_Thread_FreeLocalSlotValues_m2948667652
Oma:__ZN7ApiGLES10InvalidateERK14GfxContextGLES
aze:_ASN1Convert_ToOid_m2695991795
r2c:_UNITY_FT_Init_Class_tt_service_truetype_glyf
Wni:_ManagedStreamHelpers_ValidateLoadFromStream_m733853519
vHj:__ZN6il2cpp2os5Mutex7TryLockEjb
k4:__Z20IsVectorBuiltinParamPKcPi
Iuj:__ZN6il2cpp2vm5Field8GetFlagsEP9FieldInfo
A_h:_InternalEnumerator_1_get_Current_m727737343_AdjustorThunk
wnj:__ZN6il2cpp6icalls8mscorlib6System10ReflectionL16LoadResourceFileEP24Il2CppReflectionAssembly
R8:__Z13IsFileCreatedRKN4core12basic_stringIcNS_20StringStorageDefaultIcEEEE
BGj:__ZN6il2cpp6icalls8mscorlib6System21CurrentSystemTimeZone15GetTimeZoneDataEiPP11Il2CppArrayS6_
EPi:_AudioExtensionManager_GetListenerSpatializerExtensionType_m3668710088
L1a:__ZN16LightmapSettings18TransferDeprecatedI14SafeBinaryReadEEvRT_
Abb:__ZN8Renderer11SetMaterialE4PPtrI8MaterialEi
tuj:__ZN15dense_hashtableINSt3__24pairIK10KeyWrapperIP12Il2CppObjectEN6il2cpp2gc9CachedCCWEEES5_NS7_5utils11PointerHashIS3_EEN14dense_hash_mapIS5_S9_SD_NS5_14EqualsComparerINS0_8equal_toIS4_EEEENS0_9allocatorISA_EEE9SelectKeyESI_SK_E5eraseE30dense_hashtable_const_iteratorISA_S5_SD_SM_SI_SK_E
qrd:_String__cctor_m710226597
f2:__GLOBAL__sub_I_runtime_camera_renderloops_1_cpp
mjf:_Collection_1_IsValidItem_m404831699_gshared
Q4f:_TimeSpan_Negate_m4198463235_AdjustorThunk
xRa:__ZN12FlareManager9AddCameraER6Camera
sU:__ZN11AudioSource8TransferI14SafeBinaryReadEEvRT_
qgc:__ZN4Mesh17SetIndicesComplexEPKvjj16GfxPrimitiveTypei
Cmg:_ParameterInfo_GetCustomAttributes_m2985072480
Ghf:_Collection_1_Insert_m4010554762_gshared
Qy:__ZN7mecanim9animation23TransformDeltasFromClipEiiiRKNS0_18ClipMuscleConstantERKNS0_12ClipBindingsERKNS_14ValueArrayMaskERN4math4trsXESC_SC_
Oqe:_Array_Sort_TisRuntimeObject_m1954851512_gshared
_Gb:__Z18Transfer_BlittableI18StreamedBinaryReadILb0EELb0E12PropertyNameEvRK29SerializationCommandArgumentsR31RuntimeSerializationCommandInfo
As:__ZN14SafeBinaryRead21TransferSTLStyleArrayI22OffsetPtrArrayTransferIfEEEvRT_17TransferMetaFlags
CGc:__ZTv0_n12_N10ClipperLib7ClipperD0Ev
Q9h:_ContextAttribute_GetHashCode_m3646968314
Uve:_SimpleCollator_GetSortKey_m540875593
lnb:__ZN9ShaderLab9IntShader26CreateFromSerializedShaderERKNS_16SerializedShaderERNSt3__26vectorI4PPtrI6ShaderENS4_9allocatorIS8_EEEEbPS7_
Yii:_Camera_INTERNAL_CALL_ScreenPointToRay_m305063597
uRb:__ZN19ShaderPropertySheet16SetComputeBufferEN9ShaderLab16FastPropertyNameE15ComputeBufferIDNS_8SetFlagsE
Uyj:__ZNK15dense_hashtableINSt3__24pairIK10KeyWrapperIPK19Il2CppGenericMethodEP10MethodInfoEES6_N6il2cpp8metadata23Il2CppGenericMethodHashEN14dense_hash_mapIS6_S9_SD_NS6_14EqualsComparerINSC_26Il2CppGenericMethodCompareEEENS0_9allocatorISA_EEE9SelectKeyESH_SJ_E5beginEv
Uy:__ZN7mecanim21CreateFloatValueArrayEPKNS_18ValueArrayConstantERNS_6memory9AllocatorE
N2f:_Thread_GetCachedCurrentCulture_m450033007
L$b:__ZL12CullGroupJobP20CullingGroupsJobDataj
XCj:_GC_remove_dangling_disappearing_links
Y_:__ZN11UnityEngine15CloudWebService14RestDownloader9IsAbortedEv
_B:__ZN7mecanim12statemachine28DestroyStateMachineWorkspaceEPNS0_21StateMachineWorkspaceERNS_6memory9AllocatorE
Pk:_emscripten_glNormalPointer
ruc:__Z30GUIStyle_CUSTOM_SetDefaultFontP12Il2CppObject
KOf:_Interval_t2354235237_marshal_pinvoke_back
mo:FUNCTION_TABLE_f
$o:FUNCTION_TABLE_i
f9d:_Decimal_ToString_m541380585_AdjustorThunk
gfa:__ZN11TypeManager12RegisterTypeERK20TypeRegistrationDesc
En:FUNCTION_TABLE_v
A8a:__ZNSt3__26vectorI17BlendShapeChannelNS_9allocatorIS1_EEE8__appendEj
HId:_Image_get_preserveAspect_m2161836851
aK:__ZN19StreamedBinaryWriteILb0EE19TransferSTLStyleMapINSt3__23mapIjN4core12basic_stringIcNS4_20StringStorageDefaultIcEEEENS2_4lessIjEENS2_9allocatorINS2_4pairIKjS8_EEEEEEEEvRT_17TransferMetaFlags
Jp:__ZN18StreamedBinaryReadILb0EE21TransferSTLStyleArrayI13dynamic_arrayI8Vector3fLj4EEEEvRT_17TransferMetaFlags
DPb:__ZZ23InitPlayerLoopCallbacksvEN43PostLateUpdateUpdateAllRenderersRegistrator7ForwardEv
jhb:__ZN21LightProbeProxyVolume13GetRenderDataER27LightProbeProxyVolumeSample
V4d:_CurrentSystemTimeZone_GetDaylightChanges_m2777828412
N9i:__ZN6il2cpp2vm7Runtime30CallUnhandledExceptionDelegateEP12Il2CppDomainP14Il2CppDelegateP15Il2CppException
eDi:_Predicate_1_Invoke_m577088274_gshared
MAi:_Transform_SetParent_m1020583764
kTf:_RemotingProxy_get_TypeName_m1400928020
zcb:__ZN11TimeManager8TransferI24GenerateTypeTreeTransferEEvRT_
Zve:_SortKeyBuffer_GetResult_m962852575
Gve:_SimpleCollator_Category_m1504096908
er:__ZNK11UnityEngine9Animation28GenericAnimationBindingCache10BindCustomERKNS0_14GenericBindingER9TransformRNS0_10BoundCurveE
Scj:__ZN6il2cpp2vm17TypeNameParseInfoC2ERKS1_
Ucd:__ZN18UnityConnectClient17InitConnectClientEv
ITh:_ArrayReadOnlyList_1_ReadOnlyError_m2158247090_gshared
UKj:_memcmp
j6d:_DateTime_CompareTo_m3372173896
vbd:__ZN11UnityEngine7Connect18ConnectSessionInfo8TransferER9JSONWrite
Ppi:_MonoBehaviour_StopCoroutine_Auto_m2947240387
oji:_Color__ctor_m3831565866
iX:__Z74Register_UnityEngine_AudioListener_INTERNAL_CALL_ReadExtensionPropertyNamev
Ebb:__ZN9Scripting32GetCachedPtrFromScriptingWrapperE18ScriptingObjectPtr
u6c:__ZN2UI29ScheduleUIJobsForInstructionsERNS_7BatchesEjPKNS_13UIInstructionEfjjPNS_13CanvasJobDataE
gS:__ZN5audio5mixer22CreateAudioMixerMemoryERKNS0_18AudioMixerConstantEPN4FMOD6SystemERN7mecanim6memory9AllocatorEib
UJb:__ZL65EmitSerializationCommandsForLinearCollectionOfManagedObjectsFieldRK31TransferFunctionScriptingTraitsRK23TransferArrayField_InfoR20SerializationCommandR32SerializationCommandQueueBuilderRP20AllowNameConversions
oCf:_RSASslSignatureDeformatter_VerifySignature_m3138484348
Fme:_Array_InternalArray__ICollection_CopyTo_TisDecimal_t724701077_m1087621311_gshared
uwh:_Enumerator_System_Collections_IDictionaryEnumerator_get_Value_m2325383168_AdjustorThunk
r3d:_Convert_ToInt64_m4280008532
coc:__Z28Mesh_CUSTOM_SetTrianglesImplP12Il2CppObjectiP11Il2CppArrayih
v_g:__ZL61RawImage_t2749640213_CustomAttributesCacheGenerator_m_TextureP21CustomAttributesCache
DNb:__ZL20ShaderWarmupFuncImplP6ShaderiPN9ShaderLab4PassERK16ShaderKeywordSetP10DynamicVBOPvR17ShaderPassContext
$hd:_HMAC_set_Key_m1530357889
z3i:__ZN15dense_hashtableI10KeyWrapperIPK17Il2CppGenericInstES4_N6il2cpp8metadata21Il2CppGenericInstHashEN14dense_hash_setIS4_S7_NS4_14EqualsComparerINS6_24Il2CppGenericInstCompareEEENSt3__29allocatorIS4_EEE8IdentityESB_SE_E6insertERKS4_
Rdj:__ZN15dense_hashtableINSt3__24pairIK10KeyWrapperINS1_IPK14Il2CppAssemblyP11Il2CppClassEEEjEES9_17ReflectionMapHashIS8_EN14dense_hash_mapIS9_jSD_NS9_14EqualsComparerINS0_8equal_toIS8_EEEENS0_9allocatorISB_EEE9SelectKeyESI_SK_E3endEv
GRj:dynCall_iiii
XLh:_Scrollbar_set_numberOfSteps_m579707524
Ccd:__ZN11UnityEngine7Connect17DeviceStatusEventC2Ev
cLj:_fmt_u
Mna:__ZN14DataBufferGLES12RecordUpdateEv
K4h:_ResourceManager__cctor_m2190112652
RSc:__ZN20TextRenderingPrivate15DynamicFontData28GetFaceForFontRefFromOSFontsERKNS_7FontRefE
bSe:_StreamWriter__ctor_m4232641237
lvj:__ZN6il2cpp2vm12GenericClass12SetupMethodsEP11Il2CppClass
Lrb:__ZNK20LocalFileSystemPosix18GetApplicationPathEv
R1d:_Decimal__ctor_m3876694886
RJb:__ZN9Scripting30IsSystemCollectionsGenericListE17ScriptingClassPtr
CQd:_AttributeUsageAttribute__ctor_m2873156923
N6c:__ZN2UI23InitializeCanvasManagerEv
_Ka:__ZN10GameObject16CheckConsistencyEv
qac:__ZN14RenderSettings15InitializeClassEv
QIf:_AsnEncodedData_set_Oid_m3568255745
lmc:__Z46Register_UnityEngine_GameObject_get_activeSelfv
cDf:_SslClientStream_OnRemoteCertificateValidation2_m3416857045
oXf:_RuntimeTypeHandle_Equals_m452760426_AdjustorThunk
Aac:__ZL19OnLightProbesUpdatev
A2h:_InternalEnumerator_1_System_Collections_IEnumerator_get_Current_m762846484_AdjustorThunk
tzb:__Z18Transfer_BlittableI24GenerateTypeTreeTransferLb0E10ColorRGBAfEvRK29SerializationCommandArgumentsR31RuntimeSerializationCommandInfo
p6b:__ZN14SpriteRenderer13GetRenderDataEv
$Pj:dynCall_iifii
t5c:__ZN2UI16GetCanvasManagerEv
ehf:_Collection_1_ConvertItem_m3057301945_gshared
Imc:__Z31RectOffset_Get_Custom_PropRightP12Il2CppObject
Q3c:__Z54Register_UnityEngine_TextGenerator_GetVerticesInternalv
tjd:__Z3BoxP11Il2CppClassPv
Zde:_CultureInfo_Clone_m2970753766
dOf:_IntStack_Push_m1259764820
mya:__ZN21UniformBufferTFMethodD2Ev
LOe:_FileStream_InitBuffer_m2153931481
w6f:_Type_MakeGenericType_m2765875033
_ic:__ZL34GetComponentsImplementationRecurseILb1ELi1ELi2EEbR10GameObjectbRK17CompareParametersRK39GetComponentsImplementation_ReturnValue
yra:__ZN6prcoreL12RemapGenericI15TexFormatRGB56515TexFormatRGB888EEvPKNS_9InnerInfoE
BLd:_InputField_OnEndDrag_m1818224847
nJe:_NumberFormatter_GetInstance_m2421260460
jue:_AttributeHelperEngine_GetCustomAttributeOfType_TisRuntimeObject_m2532320824_gshared
U7c:__Z41CanvasGroup_Get_Custom_PropBlocksRaycastsP12Il2CppObject
Bjb:__ZNSt3__26vectorIN9ShaderLab26SerializedShaderDependencyENS_9allocatorIS2_EEE8__appendEj
sYh:_InternalEnumerator_1_System_Collections_IEnumerator_get_Current_m4242639349_gshared
Jaa:__ZN32TransformHierarchyChangeDispatch26DispatchSelfAndAllChildrenE15TransformAccessNS_12InterestTypeE
mX:__Z46Register_UnityEngine_AudioSource_get_isPlayingv
R_f:_UTF32Encoding__ctor_m3199945978
Hba:__ZN13RuntimeStaticI22VirtualJoystickManagerLb0EE13StaticDestroyEPv
KO:__ZN13AudioListener12ApplyFiltersEv
cHe:_SortKey_GetHashCode_m2534654444
dfe:_Array_InternalArray__ICollection_Contains_TisInt64_t909078037_m1425723755_gshared
Qzf:_HandshakeMessage_Update_m1733566706
rHj:__ZN6il2cpp8metadata27Il2CppGenericContextCompare7CompareEPK20Il2CppGenericContextS4_
MQj:dynCall_viiii
iWd:_ArrayListWrapper_ToArray_m235921330
rjg:_MemberInfoSerializationHolder_Serialize_m4243060728
NIi:_GUIUtility_Internal_GetGUIDepth_m2168931083
TJh:_MaskableGraphic_OnDisable_m2605143092
Wcj:__ZNSt3__214__split_bufferIN6il2cpp2vm17TypeNameParseInfoERNS_9allocatorIS3_EEED2Ev
n6f:_Type_GetConstructor_m663514781
KLe:_Int64_System_IConvertible_ToDouble_m638786774_AdjustorThunk
uea:__ZN15DirectorManager14ConnectionPool16GrowEmptyBucketsEv
kJe:_Int16_ToString_m1247017262
A6:__ZN17PersistentManager32CopyToAwakeFromLoadQueueInternalER18AwakeFromLoadQueue
jIc:__ZN10Collider2D23VirtualRedirectTransferER24GenerateTypeTreeTransfer
fVb:__ZNK6Camera16SetActiveVRUsageEv
e8f:_UInt32_System_IConvertible_ToUInt16_m2798641702
ZUj:_emscripten_glDrawElementsInstanced__wrapper
cAc:__ZL26Transfer_SimpleNativeClassI8JSONRead8GradientLb1EEvRK29SerializationCommandArgumentsR31RuntimeSerializationCommandInfo
wLj:_open
BNc:__ZN6b2Body7SetTypeE10b2BodyType
Zmj:__ZN6il2cpp6icalls8mscorlib6System5Array5CloneEP11Il2CppArray
R2b:__Z30GetPlayerShouldRunInBackgroundv
p2h:_InternalEnumerator_1_get_Current_m2986222582_gshared
k0f:_UnicodeEncoding_GetBytes_m4175529985
e7c:__Z13RegisterClassIN2UI6CanvasEEvv
gMh:_Selectable_OnDisable_m2660228016
sra:__ZN6prcoreL12RemapGenericI11TexFormatI815TexFormatRGB565EEvPKNS_9InnerInfoE
Kch:__Z75RuntimeInvoker_DateTime_t693205669_DateTime_t693205669_TimeSpan_t3430258949PFvvEPK10MethodInfoPvPS4_
Uma:__ZNK13TranslateGLES17FramebufferTargetEN2gl17FramebufferTargetE
Axj:__ZL11on_gc_event11GCEventType
Rlj:__ZNSt3__214__split_bufferIN6il2cpp8metadata18GenericArrayMethodERNS_9allocatorIS3_EEED2Ev
mqd:_Single_System_IConvertible_ToBoolean_m2661548087_AdjustorThunk
ELc:__ZNSt3__27__sort5IR31RayHitsByInverseDepthComparitorP12RaycastHit2DEEjT0_S5_S5_S5_S5_T_
xhd:_DSASignatureDeformatter_VerifySignature_m4078616251
MTj:b62
LTj:b61
KTj:b60
cVj:b67
Eke:_Array_InternalArray__IndexOf_TisUInt16_t986882611_m390127593_gshared
JJd:_InputField_set_shouldHideMobileInput_m2478534110
KUj:b64
Zsd:_String_Concat_m3881798623
dVj:b68
Afg:_FieldBuilder_IsDefined_m2730324893
QEg:__ZL56FlagsAttribute_t859561169_CustomAttributesCacheGeneratorP21CustomAttributesCache
SQa:__ZNSt3__26__treeINS_12__value_typeIi17ShadowCachingDataEENS_19__map_value_compareIiS3_NS_4lessIiEELb1EEE13stl_allocatorIS3_L18MemLabelIdentifier66ELi16EEE7destroyEPNS_11__tree_nodeIS3_PvEE
Xfh:__Z102RuntimeInvoker_RuntimeObject_RuntimeObject_RuntimeObject_Int32_t2071877448_RuntimeObject_RuntimeObjectPFvvEPK10MethodInfoPvPS4_
xqf:_ReadOnlyCollection_1_System_Collections_IList_Insert_m571902768_gshared
$ah:__Z93RuntimeInvoker_Single_t2076509932_SingleU26_t4173844468_Single_t2076509932_Single_t2076509932PFvvEPK10MethodInfoPvPS4_
OQj:dynCall_iifffi
Vgc:__Z9SetIIMGUIP6IIMGUI
o_d:_SyncHashtable_ContainsKey_m3408601214
PXc:_tt_cmap10_get_info
sMb:__Z28SetupPixelCorrectCoordinatesi
Nec:__ZNSt3__218__insertion_sort_3IRN10vector_mapIiiNS_4lessIiEE13stl_allocatorINS_4pairIiiEEL18MemLabelIdentifier1ELi16EEE13value_compareEPS6_EEvT0_SD_T_
mna:__Z5SplitRKN4core12basic_stringIcNS_20StringStorageDefaultIcEEEEcRNSt3__26vectorIS3_NS6_9allocatorIS3_EEEEi
Ofi:_RegularExpression_Compile_m3944989565
L$i:__ZN6il2cpp2vmL10InitLockedEP11Il2CppClassRKNS_2os12FastAutoLockE
p7:__ZN17ScriptingGCHandle28ResolveBackendNativeGCHandleEj
Nfe:_Array_InternalArray__ICollection_Contains_TisWorkRequest_t1154022482_m865286315_gshared
lec:__ZN13PlayableGraph16DestroyRecursiveEP8Playable
TJ:__ZN15SerializeTraitsI9OffsetPtrIN7mecanim9animation19Blend1dDataConstantEEE8TransferI18StreamedBinaryReadILb0EEEEvRS4_RT_
xrc:__ZNK19RectangleCellLayout11CellToLocalERKN4Grid9GridStateERKN4math7_float3E
lae:_Double_System_IConvertible_ToType_m4036266196_AdjustorThunk
VO:__ZN12AudioManagerD0Ev
aLj:___fwritex
Xb:invoke_viiififii
FPe:_Stream_EndRead_m2148943753
hdb:__ZNK22GenericPropertyBinding13SetFloatValueERKN11UnityEngine9Animation10BoundCurveEf
hac:__ZN6ShaderC2E18MemLabelIdentifier18ObjectCreationMode
eOj:__ZNSt3__211char_traitsIcE4findEPKcjRS2_
D2c:_raccess_guess_darwin_ufs_export
nwf:_CipherSuite_get_ExpandedKeyMaterialSize_m296573450
WOb:__ZN11TypeManager18InitializeAllTypesEv
SM:__ZN9AudioClipD0Ev
JEi:_InvokableCall_3_Invoke_m2530072389_gshared
age:_Array_InternalArray__ICollection_Remove_TisKeyValuePair_2_t38854645_m3060436673_gshared
o3e:_List_1_Find_m3480386930_gshared
IGh:_EqualityComparer_1__cctor_m51007461_gshared
HA:__ZN27AnimationLayerMixerPlayable26ProcessAnimationLayerBeginEP35AnimationPlayableEvaluationConstantP32AnimationPlayableEvaluationInputP33AnimationPlayableEvaluationOutput
A7b:__Z13RegisterClassI8GUILayerEvv
N5b:__ZN25ThreadsafeLinearAllocatorC2EiiPKc
swe:_SimpleCollator_IsSuffix_m740049399
tva:__ZN14GfxContextGLES11MakeCurrentER7ApiGLESN2gl13ContextHandleE
Sri:_PKCS12__cctor_m3312759338
e1c:_UNITY_tt_glyphzone_new
_xf:_RecordProtocol_BeginSendRecord_m166940611
oVe:_ShortComparer_Compare_m1398180168
KUi:_TextGenerationSettings_CompareColors_m2745847049_AdjustorThunk
qAg:__ZL56SecurityAction_t446643378_CustomAttributesCacheGeneratorP21CustomAttributesCache
BNb:__ZN16GraphicsSettings22WarmupPreloadedShadersEv
f9c:__Z34Canvas_Set_Custom_PropSortingOrderP12Il2CppObjecti
RQe:_MonoIO_get_ConsoleError_m592181393
SHb:__ZN18StreamedBinaryReadILb0EE8TransferI13dynamic_arrayI12PropertyNameLj4EEEEvRT_PKc17TransferMetaFlags
Enb:__ZN9ShaderLab4Pass6RetainEv
QYi:__ZL11decimalLog2P19il2cpp_decimal_repr
zCf:_SslCipherSuite_prf_m2084589217
cb:invoke_iiiiiiffiiiiiiiiiffffiii
s4c:__ZN2UI6Canvas8TransferI14SafeBinaryReadEEvRT_
bI:__ZN38StateMachineBehaviourVectorDescription8TransferI14SafeBinaryReadEEvRT_
Mhh:__Z51RuntimeInvoker_Color32_t874517518_Color_t2020392075PFvvEPK10MethodInfoPvPS4_
$ej:__ZN6il2cpp2gc19AppendOnlyGCHashMapIPK10Il2CppTypeP20Il2CppReflectionTypeNS_8metadata14Il2CppTypeHashENS7_26Il2CppTypeEqualityComparerEE3AddERKS4_S6_
cY:__ZN11UnityEngine15CloudWebService17CloudJobScheduler11ScheduleJobEPFvPvES2_
yQg:__ZL57CSSMeasureFunc_t2092170507_CustomAttributesCacheGeneratorP21CustomAttributesCache
THe:_Guid_Equals_m2389236871_AdjustorThunk
lZ:__ZN11UnityEngine15CloudWebService17CloudServiceEvent12ToJsonStringER9JSONWrite
ica:__ZNK18VertexChannelsInfoltERKS_
bBg:__ZL93ASCIIEncoding_t3022927988_CustomAttributesCacheGenerator_ASCIIEncoding_GetDecoder_m3693600923P21CustomAttributesCache
bwc:__ZN9JSONWrite8TransferIfEEvRT_PKc17TransferMetaFlags
PCd:_ContentSizeFitter_SetLayoutHorizontal_m2830034151
fJa:__ZN10MemoryFileD0Ev
Pic:__ZN10MonoScript27InitializeAndRegisterScriptERKN4core12basic_stringIcNS0_20StringStorageDefaultIcEEEES6_S6_S6_b
bZf:_DES_set_Key_m2689203108
kQb:__Z23DrawSplashAndWatermarksv
lVh:_InternalEnumerator_1_get_Current_m1526874475_gshared
fue:_Array_InternalArray__get_Item_TisWorkRequest_t1154022482_m2456727038_gshared
iri:_SubjectAltNameExtension_ToString_m1300810903
TBe:_RSAManaged_ImportParameters_m2382611442
uvb:__ZN13GUIStyleState8TransferI14SafeBinaryReadEEvRT_
$3h:_Comparer_1_System_Collections_IComparer_Compare_m2490067344_gshared
Wbi:_PatternCompiler_EmitSet_m866698437
Qd:_glDrawArrays
bYi:_CanvasRenderer_SetAlphaTexture_m1030438445
Xlf:_ReadOnlyCollection_1_System_Collections_IList_Add_m527174473_gshared
IXh:_InternalEnumerator_1_System_Collections_IEnumerator_get_Current_m127456009_AdjustorThunk
lOi:_HashSet_1_System_Collections_Generic_ICollectionU3CTU3E_CopyTo_m1933244740_gshared
GBg:__ZL54UTF8Encoding_t111055448_CustomAttributesCacheGeneratorP21CustomAttributesCache
PK:__ZN23AnimatedPropertyBuilder5BuildEP13AnimationClip18ScriptingObjectPtr
SNd:_LayoutRebuilder_LayoutComplete_m498127808
Cle:_Array_InternalArray__ICollection_Add_TisInt32_t2071877448_m1775306598_gshared
Vfe:_Array_InternalArray__ICollection_Remove_TisChar_t3454481338_m1562002771_gshared
GLe:_Int64_System_IConvertible_ToDateTime_m1002280174_AdjustorThunk
Q8a:__ZN14BlendShapeData8TransferI18StreamedBinaryReadILb0EEEEvRT_
PIj:__ZN6il2cpp6icalls8mscorlib6System7Runtime8Remoting7Proxies9RealProxy20InternalGetProxyTypeEP12Il2CppObject
MRb:__ZN13sorted_vectorINSt3__24pairIiN17InstancedPropInfo12PropertyTypeEEEN10vector_mapIiS3_NS0_4lessIiEE13stl_allocatorIS4_L18MemLabelIdentifier1ELi16EEE13value_compareESA_E21sort_clear_duplicatesEv
s1c:_Round_To_Grid
ZSc:_UNITY_FT_Stream_Close
QNj:__ZNSt3__212basic_stringIcNS_11char_traitsIcEENS_9allocatorIcEEEC2ERKS5_jjRKS4_
$fa:__ZL20FormatOrderedProcessPKcP17FormatOrderedDataPc
SH:__ZNK18AnimatorController13GetBehavioursEv
Ilc:__Z35DebugLogHandler_CUSTOM_Internal_Log7LogTypeP12Il2CppStringP12Il2CppObject
Opi:_MonoBehaviour_StopCoroutine_m606332095
YUj:_emscripten_glShaderBinary__wrapper
nua:__ZL17ProgramUniform3ivPK7ApiGLESjiihPKv
dja:__ZN9GfxDevice25GetBackBufferColorSurfaceEv
yJa:__ZN25SingleBlockMemoryFileData9SetLengthEy
Zec:__Z29AwakeAndActivateClonedObjectsPP6ObjectRK10vector_mapIiiNSt3__24lessIiEE13stl_allocatorINS3_4pairIiiEEL18MemLabelIdentifier1ELi16EEE
Ljj:__ZN15dense_hashtableINSt3__24pairIK10KeyWrapperINS1_IPK10MethodInfoP11Il2CppClassEEEjEES9_17ReflectionMapHashIS8_EN14dense_hash_mapIS9_jSD_NS9_14EqualsComparerINS0_8equal_toIS8_EEEENS0_9allocatorISB_EEE9SelectKeyESI_SK_E14squash_deletedEv
Zjh:__Z55RuntimeInvoker_Void_t1841601450_RaycastResult_t21186376PFvvEPK10MethodInfoPvPS4_
R7b:__Z13RegisterClassI6ShaderEvv
LIe:_Int16_System_IConvertible_ToUInt32_m883204517
c5h:_ResourceCacheItem_t333236149_marshal_pinvoke_cleanup
y0e:_List_1_CheckMatch_m1196994270_gshared
Jgd:__ZN13RuntimeStaticI11WindManagerLb0EE13StaticDestroyEPv
y4d:_Convert_ToUInt64_m3559662221
wxc:__Z18Transfer_BlittableI9JSONWriteLb1EaEvRK29SerializationCommandArgumentsR31RuntimeSerializationCommandInfo
Gjj:__ZN13Il2CppHashMapINSt3__24pairIPK10MethodInfoP11Il2CppClassEEj17ReflectionMapHashIS7_ENS0_8equal_toIS7_EENS0_9allocatorINS1_IK10KeyWrapperIS7_EjEEEEEC2EjRKS9_RKSB_
dVb:__ZN11HaloManager11HasAnyHalosEPK11CullResults
ZUd:_ArrayList_set_Item_m1858827078
q7a:__ZN9Texture3D23VirtualRedirectTransferER19StreamedBinaryWriteILb0EE
sDj:_GC_reclaim_block
Ktf:_HMAC__ctor_m2605930831
ZV:__Z13RegisterClassI10SampleClipEvv
zKc:__Z23b2CollideRadialPolygonsP10b2ManifoldPK14b2PolygonShapeRK11b2TransformS3_S6_
_Xb:__ZNK23ForwardShaderRenderLoop18RenderObjectSorterILb1EEclERK21ForwardRenderPassDataS4_
$4i:__ZN15dense_hashtableI10KeyWrapperIPK19Il2CppGenericMethodES4_N6il2cpp8metadata23Il2CppGenericMethodHashEN14dense_hash_setIS4_S7_NS4_14EqualsComparerINS6_26Il2CppGenericMethodCompareEEENSt3__29allocatorIS4_EEE8IdentityESB_SE_E12maybe_shrinkEv
dza:__ZN10BufferGLES10BeginWriteEjj
_4i:__ZNK15dense_hashtableI10KeyWrapperIPK19Il2CppGenericMethodES4_N6il2cpp8metadata23Il2CppGenericMethodHashEN14dense_hash_setIS4_S7_NS4_14EqualsComparerINS6_26Il2CppGenericMethodCompareEEENSt3__29allocatorIS4_EEE8IdentityESB_SE_E12test_deletedEj
XE:__ZN7mecanim12statemachine18StateMachineMemory8TransferI9BlobWriteEEvRT_
Xmd:_ToBase64Transform_Dispose_m1132043687
Fkj:__GLOBAL__sub_I_ArrayMetadata_cpp
D8f:_UInt64_System_IConvertible_ToByte_m953298241
cza:__ZN7ApiGLES11FlushBufferEjN2gl12BufferTargetEll
H4d:_Convert_ToUInt64_m1896191125
qwb:__ZN14SafeBinaryRead21TransferSTLStyleArrayI13dynamic_arrayI8BitFieldLj4EEEEvRT_17TransferMetaFlags
Lva:__ZN12_GLOBAL__N_127PrepareReadback_ResolveMSAAER18GfxFramebufferGLESR7ApiGLESP17RenderSurfaceGLESS5_
Ieg:_EnumBuilder_GetAttributeFlagsImpl_m4263246832
Jih:__Z98RuntimeInvoker_RaycastHit2D_t4063908774_Vector2_t2243707579_Vector2_t2243707579_Single_t2076509932PFvvEPK10MethodInfoPvPS4_
scg:_CustomAttributeData_GetHashCode_m3989739430
mRh:_Text_AssignDefaultFont_m1295571657
Vbc:__ZNK24RendererAnimationBinding9BindValueER6ObjectRKN11UnityEngine9Animation14GenericBindingERNS3_10BoundCurveE
Pe:_glBindBuffer
DHb:__ZN8GUIStyle8TransferI18StreamedBinaryReadILb0EEEEvRT_
Sca:__ZNSt3__213__stable_sortIRN10vector_mapIijNS_4lessIiEENS_9allocatorINS_4pairIijEEEEE13value_compareENS_11__wrap_iterIPS6_EEEEvT0_SE_T_NS_15iterator_traitsISE_E15difference_typeEPNSH_10value_typeEi
Gle:_Array_InternalArray__ICollection_Add_TisCustomAttributeNamedArgument_t94157543_m1003067274_gshared
_db:__ZN10VRSettings8Daydream8TransferI18StreamedBinaryReadILb0EEEEvRT_
dpb:__ZNSt3__218__insertion_sort_3IRNS_6__lessIN4core12basic_stringIcNS2_20StringStorageDefaultIcEEEES6_EEPS6_EEvT0_SA_T_
$Ze:_Enumerator_System_Collections_IEnumerator_Reset_m925111644_gshared
qQ:__ZN4FMOD7Channel13set3DPanLevelEf
HKj:_isupper
Igh:__Z93RuntimeInvoker_Vector3_t2243707580_Vector3_t2243707580_Vector3_t2243707580_Single_t2076509932PFvvEPK10MethodInfoPvPS4_
obg:_AssemblyName__ctor_m609734316
n_f:_Encoding_set_DecoderFallback_m2255528738
zYa:__ZNSt3__26__treeINS_12__value_typeIN9ShaderLab16FastPropertyNameEN18UnityPropertySheet11UnityTexEnvEEENS_19__map_value_compareIS3_S6_NS_4lessIS3_EELb1EEENS_9allocatorIS6_EEE7destroyEPNS_11__tree_nodeIS6_PvEE
Ar:__ZN13AnimationClip17MainThreadCleanupEv
FDf:_InternalAsyncResult_get_IsCompleted_m1463732458
k6i:__ZN6il2cpp2vm13MetadataCache24GetExportedTypeFromIndexEi
mXb:__ZN26LightProbeProxyVolumeCacheC2ER13BatchRendererR15RenderLoopStats
Gvc:__ZN5Unity9rapidjson6WriterI16TempBufferWriterNS0_4UTF8IcEES4_13JSONAllocatorE9WriteUintEj
nNj:_getuid
jId:_HorizontalLayoutGroup_CalculateLayoutInputVertical_m3516192138
AL:__ZN7mecanim5human8BoneNameEj
LEi:_InvokableCall_4__ctor_m2170162585_gshared
f8b:__Z13RegisterClassI10MonoScriptEvv
UAe:_AttrListImpl__ctor_m3211398293
oEi:_InvokableCall_1_Invoke_m417090952_gshared
vRc:__ZN20TextRenderingPrivate8FontImpl8TransferI18StreamedBinaryReadILb0EEEEvRT_
H$f:_StringBuilder_get_Chars_m256627635
kvi:_UnityString_Format_m328130606
T7i:__ZN6il2cpp6icalls8mscorlib6System8MonoType22get_IsGenericParameterEP20Il2CppReflectionType
dy:__ZN7mecanim5human14HumanPoseClearERNS0_9HumanPoseE
Cxi:_RectTransform_GetLocalCorners_m3824854770
TNe:_MonoIO_GetException_m957022672
bZa:__ZN18StreamedBinaryReadILb0EE19TransferSTLStyleMapINSt3__23mapIN9ShaderLab16FastPropertyNameE10ColorRGBAfNS2_4lessIS5_EENS2_9allocatorINS2_4pairIKS5_S6_EEEEEEEEvRT_17TransferMetaFlags
dzi:_Sprite_get_border_m1504762991
qKf:_X509Certificate2_GetValueAsString_m1286925493
zUd:_Char_ToLower_m2719897546
xpe:_Array_InternalArray__set_Item_TisHitInfo_t1761367055_m2693590376_gshared
eu:__ZN24GenerateTypeTreeTransfer21TransferSTLStyleArrayINSt3__26vectorIN13AnimationClip9PPtrCurveE13stl_allocatorIS4_L18MemLabelIdentifier26ELi16EEEEEEvRT_17TransferMetaFlags
OVe:_MonoType_IsPointerImpl_m648213545
eGe:_InvalidOperationException__ctor_m2801133788
J2b:__ZN13RenderManager28AreCamerasUsingMotionVectorsEv
Vba:__Z25InitializeLODGroupManagerPv
pla:__ZN13GfxDeviceGLES12EndStereoEyeE15StereoscopicEye
ABd:_CanvasScaler_SetScaleFactor_m3305903109
Zle:_Array_InternalArray__ICollection_Add_TisUriScheme_t1876590943_m3218110478_gshared
cSb:__ZNK12ImageFilters28ApplyAfterTransparentFiltersEv
YWb:__Z20CalculateLightMatrixRK15SharedLightDataP10Matrix4x4f
mcd:__ZN11UnityEngine7Connect15AppRunningEvent12ToJsonStringER9JSONWrite
LZa:__ZN19ShaderPropertySheet5ClearEb
AAf:_TlsServerCertificate_ProcessAsTls1_m3083203628
vmf:_ReadOnlyCollection_1_System_Collections_Generic_IListU3CTU3E_set_Item_m1099846173_gshared
CSb:__ZNK6Camera11GetPositionEv
zw:__ZN8Animator19CreatePlayableGraphEv
DYj:_emscripten_glClearDepth__wrapper
I3d:_Convert_ToSByte_m1880147062
msb:__ZNK16MemoryFileSystem8FilenameERK13FileEntryData
Tf:_glUniform1fv
Xf:_JS_FileSystem_Sync
_id:_MD5CryptoServiceProvider_HashCore_m2367253552
Zla:__ZNSt3__26__treeINS_12__value_typeI21GLESRenderTargetSetupN2gl6HandleILNS3_10ObjectTypeE9EEEEENS_19__map_value_compareIS2_S7_NS_4lessIS2_EELb1EEENS_9allocatorIS7_EEE7destroyEPNS_11__tree_nodeIS7_PvEE
eti:_X509StoreManager_get_TrustedRootCertificates_m122138510
Pva:__ZN4gles15BlitFramebufferERNS_23BlitFramebufferDrawQuadER9GfxDeviceii9TextureIDiiiiiiii
Vf:__emscripten_sample_gamepad_data
q9b:__Z22DelayedDestroyCallbackP6ObjectPv
jVj:_glBlendEquationSeparate__wrapper
FHd:_GraphicRegistry__cctor_m4197769737
_Nc:__ZN15b2ContactFilter13ShouldCollideEP9b2FixtureS1_
C8:__Z34scripting_class_get_declaring_type17ScriptingClassPtr
Kcd:__ZN11UnityEngine7Connect20BasePersistentValues13RestoreValuesER8JSONRead
dvf:_KeyGeneratedEventHandler_Invoke_m1298576133
_Ld:_InputField_Rebuild_m3481959062
ocb:__ZN11TimeManagerD0Ev
__:__ZN11UnityEngine15CloudWebService18RestFileDownloader10InitializeERKN4core12basic_stringIcNS2_20StringStorageDefaultIcEEEE
ES:__ZN12AudioManager33GetAudioEffectInternalDefinitionsEv
I0a:__ZN9Texture2D16DeleteGfxTextureEv
grb:__ZN20LocalFileSystemPosix4OpenER13FileEntryData14FilePermission16FileAutoBehavior
Etf:_KeyBuilder_get_Rng_m2539978716
NOi:_AudioClip_InvokePCMSetPositionCallback_Internal_m1220105088
Fse:_BaseInvokableCall_ThrowOnInvalidArg_TisVector2_t2243707579_m879131569_gshared
i4i:__ZN15dense_hashtableINSt3__24pairIK10KeyWrapperIN6il2cpp5utils13dynamic_arrayIPK10Il2CppTypeLj4EEEEPFvvEEESA_NS3_8metadata19Il2CppSignatureHashEN14dense_hash_mapISA_SD_SG_NSA_14EqualsComparerINSF_22Il2CppSignatureCompareEEENS0_9allocatorISE_EEE9SelectKeyESK_SM_ED2Ev
h4c:__ZN2UI6Canvas12AddToManagerEv
FWc:_UNITY_tt_face_load_sbit
Xwh:_ShimEnumerator_get_Current_m2516732679_gshared
q$c:_cf2_hint_isTop
M1b:__ZN23ManagedAttributeManager21GetRequiredComponentsE17ScriptingClassPtr
C3b:__Z23InitializeStdConvertersv
jt:__ZNSt3__26vectorIN13AnimationClip10FloatCurveE13stl_allocatorIS2_L18MemLabelIdentifier26ELi16EEE7reserveEj
Kef:_Collection_1_Contains_m3292349561_gshared
eJd:_Image_SetNativeSize_m3580044470
_Wb:__ZN19ShaderPropertySheet17UpdateTextureInfoEiRK23FastTexturePropertyNamePK10TextureRef
JZc:_ps_unicodes_init
wPb:__ZZ23InitPlayerLoopCallbacksvEN38PreUpdateCheckTexFieldInputRegistrator7ForwardEv
Frj:__ZNK10KeyWrapperINSt3__24pairIPKcS3_EEE14EqualsComparerI26NamespaceAndNamePairEqualsEclERKS5_SA_
EJb:__ZN13MonoBehaviour17StopAllCoroutinesEv
rca:__Z34CleanupIntermediateRendererManagerPv
pDe:_X509CertificateEnumerator__ctor_m1500464146
D5f:_Type_get_IsPointer_m3832342327
npj:__ZN6il2cpp2vm9Exception27GetExecutionEngineExceptionEPKc
BCh:_Dictionary_2_System_Collections_ICollection_CopyTo_m2784181332_gshared
uM:__Z43Register_UnityEngine_Animator_SetBoolStringv
ih:_JS_WebRequest_GetResponseHeaders
YKb:__ZNSt3__26__treeINS_12__value_typeI26SerializedObjectIdentifieriEENS_19__map_value_compareIS2_S3_NS_4lessIS2_EELb1EEENS_9allocatorIS3_EEE7destroyEPNS_11__tree_nodeIS3_PvEE
dWc:_UNITY_FT_Create_Class_tt_cmap_classes
bej:__ZN15dense_hashtableINSt3__24pairIK10KeyWrapperINS1_IPK14Il2CppAssemblyP11Il2CppClassEEEjEES9_17ReflectionMapHashIS8_EN14dense_hash_mapIS9_jSD_NS9_14EqualsComparerINS0_8equal_toIS8_EEEENS0_9allocatorISB_EEE9SelectKeyESI_SK_EC2ERKSN_j
Iic:__ZN9Scripting18RaiseNullExceptionEPKcz
Dmf:_ReadOnlyCollection_1_System_Collections_IList_Insert_m2659121605_gshared
Gea:__ZN13RuntimeStaticI13RendererSceneLb0EE16StaticInitializeEPv
sOc:__ZZN10Collider2D15InitializeClassEvEN28FunctorImpl_100kSetPolygon2D4CallEPviR11MessageData
th:_glCreateProgram
lij:__ZN6il2cpp2vm10Reflection7IsFieldEP12Il2CppObject
nne:_Array_InternalArray__ICollection_CopyTo_TisContentType_t1028629049_m330597634_gshared
GWd:_SimpleEnumerator_Reset_m3524591211
HMa:__ZN24GenerateTypeTreeTransfer32TransferSTLStyleArrayWithElementI17SortingLayerEntryEEvRT_17TransferMetaFlags
cUj:_glUniformMatrix3fv__wrapper
VRa:__ZN5Light9SetupHaloEv
gEb:__Z18Transfer_BlittableI18StreamedBinaryReadILb1EELb1E12PropertyNameEvRK29SerializationCommandArgumentsR31RuntimeSerializationCommandInfo
Ypd:_SecurityFrame__ctor_m3738328608_AdjustorThunk
gjj:__ZN15dense_hashtableINSt3__24pairIK10KeyWrapperIPK22Il2CppGenericParameterEPK24MonoGenericParameterInfoEES6_N6il2cpp5utils11PointerHashIS4_EEN14dense_hash_mapIS6_SA_SF_NS6_14EqualsComparerINS0_8equal_toIS5_EEEENS0_9allocatorISB_EEE9SelectKeyESK_SM_EC2ERKSP_j
E4:__ZN23TransformChangeDispatch12CleanupClassEPv
Shc:__ZN8UserList11SendMessageERK17MessageIdentifier
Y8c:__Z33Canvas_Get_Custom_PropScaleFactorP12Il2CppObject
pG:__ZNK26AnimatorControllerPlayable21GetStateMachineMemoryEi
jdj:__ZN6il2cpp2vm14TypeNameParser17ConsumeIdentifierEv
Nod:_EvidenceEnumerator_get_Current_m632582639
l_b:__Z15CullLocalLightsR8JobFenceS0_RK22SceneCullingParametersiPK8Vector4fRK13dynamic_arrayIhLj1EER9IndexListSC_PfP5RectTIfEP13TargetEyeMaskPPK5LightRK14ShadowCullData
iud:_DecoderFallback_get_ReplacementFallback_m2155645318
RPa:__ZNK6Camera16GetTargetTextureEv
Hfd:__ZNK20UnityWebRequestProtoI24UnityWebRequestTransport16AtomicRefCounter14RedirectHelper14ResponseHelper15DownloadHandler13UploadHandler12HeaderHelper14AsyncOperationE17GetUploadProgressEv
L1d:_Convert_ToDateTime_m3528521877
Jvb:__Z35Transfer_Blittable_SingleValueFieldI14SafeBinaryReadyEvRT_R17GeneralMonoObjectRK23StaticTransferFieldInfo
o_a:__ZN8Playable20ClearInputConnectionEi
O_i:_Rigidbody2D_INTERNAL_CALL_AddForce_m3401256999
FTb:__ZN13BatchRenderer12EndLoopFlushEv
lbe:_Enum_System_IConvertible_ToChar_m1838232954
mde:_CultureInfo_CreateTextInfo_m2269397562
ZOd:_Array_SetValue_m2469980129
Qfc:__ZNK6Sprite11GetInnerUVsE20SpriteRenderDataMode
XG:__ZN11UnityEngine9Animation28DestroyAvatarBindingConstantEPNS0_21AvatarBindingConstantERN7mecanim6memory9AllocatorE
c9b:__ZN16MessageForwarder23RegisterMessageCallbackEiPFvPviR11MessageDataEPKN5Unity4TypeE
Rbj:__ZN6il2cpp2os4File9SetLengthEPNS0_10FileHandleExPi
QTa:__ZN4Mesh30AcquireSharedMeshRenderingDataEv
di:_gmtime
ki:_emscripten_glUniform3i
Ima:__ZNK7ApiGLES10GetContextEv
yqd:_Single_System_IConvertible_ToInt16_m962677079_AdjustorThunk
eub:__Z18Transfer_BlittableI14SafeBinaryReadLb1E5RectTIfEEvRK29SerializationCommandArgumentsR31RuntimeSerializationCommandInfo
IDc:__Z7b2Alloci
z4a:__ZN15TextureSettings14SetAnisoLimitsEii
HAb:__Z19TransferField_ArrayI24GenerateTypeTreeTransfer27Converter_SimpleNativeClassI10RectOffsetEEvRK23StaticTransferFieldInfoR31RuntimeSerializationCommandInfoRT0_
Qsa:__ZN6prcoreL17RemapGenericFloatI18TexFormatARGBFloat15TexFormatRGHalfEEvPKNS_9InnerInfoE
kbj:_il2cpp_object_unbox
Ynd:_String_memcpy2_m2338403668
uUh:_InternalEnumerator_1_get_Current_m4154615771_AdjustorThunk
ctb:__ZNSt3__26vectorI4PPtrI10MonoScriptE13stl_allocatorIS3_L18MemLabelIdentifier78ELi16EEE8__appendEj
Qoe:_Array_InternalArray__set_Item_TisDateTime_t693205669_m197118909_gshared
zhg:_ModuleBuilder_GetToken_m4190668737
ZZj:_emscripten_glIsProgram__wrapper
gcc:__ZL22PrepareMeshRenderNodesILb1EEvR35RenderNodeQueuePrepareThreadContext
Bcj:__ZN6il2cpp2vm14TypeNameParser25ConsumeAssemblyIdentifierEv
Jrb:__ZN20LocalFileSystemPosix5TouchER13FileEntryData
Iyc:__ZN9JSONWrite8TransferI13dynamic_arrayItLj2EEEEvRT_PKc17TransferMetaFlags
a2f:_NativeEventCalls_SetEvent_internal_m2449488771
Ai:_emscripten_glDrawElements
tga:__ZN15dense_hashtableINSt3__24pairIKN4core12basic_stringIcNS2_20StringStorageDefaultIcEEEE13dynamic_arrayI4PPtrI6SpriteELj4EEEES6_20StringHash32FunctionIS6_EN14dense_hash_mapIS6_SC_SF_NS0_8equal_toIS6_EE13stl_allocatorISD_L18MemLabelIdentifier81ELi16EEE9SelectKeyESI_SL_ED2Ev
quf:_MD4Managed_HH_m2172169314
gld:_RSAPKCS1SignatureDeformatter_SetHashAlgorithm_m894366837
mDe:_X509Certificate_get_DSA_m3959895595
uRd:_Boolean_System_IConvertible_ToDouble_m624978277
q9d:_Delegate_get_Method_m2968370506
QAd:_Button__ctor_m975719067
NHc:__ZN20SpriteTilingProperty8TransferI14SafeBinaryReadEEvRT_
Fu:__ZN13AnimationClip8TransferI18StreamedBinaryReadILb0EEEEvRT_
x4f:_TimeSpan_CompareTo_m2891128664
tE:__ZN9BlobWriteD2Ev
nni:_Input_get_mouseScrollDelta_m3621133506
rub:__ZL26Transfer_SimpleNativeClassI14SafeBinaryRead8GradientLb0EEvRK29SerializationCommandArgumentsR31RuntimeSerializationCommandInfo
lZj:_emscripten_glClientActiveTexture__wrapper
w5i:__ZNK15dense_hashtableI10KeyWrapperIPK17Il2CppGenericInstES4_N6il2cpp8metadata21Il2CppGenericInstHashEN14dense_hash_setIS4_S7_NS4_14EqualsComparerINS6_24Il2CppGenericInstCompareEEENSt3__29allocatorIS4_EEE8IdentityESB_SE_E4findERKS4_
xni:_Input_get_compositionString_m3305020009
idh:__Z71RuntimeInvoker_Double_t4078015681_Double_t4078015681_Double_t4078015681PFvvEPK10MethodInfoPvPS4_
_xe:_PrimalityTests_RabinMillerTest_m1376858197
qid:_HMACSHA1__ctor_m2027292306
ZYf:_DES_Create_m2705450713
Xsi:_X509CertificateCollection_Remove_m2722259192
Bke:_Array_InternalArray__IndexOf_TisSingle_t2076509932_m2151846718_gshared
BWa:__ZN13RenderTexture23VirtualRedirectTransferER18StreamedBinaryReadILb0EE
GIi:_GUIUtility_CheckOnGUI_m4132974677
pBg:__ZL56StringBuilder_t1221177846_CustomAttributesCacheGeneratorP21CustomAttributesCache
GJe:_NumberFormatter_FormatHexadecimal_m1317851390
dXc:_UNITY_tt_face_lookup_table
tLf:_X509Certificate2Collection_AddRange_m1503879780
rvc:__ZN5Unity9rapidjson13GenericReaderINS0_4UTF8IcEES3_13JSONAllocatorE9ParseHex4INS0_25GenericInsituStringStreamIS3_EEEEjRT_
nxa:__Z17ComputeMipmapSizeiii14GraphicsFormat
POe:_StreamReader__ctor_m871771009
c$c:_cf2_stack_pushFixed
Rpa:__ZN4crnd12crn_unpacker12unpack_dxt5aEPPhjjjjjj
gei:_AnchorInfo_get_Length_m1721106162
rTf:_RemotingConfiguration_RegisterActivatedClientType_m2207611714
oyh:_Transform_1_Invoke_m1224512163_gshared
tHj:__ZN6il2cpp2os5Mutex4LockEb
AHd:_GraphicRaycaster_Raycast_m3351280444
UFb:__Z29Transfer_Blittable_ArrayFieldI18StreamedBinaryReadILb1EE8Vector2fEvRT_R9ArrayInfoRK23StaticTransferFieldInfo
p8c:__Z50CanvasRenderer_CUSTOM_CreateUIVertexStreamInternalP12Il2CppObjectS0_S0_S0_S0_S0_S0_S0_S0_S0_
tda:__ZN14PlayableOutput15PrepareTraverseERK9FrameData
Vpj:__ZN6il2cpp2vm13LivenessState25FieldCanContainReferencesEP9FieldInfo
GIb:__ZL19RequireCorLibMethodPKcS0_S0_
xDa:__ZNK5Unity9Component22GetTypeVirtualInternalEv
Zsg:__ZL111RegionInfo_t3784626978_CustomAttributesCacheGenerator_RegionInfo_t3784626978____CurrencyNativeName_PropertyInfoP21CustomAttributesCache
_l:_emscripten_get_fullscreen_status
Tid:_MD5_Create_m1572997499
WEe:_AppDomain_LoadAssembly_m1537679648
Dta:__ZN6prcoreL26RemapGenericIntegerToFloatI17TexFormatARGB888817TexFormatRGBFloatEEvPKNS_9InnerInfoE
Y9g:__Z146RuntimeInvoker_Void_t1841601450_RuntimeObject_RuntimeObject_Int64_t909078037_RuntimeObject_RuntimeObject_RuntimeObject_RuntimeObject_RuntimeObjectPFvvEPK10MethodInfoPvPS4_
y$b:__ZN15LODGroupManager27GarbageCollectCameraLODDataEv
RGa:__ZN11NamedObjectC2E18MemLabelIdentifier18ObjectCreationMode
N2b:__ZN13ScreenManagerC2Ev
AXe:_OrdinalComparer_GetHashCode_m3400975772
jA:__ZN7mecanim20ValueArrayBlendBeginILb1EEEvRNS_14ValueArrayMaskE
esc:__ZN12GUIClipState20CalculateMouseValuesER10InputEvent
Uzb:__Z18Transfer_BlittableI24GenerateTypeTreeTransferLb0E12PropertyNameEvRK29SerializationCommandArgumentsR31RuntimeSerializationCommandInfo
Ema:__ZN7ApiGLES4InitERK14GfxContextGLESR16GfxDeviceLevelGL
oPa:__ZNK11LightProbes14LightProbeData33GetLightProbeInterpolationWeightsERK8Vector3fRiR8Vector4fRf
fSf:_SoapServices_GetAssemblyName_m2037446159
w0:__ZN21UnityDefaultAllocatorI17LowLevelAllocatorED0Ev
M2a:__ZN8Renderer15SetIsRenderableEb
mVh:_InternalEnumerator_1_System_Collections_IEnumerator_get_Current_m1313308902_AdjustorThunk
Z7f:_UInt32_System_IConvertible_ToInt64_m3091851828_AdjustorThunk
Rta:__Z14DecodeBC7BlockP9HDRColorAPKh
Tbc:__ZNK24RendererAnimationBinding12GetPPtrValueERKN11UnityEngine9Animation10BoundCurveE
vyf:_ClientSessionCache__cctor_m1134810266
cfi:_CharacterClass_GetIntervalCost_m2706255216
qVf:_ObjectReader_ReadGenericArray_m788836286
KEj:_GC_new_proc_inner
mc:invoke_fiiffi
iWa:__ZN19RenderBufferManager13GetTempBufferE17RenderTextureDesc
$$c:_UNITY_FT_Init_Class_cff_service_glyph_dict
KH:__ZN18AnimatorController23VirtualRedirectTransferER18StreamedBinaryReadILb0EE
vtb:__Z35Transfer_Blittable_FixedBufferFieldI14SafeBinaryReadiEvRK29SerializationCommandArgumentsR31RuntimeSerializationCommandInfo
Kli:_InvokableCallList_AddPersistentInvokableCall_m452514359
Pjd:_RijndaelManagedTransform_TransformFinalBlock_m3663752599
Vsd:_String_Format_m4262916296
hSb:__ZNK25CameraStackRenderingState21IsRenderingLastCameraEv
bra:__ZL24stbir__filter_catmullromff
lwe:_SimpleCollator_CompareInternal_m280569710
jOj:__ZNSt3__212basic_stringIcNS_11char_traitsIcEENS_9allocatorIcEEE6__initEPKcjj
UGc:__ZN10ClipperLib7Clipper8AddOutPtEPNS_5TEdgeERKNS_8IntPointE
fSc:__ZN20TextRenderingPrivate15GetFormatStringER11UTF16StringR13dynamic_arrayINS_16TextFormatChangeELj4EE
QKf:_X509ExtensionEnumerator_get_Current_m3926549773
Kdh:__Z77RuntimeInvoker_TimeSpan_t3430258949_TimeSpan_t3430258949_TimeSpan_t3430258949PFvvEPK10MethodInfoPvPS4_
b9i:__ZN6il2cpp6icalls8mscorlib6SystemL16CheckMemberMatchI9EventInfoNS_5utils10functional6FilterINSt3__212basic_stringIcNS8_11char_traitsIcEENS8_9allocatorIcEEEENS5_13VmStringUtils21CaseSensitiveComparerEEEEEbPKT_PK11Il2CppClassSN_iRKT0_
RJe:_NumberFormatter_IsZeroOnly_m3495795110
fJe:_Int32_ValidDigit_m2682121722
I1b:__Z23ValidateScriptComponentP10MonoScriptPN4core12basic_stringIcNS1_20StringStorageDefaultIcEEEE
_x:__ZN7mecanim9animation12GetHumanPoseIfEEvRKNS0_18ClipMuscleConstantEPKT_RNS_5human9HumanPoseE
E6a:__ZNSt3__215__inplace_mergeIRNS_4lessI4PPtrI11SpriteAtlasEEENS_11__wrap_iterIPS4_EEEEvT0_SA_SA_T_NS_15iterator_traitsISA_E15difference_typeESE_PNSD_10value_typeEi
k:ABORT
fEj:_GC_init_headers
TGj:__ZNSt3__26__treeINS_12__value_typeINS_12basic_stringIcNS_11char_traitsIcEENS_9allocatorIcEEEEPFvvEEENS_19__map_value_compareIS7_SA_NS_4lessIS7_EELb1EEENS5_ISA_EEE13__lower_boundIS7_EENS_15__tree_iteratorISA_PNS_11__tree_nodeISA_PvEEiEERKT_SM_SM_
uOb:__ZN26SinglePassStereoSupportExt27InitSinglePassStereoSupportEP21ISinglePassStereoImplP9GfxDevice
SUc:_UNITY_FT_Init_Class_ft_outline_glyph_class
lui:_PlayableBinding__cctor_m98050961
OHf:_IPv6Address_AsIPv4Int_m3565745471
n0:__ZNSt3__23mapIN19CloudServiceHandler11ServiceTypeEPS1_NS_4lessIS2_EE13stl_allocatorINS_4pairIKS2_S3_EEL18MemLabelIdentifier88ELi16EEEixERS8_
SJf:_X509BasicConstraintsExtension__ctor_m4017912156
sih:__Z75RuntimeInvoker_Playable_t1896841784_PlayableGraph_t1041204988_RuntimeObjectPFvvEPK10MethodInfoPvPS4_
kTj:_glTexStorage3D__wrapper
PZc:_ft_get_adobe_glyph_index
NGj:__ZNSt3__26__treeINS_12__value_typeINS_12basic_stringIcNS_11char_traitsIcEENS_9allocatorIcEEEEPFvvEEENS_19__map_value_compareIS7_SA_NS_4lessIS7_EELb1EEENS5_ISA_EEE25__emplace_unique_key_argsIS7_JRKNS_21piecewise_construct_tENS_5tupleIJOS7_EEENSL_IJEEEEEENS_4pairINS_15__tree_iteratorISA_PNS_11__tree_nodeISA_PvEEiEEbEERKT_DpOT0_
Spc:__Z47Register_UnityEngine_Texture_Internal_GetHeightv
eKb:__Z25scripting_field_get_flags17ScriptingFieldPtr
gqi:_MessageEvent__ctor_m1822782644
mMh:_Scrollbar_OnBeginDrag_m574021735
UAc:__ZN8JSONRead8TransferIyEEvRT_PKc17TransferMetaFlagsb
_tb:__Z18Transfer_BlittableI14SafeBinaryReadLb0EtEvRK29SerializationCommandArgumentsR31RuntimeSerializationCommandInfo
ASh:_U3CGetEnumeratorU3Ec__Iterator0_MoveNext_m2489948797_gshared
n1:__ZNK20DynamicHeapAllocatorI17LowLevelAllocatorE8ContainsEPKv
XC:__ZN23AnimationPlayableOutput7DestroyEv
P9g:__Z128RuntimeInvoker_Void_t1841601450_Byte_t3683104436_RuntimeObject_SByte_t454417549_ObjectU26_t597476745_HeaderU5BU5DU26_t2818328198PFvvEPK10MethodInfoPvPS4_
zki:_Debug_LogError_m3299155069
spj:__ZN6il2cpp2vm14PlatformInvoke36MarshalCppStringToCSharpStringResultEPKc
gZb:__ZN8Material23GetStencilWriteMaterialEv
owa:__Z12GetBlockSize14GraphicsFormat
ZTe:_Math_Log_m3325929366
fEf:_SslStreamBase_Flush_m2762644405
RH:__ZNK18AnimatorController12StringFromIDEj
sIi:_Event_PopEvent_m4241312794
FMa:__ZN10TagManager8TransferI24GenerateTypeTreeTransferEEvRT_
gLh:_ReflectionMethodsCache_get_Singleton_m2330935729
COf:_InterpreterFactory_get_GroupCount_m1785101782
Kij:__ZN15dense_hashtableINSt3__24pairIK10KeyWrapperIPK14Il2CppAssemblyEPK22Il2CppMonoAssemblyNameEES6_N6il2cpp5utils11PointerHashIS4_EEN14dense_hash_mapIS6_SA_SF_NS6_14EqualsComparerINS0_8equal_toIS5_EEEENS0_9allocatorISB_EEE9SelectKeyESK_SM_EC2ERKSP_j
OUd:_CharEnumerator_Clone_m3844021309
lze:_BlockProcessor_Initialize_m3476609078
wgc:__Z35AllocExtractMeshComponentFromScriptRK4Mesh30InternalScriptingShaderChannel34InternalScriptingVertexChannelTypei
kA:__ZN7mecanim12SetValueMaskILb1EEEvPNS_14ValueArrayMaskEb
mMa:__ZN10TagManager23VirtualRedirectTransferER24GenerateTypeTreeTransfer
Qof:_ReadOnlyCollection_1_System_Collections_IList_Remove_m688362945_gshared
lfe:_Array_InternalArray__ICollection_Contains_TisMonoResource_t3127387157_m1257352693_gshared
Xqa:__ZL23stbir__filter_trapezoidff
fX:__Z44Register_UnityEngine_AudioClip_get_ambisonicv
xNf:_Key_GetHashCode_m345804220
J4f:_TimeSpan_FromHours_m2521548378
Iae:_Double_System_IConvertible_ToUInt16_m286326038
w0b:__ZN23ScriptableRenderContextD2Ev
